

Microchip MPLAB XC8 Assembler V2.32 build 20210201212658 
                                                                                               Sat Jul 24 16:27:14 2021

Microchip MPLAB XC8 C Compiler v2.32 (Free license) build 20210201212658 Og1 
     1                           	processor	18F2620
     2                           	fnconf	rparam,??,?,0
     3                           	pagewidth 120
     4                           	opt	flic
     5                           	psect	idataCOMRAM,global,class=CODE,delta=1,noexec
     6                           	psect	cinit,global,reloc=2,class=CODE,delta=1
     7                           	psect	bssCOMRAM,global,class=COMRAM,space=1,delta=1,lowdata,noexec
     8                           	psect	dataCOMRAM,global,class=COMRAM,space=1,delta=1,lowdata,noexec
     9                           	psect	cstackCOMRAM,global,class=COMRAM,space=1,delta=1,lowdata,noexec
    10                           	psect	text0,global,reloc=2,class=CODE,delta=1
    11                           	psect	text1,global,reloc=2,class=CODE,delta=1
    12                           	psect	text2,global,reloc=2,class=CODE,delta=1
    13                           	psect	text3,global,reloc=2,class=CODE,delta=1
    14                           	psect	text4,global,reloc=2,class=CODE,delta=1
    15                           	psect	text5,global,reloc=2,class=CODE,delta=1
    16                           	psect	text6,global,reloc=2,class=CODE,delta=1
    17                           	psect	text7,global,reloc=2,class=CODE,delta=1
    18                           	psect	text8,global,reloc=2,class=CODE,delta=1
    19                           	psect	text9,global,reloc=2,class=CODE,delta=1
    20                           	psect	text10,global,reloc=2,class=CODE,delta=1
    21                           	psect	text11,global,reloc=2,class=CODE,delta=1
    22                           	psect	text12,global,reloc=2,class=CODE,delta=1
    23                           	psect	text13,global,reloc=2,class=CODE,delta=1
    24                           	psect	intcode,global,reloc=2,class=CODE,delta=1
    25                           	psect	intcode_body,global,reloc=2,class=CODE,delta=1
    26                           	psect	text15,global,reloc=2,class=CODE,delta=1
    27                           	psect	text16,global,reloc=2,class=CODE,delta=1
    28                           	psect	text17,global,reloc=2,class=CODE,delta=1
    29                           	psect	text18,global,reloc=2,class=CODE,delta=1
    30                           	psect	text19,global,reloc=2,class=CODE,delta=1
    31                           	psect	text20,global,reloc=2,class=CODE,delta=1
    32                           	psect	text21,global,reloc=2,class=CODE,delta=1
    33                           	psect	text22,global,reloc=2,class=CODE,delta=1
    34                           	psect	text23,global,reloc=2,class=CODE,delta=1
    35                           	psect	intsave_regs,global,class=BIGRAM,space=1,delta=1,noexec
    36                           	psect	rparam,global,class=COMRAM,space=1,delta=1,noexec
    37                           	psect	temp,global,ovrld,common,class=COMRAM,space=1,delta=1
    38                           	psect	idloc,global,abs,ovrld,class=IDLOC,space=5,delta=1,noexec
    39                           	psect	config,global,abs,ovrld,class=CONFIG,space=4,delta=1,noexec
    40  0000                     
    41                           ; Version 2.20
    42                           ; Generated 12/02/2020 GMT
    43                           ; 
    44                           ; Copyright © 2020, Microchip Technology Inc. and its subsidiaries ("Microchip")
    45                           ; All rights reserved.
    46                           ; 
    47                           ; This software is developed by Microchip Technology Inc. and its subsidiaries ("Microch
      +                          ip").
    48                           ; 
    49                           ; Redistribution and use in source and binary forms, with or without modification, are
    50                           ; permitted provided that the following conditions are met:
    51                           ; 
    52                           ;     1. Redistributions of source code must retain the above copyright notice, this lis
      +                          t of
    53                           ;        conditions and the following disclaimer.
    54                           ; 
    55                           ;     2. Redistributions in binary form must reproduce the above copyright notice, this 
      +                          list
    56                           ;        of conditions and the following disclaimer in the documentation and/or other
    57                           ;        materials provided with the distribution.
    58                           ; 
    59                           ;     3. Microchip's name may not be used to endorse or promote products derived from th
      +                          is
    60                           ;        software without specific prior written permission.
    61                           ; 
    62                           ; THIS SOFTWARE IS PROVIDED BY MICROCHIP "AS IS" AND ANY EXPRESS OR IMPLIED WARRANTIES,
    63                           ; INCLUDING, BUT NOT LIMITED TO, THE IMPLIED WARRANTIES OF MERCHANTABILITY AND FITNESS F
      +                          OR
    64                           ; PURPOSE ARE DISCLAIMED.  IN NO EVENT SHALL MICROCHIP BE LIABLE FOR ANY DIRECT, INDIREC
      +                          T,
    65                           ; INCIDENTAL, SPECIAL, EXEMPLARY, OR CONSEQUENTIAL DAMAGES (INCLUDING BUT NOT LIMITED TO
    66                           ; PROCUREMENT OF SUBSTITUTE GOODS OR SERVICES; LOSS OF USE, DATA OR PROFITS; OR BUSINESS
    67                           ; INTERRUPTION) HOWSOEVER CAUSED AND ON ANY THEORY OF LIABILITY, WHETHER IN CONTRACT, ST
      +                          RICT
    68                           ; LIABILITY, OR TORT (INCLUDING NEGLIGENCE OR OTHERWISE) ARISING IN ANY WAY OUT OF THE U
      +                          SE OF
    69                           ; THIS SOFTWARE, EVEN IF ADVISED OF THE POSSIBILITY OF SUCH DAMAGE.
    70                           ; 
    71                           ; 
    72                           ; Code-generator required, PIC18F2620 Definitions
    73                           ; 
    74                           ; SFR Addresses
    75  0000                     
    76                           	psect	idataCOMRAM
    77  00119C                     __pidataCOMRAM:
    78                           	callstack 0
    79                           
    80                           ;initializer for _TargetTime
    81  00119C  00                 	db	0
    82  00119D  00                 	db	0
    83  00119E  12                 	db	18
    84  0000                     _TMR3	set	4018
    85  0000                     _SSPSTATbits	set	4039
    86  0000                     _SSPBUF	set	4041
    87  0000                     _SSPCON2bits	set	4037
    88  0000                     _LATB	set	3978
    89  0000                     _LATA	set	3977
    90  0000                     _PIR2bits	set	4001
    91  0000                     _PIR1bits	set	3998
    92  0000                     _OSCCON	set	4051
    93  0000                     _T2CONbits	set	4042
    94  0000                     _T2CON	set	4042
    95  0000                     _CCP1CON	set	4029
    96  0000                     _PR2	set	4043
    97  0000                     _INTCON3	set	4080
    98  0000                     _INTCON2	set	4081
    99  0000                     _PIE1	set	3997
   100  0000                     _PIE2	set	4000
   101  0000                     _INTCON	set	4082
   102  0000                     _T3CON	set	4017
   103  0000                     _T1CON	set	4045
   104  0000                     _T0CON	set	4053
   105  0000                     _SSPCON1	set	4038
   106  0000                     _SSPADD	set	4040
   107  0000                     _TRISCbits	set	3988
   108  0000                     _TRISB	set	3987
   109  0000                     _TRISA	set	3986
   110  0000                     _TRISC	set	3988
   111  0000                     _T1CONbits	set	4045
   112  0000                     _T0CONbits	set	4053
   113  0000                     _CCPR1L	set	4030
   114  0000                     _CCP1CONbits	set	4029
   115  0000                     _PORTCbits	set	3970
   116  0000                     _INTCON3bits	set	4080
   117  0000                     _INTCONbits	set	4082
   118  0000                     _PIE1bits	set	3997
   119  0000                     _PIE2bits	set	4000
   120  0000                     _ACKEN	set	32300
   121  0000                     _PEN	set	32298
   122  0000                     _SSPIF	set	31987
   123  0000                     _SEN	set	32296
   124                           
   125                           ; #config settings
   126                           
   127                           	psect	cinit
   128  000FF4                     __pcinit:
   129                           	callstack 0
   130  000FF4                     start_initialization:
   131                           	callstack 0
   132  000FF4                     __initialization:
   133                           	callstack 0
   134                           
   135                           ; Initialize objects allocated to COMRAM (3 bytes)
   136                           ; load TBLPTR registers with __pidataCOMRAM
   137  000FF4  0E9C               	movlw	low __pidataCOMRAM
   138  000FF6  6EF6               	movwf	tblptrl,c
   139  000FF8  0E11               	movlw	high __pidataCOMRAM
   140  000FFA  6EF7               	movwf	tblptrh,c
   141  000FFC  0E00               	movlw	low (__pidataCOMRAM shr (0+16))
   142  000FFE  6EF8               	movwf	tblptru,c
   143  001000  0009               	tblrd		*+	;fetch initializer
   144  001002  CFF5 F02C          	movff	tablat,__pdataCOMRAM
   145  001006  0009               	tblrd		*+	;fetch initializer
   146  001008  CFF5 F02D          	movff	tablat,__pdataCOMRAM+1
   147  00100C  0009               	tblrd		*+	;fetch initializer
   148  00100E  CFF5 F02E          	movff	tablat,__pdataCOMRAM+2
   149                           
   150                           ; Clear objects allocated to COMRAM (28 bytes)
   151  001012  EE00  F001         	lfsr	0,__pbssCOMRAM
   152  001016  0E1C               	movlw	28
   153  001018                     clear_0:
   154  001018  6AEE               	clrf	postinc0,c
   155  00101A  06E8               	decf	wreg,f,c
   156  00101C  E1FD               	bnz	clear_0
   157  00101E                     end_of_initialization:
   158                           	callstack 0
   159  00101E                     __end_of__initialization:
   160                           	callstack 0
   161  00101E  902F               	bcf	int$flags,0,c	;clear compiler interrupt flag (level 1)
   162  001020  922F               	bcf	int$flags,1,c	;clear compiler interrupt flag (level 2)
   163  001022  0E00               	movlw	low (__Lmediumconst shr (0+16))
   164  001024  6EF8               	movwf	tblptru,c
   165  001026  0100               	movlb	0
   166  001028  EFA2  F002         	goto	_main	;jump to C main() function
   167                           
   168                           	psect	bssCOMRAM
   169  000001                     __pbssCOMRAM:
   170                           	callstack 0
   171  000001                     _ValveTime:
   172                           	callstack 0
   173  000001                     	ds	3
   174  000004                     _WateringTime:
   175                           	callstack 0
   176  000004                     	ds	3
   177  000007                     _WakeUpTime:
   178                           	callstack 0
   179  000007                     	ds	3
   180  00000A                     _CurrentTime:
   181                           	callstack 0
   182  00000A                     	ds	3
   183  00000D                     _CurrentValveTime:
   184                           	callstack 0
   185  00000D                     	ds	2
   186  00000F                     _CurrentWateringTime:
   187                           	callstack 0
   188  00000F                     	ds	2
   189  000011                     _LastSecond:
   190                           	callstack 0
   191  000011                     	ds	1
   192  000012                     _BuzzerFlag:
   193                           	callstack 0
   194  000012                     	ds	1
   195  000013                     _UpdateTimePrescale:
   196                           	callstack 0
   197  000013                     	ds	1
   198  000014                     _ValveEnableLock:
   199                           	callstack 0
   200  000014                     	ds	1
   201  000015                     _ValveEnable:
   202                           	callstack 0
   203  000015                     	ds	1
   204  000016                     _WaterEnableLock:
   205                           	callstack 0
   206  000016                     	ds	1
   207  000017                     _WaterEnable:
   208                           	callstack 0
   209  000017                     	ds	1
   210  000018                     _UpdateTimeFlag:
   211                           	callstack 0
   212  000018                     	ds	1
   213  000019                     _State:
   214                           	callstack 0
   215  000019                     	ds	1
   216  00001A                     _Blink:
   217                           	callstack 0
   218  00001A                     	ds	1
   219  00001B                     _Blink_Second_Digit:
   220                           	callstack 0
   221  00001B                     	ds	1
   222  00001C                     _Blink_First_Digit:
   223                           	callstack 0
   224  00001C                     	ds	1
   225                           
   226                           	psect	dataCOMRAM
   227  00002C                     __pdataCOMRAM:
   228                           	callstack 0
   229  00002C                     _TargetTime:
   230                           	callstack 0
   231  00002C                     	ds	3
   232                           
   233                           	psect	cstackCOMRAM
   234  00001D                     __pcstackCOMRAM:
   235                           	callstack 0
   236  00001D                     ??_TMR0interruption:
   237  00001D                     ChangeTime@Time:
   238                           	callstack 0
   239  00001D                     i2AddBCD@Number2:
   240                           	callstack 0
   241  00001D                     i2SubBCD@Number2:
   242                           	callstack 0
   243                           
   244                           ; 1 bytes @ 0x0
   245  00001D                     	ds	1
   246  00001E                     ??i2_AddBCD:
   247  00001E                     ??i2_SubBCD:
   248  00001E                     ChangeTime@Address:
   249                           	callstack 0
   250                           
   251                           ; 1 bytes @ 0x1
   252  00001E                     	ds	1
   253  00001F                     i2AddBCD@Number1:
   254                           	callstack 0
   255  00001F                     i2SubBCD@Number1:
   256                           	callstack 0
   257                           
   258                           ; 1 bytes @ 0x2
   259  00001F                     	ds	1
   260  000020                     i2AddBCD@temp:
   261                           	callstack 0
   262  000020                     i2SubBCD@temp:
   263                           	callstack 0
   264                           
   265                           ; 1 bytes @ 0x3
   266  000020                     	ds	1
   267  000021                     ??i2_WakeUp:
   268                           
   269                           ; 1 bytes @ 0x4
   270  000021                     	ds	1
   271  000022                     ??_my_isr_routine:
   272                           
   273                           ; 1 bytes @ 0x5
   274  000022                     	ds	2
   275  000024                     ??_BlinkDigit:
   276  000024                     AddBCD@Number2:
   277                           	callstack 0
   278  000024                     SubBCD@Number2:
   279                           	callstack 0
   280  000024                     Display@Minutes:
   281                           	callstack 0
   282                           
   283                           ; 1 bytes @ 0x7
   284  000024                     	ds	1
   285  000025                     ??_AddBCD:
   286  000025                     ??_SubBCD:
   287  000025                     Display@Upper_Hours:
   288                           	callstack 0
   289                           
   290                           ; 1 bytes @ 0x8
   291  000025                     	ds	1
   292  000026                     BlinkDigit@index:
   293                           	callstack 0
   294  000026                     AddBCD@Number1:
   295                           	callstack 0
   296  000026                     SubBCD@Number1:
   297                           	callstack 0
   298  000026                     Display@Lower_Hours:
   299                           	callstack 0
   300                           
   301                           ; 1 bytes @ 0x9
   302  000026                     	ds	1
   303  000027                     AddBCD@temp:
   304                           	callstack 0
   305  000027                     SubBCD@temp:
   306                           	callstack 0
   307  000027                     Display@Upper_Minutes:
   308                           	callstack 0
   309                           
   310                           ; 1 bytes @ 0xA
   311  000027                     	ds	1
   312  000028                     ??_WakeUp:
   313  000028                     Display@Lower_Minutes:
   314                           	callstack 0
   315                           
   316                           ; 1 bytes @ 0xB
   317  000028                     	ds	1
   318  000029                     Display@Hours:
   319                           	callstack 0
   320                           
   321                           ; 1 bytes @ 0xC
   322  000029                     	ds	1
   323  00002A                     ??_main:
   324                           
   325                           ; 1 bytes @ 0xD
   326  00002A                     	ds	2
   327                           
   328 ;;
   329 ;;Main: autosize = 0, tempsize = 2, incstack = 0, save=0
   330 ;;
   331 ;; *************** function _main *****************
   332 ;; Defined at:
   333 ;;		line 101 in file "main.c"
   334 ;; Parameters:    Size  Location     Type
   335 ;;		None
   336 ;; Auto vars:     Size  Location     Type
   337 ;;		None
   338 ;; Return value:  Size  Location     Type
   339 ;;                  1    wreg      void 
   340 ;; Registers used:
   341 ;;		wreg, status,2, status,0, cstack
   342 ;; Tracked objects:
   343 ;;		On entry : 0/0
   344 ;;		On exit  : 0/0
   345 ;;		Unchanged: 0/0
   346 ;; Data sizes:     COMRAM   BANK0   BANK1   BANK2   BANK3   BANK4   BANK5   BANK6   BANK7   BANK8   BANK9  BANK10  BANK1
      +1  BANK12  BANK13  BANK14  BANK15
   347 ;;      Params:         0       0       0       0       0       0       0       0       0       0       0       0       
      +0       0       0       0       0
   348 ;;      Locals:         0       0       0       0       0       0       0       0       0       0       0       0       
      +0       0       0       0       0
   349 ;;      Temps:          2       0       0       0       0       0       0       0       0       0       0       0       
      +0       0       0       0       0
   350 ;;      Totals:         2       0       0       0       0       0       0       0       0       0       0       0       
      +0       0       0       0       0
   351 ;;Total ram usage:        2 bytes
   352 ;; Hardware stack levels required when called: 5
   353 ;; This function calls:
   354 ;;		_AddBCD
   355 ;;		_BlinkDigit
   356 ;;		_Display
   357 ;;		_MCUconfig
   358 ;;		_MCUinit
   359 ;;		_UpdateCurrentTime
   360 ;;		_WakeUp
   361 ;; This function is called by:
   362 ;;		Startup code after reset
   363 ;; This function uses a non-reentrant model
   364 ;;
   365                           
   366                           	psect	text0
   367  000544                     __ptext0:
   368                           	callstack 0
   369  000544                     _main:
   370                           	callstack 26
   371  000544                     
   372                           ;main.c: 103:     MCUconfig();
   373  000544  EC9E  F008         	call	_MCUconfig	;wreg free
   374                           
   375                           ;main.c: 104:     MCUinit();
   376  000548  ECBD  F008         	call	_MCUinit	;wreg free
   377  00054C                     l1977:
   378                           
   379                           ;main.c: 108:         _delay((unsigned long)((1)*(4000000/4000.0)));
   380  00054C  0EC8               	movlw	200
   381  00054E                     u2007:
   382  00054E  D000               	nop2	
   383  000550  2EE8               	decfsz	wreg,f,c
   384  000552  D7FD               	bra	u2007
   385                           
   386                           ;main.c: 110:         switch(State){
   387  000554  EF5F  F004         	goto	l2131
   388  000558                     l1979:
   389                           
   390                           ;main.c: 113:                 Display(CurrentTime[2], CurrentTime[1]);
   391  000558  C00B  F024         	movff	_CurrentTime+1,Display@Minutes
   392  00055C  500C               	movf	(_CurrentTime+2)^0,w,c
   393  00055E  ECEA  F005         	call	_Display
   394                           
   395                           ;main.c: 114:                 BlinkDigit(1);
   396  000562  0E01               	movlw	1
   397  000564  ECAA  F007         	call	_BlinkDigit
   398                           
   399                           ;main.c: 116:                 break;
   400  000568  EFA6  F002         	goto	l1977
   401  00056C                     l1981:
   402                           
   403                           ;main.c: 120:                 Display(CurrentTime[2], CurrentTime[1]);
   404  00056C  C00B  F024         	movff	_CurrentTime+1,Display@Minutes
   405  000570  500C               	movf	(_CurrentTime+2)^0,w,c
   406  000572  ECEA  F005         	call	_Display
   407                           
   408                           ;main.c: 121:                 BlinkDigit(2);
   409  000576  0E02               	movlw	2
   410  000578  ECAA  F007         	call	_BlinkDigit
   411                           
   412                           ;main.c: 123:                 break;
   413  00057C  EFA6  F002         	goto	l1977
   414  000580                     l156:
   415  000580  0003               	sleep		;# 
   416                           
   417                           ;main.c: 129:                 break;
   418  000582  EFA6  F002         	goto	l1977
   419  000586                     l1983:
   420                           
   421                           ;main.c: 133:                 if(UpdateTimeFlag){
   422  000586  5018               	movf	_UpdateTimeFlag^0,w,c
   423  000588  B4D8               	btfsc	status,2,c
   424  00058A  EFC9  F002         	goto	u1551
   425  00058E  EFCB  F002         	goto	u1550
   426  000592                     u1551:
   427  000592  EFE9  F002         	goto	l1995
   428  000596                     u1550:
   429  000596                     
   430                           ;main.c: 135:                     UpdateCurrentTime();
   431  000596  ECA0  F004         	call	_UpdateCurrentTime	;wreg free
   432  00059A                     
   433                           ;main.c: 137:                     if(CurrentTime[2] == TargetTime[2] && CurrentTime[1] =
      +                          = TargetTime[1]) {
   434  00059A  502E               	movf	(_TargetTime+2)^0,w,c
   435  00059C  180C               	xorwf	(_CurrentTime+2)^0,w,c
   436  00059E  A4D8               	btfss	status,2,c
   437  0005A0  EFD4  F002         	goto	u1561
   438  0005A4  EFD6  F002         	goto	u1560
   439  0005A8                     u1561:
   440  0005A8  EFE3  F002         	goto	l1993
   441  0005AC                     u1560:
   442  0005AC  502D               	movf	(_TargetTime+1)^0,w,c
   443  0005AE  180B               	xorwf	(_CurrentTime+1)^0,w,c
   444  0005B0  A4D8               	btfss	status,2,c
   445  0005B2  EFDD  F002         	goto	u1571
   446  0005B6  EFDF  F002         	goto	u1570
   447  0005BA                     u1571:
   448  0005BA  EFE3  F002         	goto	l1993
   449  0005BE                     u1570:
   450  0005BE                     
   451                           ;main.c: 138:                         WaterEnable = 1;
   452  0005BE  0E01               	movlw	1
   453  0005C0  6E17               	movwf	_WaterEnable^0,c
   454                           
   455                           ;main.c: 139:                     }else{
   456  0005C2  EFE7  F002         	goto	l160
   457  0005C6                     l1993:
   458                           
   459                           ;main.c: 140:                         WaterEnable = 0;
   460  0005C6  0E00               	movlw	0
   461  0005C8  6E17               	movwf	_WaterEnable^0,c
   462                           
   463                           ;main.c: 141:                         WaterEnableLock = 0;
   464  0005CA  0E00               	movlw	0
   465  0005CC  6E16               	movwf	_WaterEnableLock^0,c
   466  0005CE                     l160:
   467                           
   468                           ;main.c: 144:                     UpdateTimeFlag = 0;
   469  0005CE  0E00               	movlw	0
   470  0005D0  6E18               	movwf	_UpdateTimeFlag^0,c
   471  0005D2                     l1995:
   472                           
   473                           ;main.c: 147:                 Display(CurrentTime[2], CurrentTime[1]);
   474  0005D2  C00B  F024         	movff	_CurrentTime+1,Display@Minutes
   475  0005D6  500C               	movf	(_CurrentTime+2)^0,w,c
   476  0005D8  ECEA  F005         	call	_Display
   477  0005DC                     
   478                           ;main.c: 149:                 BlinkDigit(0);
   479  0005DC  0E00               	movlw	0
   480  0005DE  ECAA  F007         	call	_BlinkDigit
   481  0005E2                     
   482                           ;main.c: 151:                 if(WaterEnable == 1 && WaterEnableLock == 0) State = 10;
   483  0005E2  0417               	decf	_WaterEnable^0,w,c
   484  0005E4  A4D8               	btfss	status,2,c
   485  0005E6  EFF7  F002         	goto	u1581
   486  0005EA  EFF9  F002         	goto	u1580
   487  0005EE                     u1581:
   488  0005EE  EF05  F003         	goto	l2005
   489  0005F2                     u1580:
   490  0005F2  5016               	movf	_WaterEnableLock^0,w,c
   491  0005F4  A4D8               	btfss	status,2,c
   492  0005F6  EFFF  F002         	goto	u1591
   493  0005FA  EF01  F003         	goto	u1590
   494  0005FE                     u1591:
   495  0005FE  EF05  F003         	goto	l2005
   496  000602                     u1590:
   497  000602  0E0A               	movlw	10
   498  000604  6E19               	movwf	_State^0,c
   499  000606  EFA6  F002         	goto	l1977
   500  00060A                     l2005:
   501  00060A  500C               	movf	(_CurrentTime+2)^0,w,c
   502  00060C  1809               	xorwf	(_WakeUpTime+2)^0,w,c
   503  00060E  A4D8               	btfss	status,2,c
   504  000610  EF0C  F003         	goto	u1601
   505  000614  EF0E  F003         	goto	u1600
   506  000618                     u1601:
   507  000618  EF9C  F004         	goto	l154
   508  00061C                     u1600:
   509  00061C  500B               	movf	(_CurrentTime+1)^0,w,c
   510  00061E  1808               	xorwf	(_WakeUpTime+1)^0,w,c
   511  000620  A4D8               	btfss	status,2,c
   512  000622  EF15  F003         	goto	u1611
   513  000626  EF17  F003         	goto	u1610
   514  00062A                     u1611:
   515  00062A  EF9C  F004         	goto	l154
   516  00062E                     u1610:
   517  00062E  0E02               	movlw	2
   518  000630  6E19               	movwf	_State^0,c
   519  000632  EFA6  F002         	goto	l1977
   520  000636                     l2011:
   521                           
   522                           ;main.c: 157:                 Display(TargetTime[2], TargetTime[1]);
   523  000636  C02D  F024         	movff	_TargetTime+1,Display@Minutes
   524  00063A  502E               	movf	(_TargetTime+2)^0,w,c
   525  00063C  ECEA  F005         	call	_Display
   526                           
   527                           ;main.c: 158:                 BlinkDigit(1);
   528  000640  0E01               	movlw	1
   529  000642  ECAA  F007         	call	_BlinkDigit
   530                           
   531                           ;main.c: 159:                 break;
   532  000646  EFA6  F002         	goto	l1977
   533  00064A                     l2013:
   534                           
   535                           ;main.c: 162:                 Display(TargetTime[2], TargetTime[1]);
   536  00064A  C02D  F024         	movff	_TargetTime+1,Display@Minutes
   537  00064E  502E               	movf	(_TargetTime+2)^0,w,c
   538  000650  ECEA  F005         	call	_Display
   539                           
   540                           ;main.c: 163:                 BlinkDigit(2);
   541  000654  0E02               	movlw	2
   542  000656  ECAA  F007         	call	_BlinkDigit
   543                           
   544                           ;main.c: 164:                 break;
   545  00065A  EFA6  F002         	goto	l1977
   546  00065E                     l2015:
   547                           
   548                           ;main.c: 167:                 Display(WateringTime[1], WateringTime[0]);
   549  00065E  C004  F024         	movff	_WateringTime,Display@Minutes
   550  000662  5005               	movf	(_WateringTime+1)^0,w,c
   551  000664  ECEA  F005         	call	_Display
   552                           
   553                           ;main.c: 168:                 BlinkDigit(1);
   554  000668  0E01               	movlw	1
   555  00066A  ECAA  F007         	call	_BlinkDigit
   556                           
   557                           ;main.c: 169:                 break;
   558  00066E  EFA6  F002         	goto	l1977
   559  000672                     l2017:
   560                           
   561                           ;main.c: 172:                 Display(WateringTime[1], WateringTime[0]);
   562  000672  C004  F024         	movff	_WateringTime,Display@Minutes
   563  000676  5005               	movf	(_WateringTime+1)^0,w,c
   564  000678  ECEA  F005         	call	_Display
   565                           
   566                           ;main.c: 173:                 BlinkDigit(2);
   567  00067C  0E02               	movlw	2
   568  00067E  ECAA  F007         	call	_BlinkDigit
   569                           
   570                           ;main.c: 174:                 break;
   571  000682  EFA6  F002         	goto	l1977
   572  000686                     l2019:
   573                           
   574                           ;main.c: 177:                 Display(ValveTime[1], ValveTime[0]);
   575  000686  C001  F024         	movff	_ValveTime,Display@Minutes
   576  00068A  5002               	movf	(_ValveTime+1)^0,w,c
   577  00068C  ECEA  F005         	call	_Display
   578                           
   579                           ;main.c: 178:                 BlinkDigit(1);
   580  000690  0E01               	movlw	1
   581  000692  ECAA  F007         	call	_BlinkDigit
   582                           
   583                           ;main.c: 179:                 break;
   584  000696  EFA6  F002         	goto	l1977
   585  00069A                     l2021:
   586                           
   587                           ;main.c: 182:                 Display(ValveTime[1], ValveTime[0]);
   588  00069A  C001  F024         	movff	_ValveTime,Display@Minutes
   589  00069E  5002               	movf	(_ValveTime+1)^0,w,c
   590  0006A0  ECEA  F005         	call	_Display
   591                           
   592                           ;main.c: 183:                 BlinkDigit(2);
   593  0006A4  0E02               	movlw	2
   594  0006A6  ECAA  F007         	call	_BlinkDigit
   595                           
   596                           ;main.c: 184:                 break;
   597  0006AA  EFA6  F002         	goto	l1977
   598  0006AE                     l2023:
   599                           
   600                           ;main.c: 187:                 if(UpdateTimeFlag) {
   601  0006AE  5018               	movf	_UpdateTimeFlag^0,w,c
   602  0006B0  B4D8               	btfsc	status,2,c
   603  0006B2  EF5D  F003         	goto	u1621
   604  0006B6  EF5F  F003         	goto	u1620
   605  0006BA                     u1621:
   606  0006BA  EF8C  F003         	goto	l2041
   607  0006BE                     u1620:
   608  0006BE                     
   609                           ;main.c: 188:                     UpdateCurrentTime();
   610  0006BE  ECA0  F004         	call	_UpdateCurrentTime	;wreg free
   611  0006C2                     
   612                           ;main.c: 189:                     if(CurrentTime[0] != LastSecond){
   613  0006C2  5011               	movf	_LastSecond^0,w,c
   614  0006C4  180A               	xorwf	_CurrentTime^0,w,c
   615  0006C6  B4D8               	btfsc	status,2,c
   616  0006C8  EF68  F003         	goto	u1631
   617  0006CC  EF6A  F003         	goto	u1630
   618  0006D0                     u1631:
   619  0006D0  EF8A  F003         	goto	l2039
   620  0006D4                     u1630:
   621  0006D4                     
   622                           ;main.c: 191:                         if(AddBCD(CurrentWateringTime[0], 0x01) > 0x59){
   623  0006D4  0E01               	movlw	1
   624  0006D6  6E24               	movwf	AddBCD@Number2^0,c
   625  0006D8  500F               	movf	_CurrentWateringTime^0,w,c
   626  0006DA  EC2C  F008         	call	_AddBCD
   627  0006DE  6E2A               	movwf	??_main^0,c
   628  0006E0  0E59               	movlw	89
   629  0006E2  642A               	cpfsgt	??_main^0,c
   630  0006E4  EF76  F003         	goto	u1641
   631  0006E8  EF78  F003         	goto	u1640
   632  0006EC                     u1641:
   633  0006EC  EF82  F003         	goto	l2035
   634  0006F0                     u1640:
   635  0006F0                     
   636                           ;main.c: 192:                             CurrentWateringTime[1] = AddBCD(CurrentWaterin
      +                          gTime[1], 0x01);
   637  0006F0  0E01               	movlw	1
   638  0006F2  6E24               	movwf	AddBCD@Number2^0,c
   639  0006F4  5010               	movf	(_CurrentWateringTime+1)^0,w,c
   640  0006F6  EC2C  F008         	call	_AddBCD
   641  0006FA  6E10               	movwf	(_CurrentWateringTime+1)^0,c
   642  0006FC                     
   643                           ;main.c: 193:                             CurrentWateringTime[0] = 0x00;
   644  0006FC  0E00               	movlw	0
   645  0006FE  6E0F               	movwf	_CurrentWateringTime^0,c
   646                           
   647                           ;main.c: 194:                         }else CurrentWateringTime[0] = AddBCD(CurrentWater
      +                          ingTime[0], 0x01);
   648  000700  EF88  F003         	goto	l2037
   649  000704                     l2035:
   650  000704  0E01               	movlw	1
   651  000706  6E24               	movwf	AddBCD@Number2^0,c
   652  000708  500F               	movf	_CurrentWateringTime^0,w,c
   653  00070A  EC2C  F008         	call	_AddBCD
   654  00070E  6E0F               	movwf	_CurrentWateringTime^0,c
   655  000710                     l2037:
   656                           
   657                           ;main.c: 196:                         LastSecond = CurrentTime[0];
   658  000710  C00A  F011         	movff	_CurrentTime,_LastSecond
   659  000714                     l2039:
   660                           
   661                           ;main.c: 199:                     UpdateTimeFlag = 0;
   662  000714  0E00               	movlw	0
   663  000716  6E18               	movwf	_UpdateTimeFlag^0,c
   664  000718                     l2041:
   665                           
   666                           ;main.c: 201:                 PIE2bits.TMR3IE = 0;
   667  000718  92A0               	bcf	160,1,c	;volatile
   668  00071A                     
   669                           ;main.c: 202:                 PIE1bits.TMR1IE = 0;
   670  00071A  909D               	bcf	157,0,c	;volatile
   671  00071C                     
   672                           ;main.c: 203:                 INTCONbits.INT0IE = 0;
   673  00071C  98F2               	bcf	242,4,c	;volatile
   674  00071E                     
   675                           ;main.c: 204:                 INTCON3bits.INT1IE = 0;
   676  00071E  96F0               	bcf	240,3,c	;volatile
   677  000720                     
   678                           ;main.c: 205:                 INTCON3bits.INT2IE = 0;
   679  000720  98F0               	bcf	240,4,c	;volatile
   680  000722                     
   681                           ;main.c: 206:                 PORTCbits.RC0 = 0;
   682  000722  9082               	bcf	130,0,c	;volatile
   683  000724                     
   684                           ;main.c: 208:                 if(CurrentWateringTime[1] == 0x00 && CurrentWateringTime[0
      +                          ] == 0x01){
   685  000724  5010               	movf	(_CurrentWateringTime+1)^0,w,c
   686  000726  A4D8               	btfss	status,2,c
   687  000728  EF98  F003         	goto	u1651
   688  00072C  EF9A  F003         	goto	u1650
   689  000730                     u1651:
   690  000730  EFA8  F003         	goto	l2061
   691  000734                     u1650:
   692  000734  040F               	decf	_CurrentWateringTime^0,w,c
   693  000736  A4D8               	btfss	status,2,c
   694  000738  EFA0  F003         	goto	u1661
   695  00073C  EFA2  F003         	goto	u1660
   696  000740                     u1661:
   697  000740  EFA8  F003         	goto	l2061
   698  000744                     u1660:
   699  000744                     
   700                           ;main.c: 209:                     CCP1CONbits.DC1B0 = 0;
   701  000744  98BD               	bcf	189,4,c	;volatile
   702                           
   703                           ;main.c: 210:                     CCP1CONbits.DC1B1 = 0;
   704  000746  9ABD               	bcf	189,5,c	;volatile
   705  000748                     
   706                           ;main.c: 211:                     CCPR1L = 0x19;
   707  000748  0E19               	movlw	25
   708  00074A  6EBE               	movwf	190,c	;volatile
   709                           
   710                           ;main.c: 212:                 }else if(CurrentWateringTime[1] == 0x00 && CurrentWatering
      +                          Time[0] == 0x02){
   711  00074C  EFD3  F003         	goto	l2075
   712  000750                     l2061:
   713  000750  5010               	movf	(_CurrentWateringTime+1)^0,w,c
   714  000752  A4D8               	btfss	status,2,c
   715  000754  EFAE  F003         	goto	u1671
   716  000758  EFB0  F003         	goto	u1670
   717  00075C                     u1671:
   718  00075C  EFBF  F003         	goto	l2069
   719  000760                     u1670:
   720  000760  0E02               	movlw	2
   721  000762  180F               	xorwf	_CurrentWateringTime^0,w,c
   722  000764  A4D8               	btfss	status,2,c
   723  000766  EFB7  F003         	goto	u1681
   724  00076A  EFB9  F003         	goto	u1680
   725  00076E                     u1681:
   726  00076E  EFBF  F003         	goto	l2069
   727  000772                     u1680:
   728  000772                     
   729                           ;main.c: 213:                     CCP1CONbits.DC1B0 = 0;
   730  000772  98BD               	bcf	189,4,c	;volatile
   731                           
   732                           ;main.c: 214:                     CCP1CONbits.DC1B1 = 1;
   733  000774  8ABD               	bsf	189,5,c	;volatile
   734  000776                     
   735                           ;main.c: 215:                     CCPR1L = 0x25;
   736  000776  0E25               	movlw	37
   737  000778  6EBE               	movwf	190,c	;volatile
   738                           
   739                           ;main.c: 216:                 }else if(CurrentWateringTime[1] > 0x00 || CurrentWateringT
      +                          ime[0] >= 0x03){
   740  00077A  EFD3  F003         	goto	l2075
   741  00077E                     l2069:
   742  00077E  5010               	movf	(_CurrentWateringTime+1)^0,w,c
   743  000780  A4D8               	btfss	status,2,c
   744  000782  EFC5  F003         	goto	u1691
   745  000786  EFC7  F003         	goto	u1690
   746  00078A                     u1691:
   747  00078A  EFCF  F003         	goto	l181
   748  00078E                     u1690:
   749  00078E  0E02               	movlw	2
   750  000790  640F               	cpfsgt	_CurrentWateringTime^0,c
   751  000792  EFCD  F003         	goto	u1701
   752  000796  EFCF  F003         	goto	u1700
   753  00079A                     u1701:
   754  00079A  EFD3  F003         	goto	l2075
   755  00079E                     u1700:
   756  00079E                     l181:
   757                           
   758                           ;main.c: 217:                     CCP1CONbits.DC1B0 = 0;
   759  00079E  98BD               	bcf	189,4,c	;volatile
   760                           
   761                           ;main.c: 218:                     CCP1CONbits.DC1B1 = 0;
   762  0007A0  9ABD               	bcf	189,5,c	;volatile
   763  0007A2                     
   764                           ;main.c: 219:                     CCPR1L = 0x32;
   765  0007A2  0E32               	movlw	50
   766  0007A4  6EBE               	movwf	190,c	;volatile
   767  0007A6                     l2075:
   768                           
   769                           ;main.c: 221:                 BlinkDigit(0);
   770  0007A6  0E00               	movlw	0
   771  0007A8  ECAA  F007         	call	_BlinkDigit
   772  0007AC                     
   773                           ;main.c: 222:                 Display(CurrentWateringTime[1], CurrentWateringTime[0]);
   774  0007AC  C00F  F024         	movff	_CurrentWateringTime,Display@Minutes
   775  0007B0  5010               	movf	(_CurrentWateringTime+1)^0,w,c
   776  0007B2  ECEA  F005         	call	_Display
   777  0007B6                     
   778                           ;main.c: 224:                 if(CurrentWateringTime[1] == WateringTime[1] && CurrentWat
      +                          eringTime[0] == WateringTime[0]){
   779  0007B6  5005               	movf	(_WateringTime+1)^0,w,c
   780  0007B8  1810               	xorwf	(_CurrentWateringTime+1)^0,w,c
   781  0007BA  A4D8               	btfss	status,2,c
   782  0007BC  EFE2  F003         	goto	u1711
   783  0007C0  EFE4  F003         	goto	u1710
   784  0007C4                     u1711:
   785  0007C4  EFA6  F002         	goto	l1977
   786  0007C8                     u1710:
   787  0007C8  5004               	movf	_WateringTime^0,w,c
   788  0007CA  180F               	xorwf	_CurrentWateringTime^0,w,c
   789  0007CC  A4D8               	btfss	status,2,c
   790  0007CE  EFEB  F003         	goto	u1721
   791  0007D2  EFED  F003         	goto	u1720
   792  0007D6                     u1721:
   793  0007D6  EFA6  F002         	goto	l1977
   794  0007DA                     u1720:
   795  0007DA                     
   796                           ;main.c: 225:                     CCP1CONbits.DC1B0 = 0;
   797  0007DA  98BD               	bcf	189,4,c	;volatile
   798                           
   799                           ;main.c: 226:                     CCP1CONbits.DC1B1 = 0;
   800  0007DC  9ABD               	bcf	189,5,c	;volatile
   801  0007DE                     
   802                           ;main.c: 227:                     CCPR1L = 0x00;
   803  0007DE  0E00               	movlw	0
   804  0007E0  6EBE               	movwf	190,c	;volatile
   805                           
   806                           ;main.c: 228:                     CurrentWateringTime[0] = 0x00;
   807  0007E2  0E00               	movlw	0
   808  0007E4  6E0F               	movwf	_CurrentWateringTime^0,c
   809                           
   810                           ;main.c: 229:                     CurrentWateringTime[1] = 0x00;
   811  0007E6  0E00               	movlw	0
   812  0007E8  6E10               	movwf	(_CurrentWateringTime+1)^0,c
   813                           
   814                           ;main.c: 230:                     LastSecond = 0x00;
   815  0007EA  0E00               	movlw	0
   816  0007EC  6E11               	movwf	_LastSecond^0,c
   817                           
   818                           ;main.c: 231:                     State = 11;
   819  0007EE  0E0B               	movlw	11
   820  0007F0  6E19               	movwf	_State^0,c
   821  0007F2  EFA6  F002         	goto	l1977
   822  0007F6                     l2087:
   823                           
   824                           ;main.c: 236:                 if(UpdateTimeFlag) {
   825  0007F6  5018               	movf	_UpdateTimeFlag^0,w,c
   826  0007F8  B4D8               	btfsc	status,2,c
   827  0007FA  EF01  F004         	goto	u1731
   828  0007FE  EF03  F004         	goto	u1730
   829  000802                     u1731:
   830  000802  EF30  F004         	goto	l2105
   831  000806                     u1730:
   832  000806                     
   833                           ;main.c: 237:                     UpdateCurrentTime();
   834  000806  ECA0  F004         	call	_UpdateCurrentTime	;wreg free
   835  00080A                     
   836                           ;main.c: 238:                     if(CurrentTime[0] != LastSecond){
   837  00080A  5011               	movf	_LastSecond^0,w,c
   838  00080C  180A               	xorwf	_CurrentTime^0,w,c
   839  00080E  B4D8               	btfsc	status,2,c
   840  000810  EF0C  F004         	goto	u1741
   841  000814  EF0E  F004         	goto	u1740
   842  000818                     u1741:
   843  000818  EF2E  F004         	goto	l2103
   844  00081C                     u1740:
   845  00081C                     
   846                           ;main.c: 240:                         if(AddBCD(CurrentValveTime[0], 0x01) > 0x59){
   847  00081C  0E01               	movlw	1
   848  00081E  6E24               	movwf	AddBCD@Number2^0,c
   849  000820  500D               	movf	_CurrentValveTime^0,w,c
   850  000822  EC2C  F008         	call	_AddBCD
   851  000826  6E2A               	movwf	??_main^0,c
   852  000828  0E59               	movlw	89
   853  00082A  642A               	cpfsgt	??_main^0,c
   854  00082C  EF1A  F004         	goto	u1751
   855  000830  EF1C  F004         	goto	u1750
   856  000834                     u1751:
   857  000834  EF26  F004         	goto	l2099
   858  000838                     u1750:
   859  000838                     
   860                           ;main.c: 241:                             CurrentValveTime[1] = AddBCD(CurrentValveTime[
      +                          1], 0x01);
   861  000838  0E01               	movlw	1
   862  00083A  6E24               	movwf	AddBCD@Number2^0,c
   863  00083C  500E               	movf	(_CurrentValveTime+1)^0,w,c
   864  00083E  EC2C  F008         	call	_AddBCD
   865  000842  6E0E               	movwf	(_CurrentValveTime+1)^0,c
   866  000844                     
   867                           ;main.c: 242:                             CurrentValveTime[0] = 0x00;
   868  000844  0E00               	movlw	0
   869  000846  6E0D               	movwf	_CurrentValveTime^0,c
   870                           
   871                           ;main.c: 243:                         }else CurrentValveTime[0] = AddBCD(CurrentValveTim
      +                          e[0], 0x01);
   872  000848  EF2C  F004         	goto	l2101
   873  00084C                     l2099:
   874  00084C  0E01               	movlw	1
   875  00084E  6E24               	movwf	AddBCD@Number2^0,c
   876  000850  500D               	movf	_CurrentValveTime^0,w,c
   877  000852  EC2C  F008         	call	_AddBCD
   878  000856  6E0D               	movwf	_CurrentValveTime^0,c
   879  000858                     l2101:
   880                           
   881                           ;main.c: 245:                         LastSecond = CurrentTime[0];
   882  000858  C00A  F011         	movff	_CurrentTime,_LastSecond
   883  00085C                     l2103:
   884                           
   885                           ;main.c: 248:                     UpdateTimeFlag = 0;
   886  00085C  0E00               	movlw	0
   887  00085E  6E18               	movwf	_UpdateTimeFlag^0,c
   888  000860                     l2105:
   889                           
   890                           ;main.c: 251:                 PORTCbits.RC0 = 0;
   891  000860  9082               	bcf	130,0,c	;volatile
   892  000862                     
   893                           ;main.c: 254:                 PORTCbits.RC5 = 1;
   894  000862  8A82               	bsf	130,5,c	;volatile
   895  000864                     
   896                           ;main.c: 256:                 Display(CurrentValveTime[1], CurrentValveTime[0]);
   897  000864  C00D  F024         	movff	_CurrentValveTime,Display@Minutes
   898  000868  500E               	movf	(_CurrentValveTime+1)^0,w,c
   899  00086A  ECEA  F005         	call	_Display
   900  00086E                     
   901                           ;main.c: 258:                 if(CurrentValveTime[1] == ValveTime[1] && CurrentValveTime
      +                          [0] == ValveTime[0]){
   902  00086E  5002               	movf	(_ValveTime+1)^0,w,c
   903  000870  180E               	xorwf	(_CurrentValveTime+1)^0,w,c
   904  000872  A4D8               	btfss	status,2,c
   905  000874  EF3E  F004         	goto	u1761
   906  000878  EF40  F004         	goto	u1760
   907  00087C                     u1761:
   908  00087C  EFA6  F002         	goto	l1977
   909  000880                     u1760:
   910  000880  5001               	movf	_ValveTime^0,w,c
   911  000882  180D               	xorwf	_CurrentValveTime^0,w,c
   912  000884  A4D8               	btfss	status,2,c
   913  000886  EF47  F004         	goto	u1771
   914  00088A  EF49  F004         	goto	u1770
   915  00088E                     u1771:
   916  00088E  EFA6  F002         	goto	l1977
   917  000892                     u1770:
   918  000892                     
   919                           ;main.c: 261:                     PORTCbits.RC5 = 0;
   920  000892  9A82               	bcf	130,5,c	;volatile
   921                           
   922                           ;main.c: 262:                     PIE2bits.TMR3IE = 1;
   923  000894  82A0               	bsf	160,1,c	;volatile
   924                           
   925                           ;main.c: 263:                     PIE1bits.TMR1IE = 1;
   926  000896  809D               	bsf	157,0,c	;volatile
   927                           
   928                           ;main.c: 264:                     INTCONbits.INT0IE = 1;
   929  000898  88F2               	bsf	242,4,c	;volatile
   930                           
   931                           ;main.c: 265:                     INTCON3bits.INT1IE = 1;
   932  00089A  86F0               	bsf	240,3,c	;volatile
   933                           
   934                           ;main.c: 266:                     INTCON3bits.INT2IE = 1;
   935  00089C  88F0               	bsf	240,4,c	;volatile
   936  00089E                     
   937                           ;main.c: 268:                     WaterEnable = 0;
   938  00089E  0E00               	movlw	0
   939  0008A0  6E17               	movwf	_WaterEnable^0,c
   940                           
   941                           ;main.c: 269:                     WaterEnableLock = 1;
   942  0008A2  0E01               	movlw	1
   943  0008A4  6E16               	movwf	_WaterEnableLock^0,c
   944  0008A6                     
   945                           ;main.c: 270:                     WakeUp();
   946  0008A6  ECC9  F006         	call	_WakeUp	;wreg free
   947  0008AA                     
   948                           ;main.c: 271:                     CurrentValveTime[0] = 0x00;
   949  0008AA  0E00               	movlw	0
   950  0008AC  6E0D               	movwf	_CurrentValveTime^0,c
   951  0008AE                     
   952                           ;main.c: 272:                     CurrentValveTime[1] = 0x00;
   953  0008AE  0E00               	movlw	0
   954  0008B0  6E0E               	movwf	(_CurrentValveTime+1)^0,c
   955  0008B2                     
   956                           ;main.c: 273:                     LastSecond = 0x00;
   957  0008B2  0E00               	movlw	0
   958  0008B4  6E11               	movwf	_LastSecond^0,c
   959  0008B6                     
   960                           ;main.c: 274:                     State = 3;
   961  0008B6  0E03               	movlw	3
   962  0008B8  6E19               	movwf	_State^0,c
   963  0008BA  EFA6  F002         	goto	l1977
   964  0008BE                     l2131:
   965  0008BE  5019               	movf	_State^0,w,c
   966  0008C0  6E2A               	movwf	??_main^0,c
   967  0008C2  6A2B               	clrf	(??_main+1)^0,c
   968                           
   969                           ; Switch on 2 bytes has been partitioned into a top level switch of size 1, and 1 sub-sw
      +                          itches
   970                           ; Switch size 1, requested type "simple"
   971                           ; Number of cases is 1, Range of values is 0 to 0
   972                           ; switch strategies available:
   973                           ; Name         Instructions Cycles
   974                           ; simple_byte            4     3 (average)
   975                           ;	Chosen strategy is simple_byte
   976  0008C4  502B               	movf	(??_main+1)^0,w,c
   977  0008C6  0A00               	xorlw	0	; case 0
   978  0008C8  B4D8               	btfsc	status,2,c
   979  0008CA  EF69  F004         	goto	l2359
   980  0008CE  EFA6  F002         	goto	l1977
   981  0008D2                     l2359:
   982                           
   983                           ; Switch size 1, requested type "simple"
   984                           ; Number of cases is 12, Range of values is 0 to 11
   985                           ; switch strategies available:
   986                           ; Name         Instructions Cycles
   987                           ; simple_byte           37    19 (average)
   988                           ;	Chosen strategy is simple_byte
   989  0008D2  502A               	movf	??_main^0,w,c
   990  0008D4  0A00               	xorlw	0	; case 0
   991  0008D6  B4D8               	btfsc	status,2,c
   992  0008D8  EFAC  F002         	goto	l1979
   993  0008DC  0A01               	xorlw	1	; case 1
   994  0008DE  B4D8               	btfsc	status,2,c
   995  0008E0  EFB6  F002         	goto	l1981
   996  0008E4  0A03               	xorlw	3	; case 2
   997  0008E6  B4D8               	btfsc	status,2,c
   998  0008E8  EFC0  F002         	goto	l156
   999  0008EC  0A01               	xorlw	1	; case 3
  1000  0008EE  B4D8               	btfsc	status,2,c
  1001  0008F0  EFC3  F002         	goto	l1983
  1002  0008F4  0A07               	xorlw	7	; case 4
  1003  0008F6  B4D8               	btfsc	status,2,c
  1004  0008F8  EF1B  F003         	goto	l2011
  1005  0008FC  0A01               	xorlw	1	; case 5
  1006  0008FE  B4D8               	btfsc	status,2,c
  1007  000900  EF25  F003         	goto	l2013
  1008  000904  0A03               	xorlw	3	; case 6
  1009  000906  B4D8               	btfsc	status,2,c
  1010  000908  EF2F  F003         	goto	l2015
  1011  00090C  0A01               	xorlw	1	; case 7
  1012  00090E  B4D8               	btfsc	status,2,c
  1013  000910  EF39  F003         	goto	l2017
  1014  000914  0A0F               	xorlw	15	; case 8
  1015  000916  B4D8               	btfsc	status,2,c
  1016  000918  EF43  F003         	goto	l2019
  1017  00091C  0A01               	xorlw	1	; case 9
  1018  00091E  B4D8               	btfsc	status,2,c
  1019  000920  EF4D  F003         	goto	l2021
  1020  000924  0A03               	xorlw	3	; case 10
  1021  000926  B4D8               	btfsc	status,2,c
  1022  000928  EF57  F003         	goto	l2023
  1023  00092C  0A01               	xorlw	1	; case 11
  1024  00092E  B4D8               	btfsc	status,2,c
  1025  000930  EFFB  F003         	goto	l2087
  1026  000934  EFA6  F002         	goto	l1977
  1027  000938                     l154:
  1028  000938  EFA6  F002         	goto	l1977
  1029  00093C  EF07  F000         	goto	start
  1030  000940                     __end_of_main:
  1031                           	callstack 0
  1032                           
  1033 ;; *************** function _WakeUp *****************
  1034 ;; Defined at:
  1035 ;;		line 657 in file "main.c"
  1036 ;; Parameters:    Size  Location     Type
  1037 ;;		None
  1038 ;; Auto vars:     Size  Location     Type
  1039 ;;		None
  1040 ;; Return value:  Size  Location     Type
  1041 ;;                  1    wreg      void 
  1042 ;; Registers used:
  1043 ;;		wreg, status,2, status,0, cstack
  1044 ;; Tracked objects:
  1045 ;;		On entry : 0/0
  1046 ;;		On exit  : 0/0
  1047 ;;		Unchanged: 0/0
  1048 ;; Data sizes:     COMRAM   BANK0   BANK1   BANK2   BANK3   BANK4   BANK5   BANK6   BANK7   BANK8   BANK9  BANK10  BANK1
      +1  BANK12  BANK13  BANK14  BANK15
  1049 ;;      Params:         0       0       0       0       0       0       0       0       0       0       0       0       
      +0       0       0       0       0
  1050 ;;      Locals:         0       0       0       0       0       0       0       0       0       0       0       0       
      +0       0       0       0       0
  1051 ;;      Temps:          1       0       0       0       0       0       0       0       0       0       0       0       
      +0       0       0       0       0
  1052 ;;      Totals:         1       0       0       0       0       0       0       0       0       0       0       0       
      +0       0       0       0       0
  1053 ;;Total ram usage:        1 bytes
  1054 ;; Hardware stack levels used: 1
  1055 ;; Hardware stack levels required when called: 4
  1056 ;; This function calls:
  1057 ;;		_AddBCD
  1058 ;;		_SubBCD
  1059 ;;		_UpdateCurrentTime
  1060 ;; This function is called by:
  1061 ;;		_main
  1062 ;; This function uses a non-reentrant model
  1063 ;;
  1064                           
  1065                           	psect	text1
  1066  000D92                     __ptext1:
  1067                           	callstack 0
  1068  000D92                     _WakeUp:
  1069                           	callstack 26
  1070  000D92                     
  1071                           ;main.c: 658:     UpdateCurrentTime();
  1072  000D92  ECA0  F004         	call	_UpdateCurrentTime	;wreg free
  1073  000D96                     
  1074                           ;main.c: 660:     if (AddBCD(CurrentTime[1], 0x02) > 0x59) {
  1075  000D96  0E02               	movlw	2
  1076  000D98  6E24               	movwf	AddBCD@Number2^0,c
  1077  000D9A  500B               	movf	(_CurrentTime+1)^0,w,c
  1078  000D9C  EC2C  F008         	call	_AddBCD
  1079  000DA0  6E28               	movwf	??_WakeUp^0,c
  1080  000DA2  0E59               	movlw	89
  1081  000DA4  6428               	cpfsgt	??_WakeUp^0,c
  1082  000DA6  EFD7  F006         	goto	u1421
  1083  000DAA  EFD9  F006         	goto	u1420
  1084  000DAE                     u1421:
  1085  000DAE  EF0B  F007         	goto	l311
  1086  000DB2                     u1420:
  1087  000DB2                     
  1088                           ;main.c: 661:         if(AddBCD(CurrentTime[1], 0x01) > 0x23){
  1089  000DB2  0E01               	movlw	1
  1090  000DB4  6E24               	movwf	AddBCD@Number2^0,c
  1091  000DB6  500B               	movf	(_CurrentTime+1)^0,w,c
  1092  000DB8  EC2C  F008         	call	_AddBCD
  1093  000DBC  6E28               	movwf	??_WakeUp^0,c
  1094  000DBE  0E23               	movlw	35
  1095  000DC0  6428               	cpfsgt	??_WakeUp^0,c
  1096  000DC2  EFE5  F006         	goto	u1431
  1097  000DC6  EFE7  F006         	goto	u1430
  1098  000DCA                     u1431:
  1099  000DCA  EFF7  F006         	goto	l1941
  1100  000DCE                     u1430:
  1101  000DCE                     
  1102                           ;main.c: 662:             WakeUpTime[2] = 0x00;
  1103  000DCE  0E00               	movlw	0
  1104  000DD0  6E09               	movwf	(_WakeUpTime+2)^0,c
  1105  000DD2                     
  1106                           ;main.c: 663:             WakeUpTime[1] = AddBCD(CurrentTime[1], 0x02);
  1107  000DD2  0E02               	movlw	2
  1108  000DD4  6E24               	movwf	AddBCD@Number2^0,c
  1109  000DD6  500B               	movf	(_CurrentTime+1)^0,w,c
  1110  000DD8  EC2C  F008         	call	_AddBCD
  1111  000DDC  6E08               	movwf	(_WakeUpTime+1)^0,c
  1112  000DDE                     
  1113                           ;main.c: 664:             WakeUpTime[1] = SubBCD(CurrentTime[1], 0x60);
  1114  000DDE  0E60               	movlw	96
  1115  000DE0  6E24               	movwf	SubBCD@Number2^0,c
  1116  000DE2  500B               	movf	(_CurrentTime+1)^0,w,c
  1117  000DE4  EC16  F008         	call	_SubBCD
  1118  000DE8  6E08               	movwf	(_WakeUpTime+1)^0,c
  1119                           
  1120                           ;main.c: 665:         }else{
  1121  000DEA  EF13  F007         	goto	l1945
  1122  000DEE                     l1941:
  1123                           
  1124                           ;main.c: 666:             WakeUpTime[2] = AddBCD(CurrentTime[2], 0x01);
  1125  000DEE  0E01               	movlw	1
  1126  000DF0  6E24               	movwf	AddBCD@Number2^0,c
  1127  000DF2  500C               	movf	(_CurrentTime+2)^0,w,c
  1128  000DF4  EC2C  F008         	call	_AddBCD
  1129  000DF8  6E09               	movwf	(_WakeUpTime+2)^0,c
  1130                           
  1131                           ;main.c: 667:             WakeUpTime[1] = AddBCD(CurrentTime[1], 0x02);
  1132  000DFA  0E02               	movlw	2
  1133  000DFC  6E24               	movwf	AddBCD@Number2^0,c
  1134  000DFE  500B               	movf	(_CurrentTime+1)^0,w,c
  1135  000E00  EC2C  F008         	call	_AddBCD
  1136  000E04  6E08               	movwf	(_WakeUpTime+1)^0,c
  1137                           
  1138                           ;main.c: 668:             WakeUpTime[1] = SubBCD(CurrentTime[1], 0x60);
  1139  000E06  0E60               	movlw	96
  1140  000E08  6E24               	movwf	SubBCD@Number2^0,c
  1141  000E0A  500B               	movf	(_CurrentTime+1)^0,w,c
  1142  000E0C  EC16  F008         	call	_SubBCD
  1143  000E10  6E08               	movwf	(_WakeUpTime+1)^0,c
  1144  000E12  EF13  F007         	goto	l1945
  1145  000E16                     l311:
  1146                           
  1147                           ;main.c: 671:         WakeUpTime[2] = CurrentTime[2];
  1148  000E16  C00C  F009         	movff	_CurrentTime+2,_WakeUpTime+2
  1149  000E1A                     
  1150                           ;main.c: 672:         WakeUpTime[1] = AddBCD(CurrentTime[1], 0x02);
  1151  000E1A  0E02               	movlw	2
  1152  000E1C  6E24               	movwf	AddBCD@Number2^0,c
  1153  000E1E  500B               	movf	(_CurrentTime+1)^0,w,c
  1154  000E20  EC2C  F008         	call	_AddBCD
  1155  000E24  6E08               	movwf	(_WakeUpTime+1)^0,c
  1156  000E26                     l1945:
  1157                           
  1158                           ;main.c: 674:     UpdateTimeFlag = 1;
  1159  000E26  0E01               	movlw	1
  1160  000E28  6E18               	movwf	_UpdateTimeFlag^0,c
  1161  000E2A  0012               	return		;funcret
  1162  000E2C                     __end_of_WakeUp:
  1163                           	callstack 0
  1164                           
  1165 ;; *************** function _UpdateCurrentTime *****************
  1166 ;; Defined at:
  1167 ;;		line 848 in file "main.c"
  1168 ;; Parameters:    Size  Location     Type
  1169 ;;		None
  1170 ;; Auto vars:     Size  Location     Type
  1171 ;;		None
  1172 ;; Return value:  Size  Location     Type
  1173 ;;                  1    wreg      void 
  1174 ;; Registers used:
  1175 ;;		wreg, status,2
  1176 ;; Tracked objects:
  1177 ;;		On entry : 0/0
  1178 ;;		On exit  : 0/0
  1179 ;;		Unchanged: 0/0
  1180 ;; Data sizes:     COMRAM   BANK0   BANK1   BANK2   BANK3   BANK4   BANK5   BANK6   BANK7   BANK8   BANK9  BANK10  BANK1
      +1  BANK12  BANK13  BANK14  BANK15
  1181 ;;      Params:         0       0       0       0       0       0       0       0       0       0       0       0       
      +0       0       0       0       0
  1182 ;;      Locals:         0       0       0       0       0       0       0       0       0       0       0       0       
      +0       0       0       0       0
  1183 ;;      Temps:          0       0       0       0       0       0       0       0       0       0       0       0       
      +0       0       0       0       0
  1184 ;;      Totals:         0       0       0       0       0       0       0       0       0       0       0       0       
      +0       0       0       0       0
  1185 ;;Total ram usage:        0 bytes
  1186 ;; Hardware stack levels used: 1
  1187 ;; Hardware stack levels required when called: 3
  1188 ;; This function calls:
  1189 ;;		Nothing
  1190 ;; This function is called by:
  1191 ;;		_main
  1192 ;;		_WakeUp
  1193 ;; This function uses a non-reentrant model
  1194 ;;
  1195                           
  1196                           	psect	text2
  1197  000940                     __ptext2:
  1198                           	callstack 0
  1199  000940                     _UpdateCurrentTime:
  1200                           	callstack 26
  1201  000940                     
  1202                           ;main.c: 849:     SSPCON2bits.SEN = 1;
  1203  000940  80C5               	bsf	197,0,c	;volatile
  1204  000942                     l415:
  1205  000942  B0C5               	btfsc	4037,0,c	;volatile
  1206  000944  EFA6  F004         	goto	u91
  1207  000948  EFA8  F004         	goto	u90
  1208  00094C                     u91:
  1209  00094C  EFA1  F004         	goto	l415
  1210  000950                     u90:
  1211  000950                     
  1212                           ;main.c: 851:     PIR1bits.SSPIF = 0;
  1213  000950  969E               	bcf	158,3,c	;volatile
  1214  000952                     
  1215                           ;main.c: 853:     SSPBUF = 0xD0;
  1216  000952  0ED0               	movlw	208
  1217  000954  6EC9               	movwf	201,c	;volatile
  1218  000956                     l418:
  1219  000956  A69E               	btfss	3998,3,c	;volatile
  1220  000958  EFB0  F004         	goto	u101
  1221  00095C  EFB2  F004         	goto	u100
  1222  000960                     u101:
  1223  000960  EFAB  F004         	goto	l418
  1224  000964                     u100:
  1225  000964                     
  1226                           ;main.c: 855:     PIR1bits.SSPIF = 0;
  1227  000964  969E               	bcf	158,3,c	;volatile
  1228                           
  1229                           ;main.c: 856:     if (SSPCON2bits.ACKSTAT){
  1230  000966  ACC5               	btfss	197,6,c	;volatile
  1231  000968  EFB8  F004         	goto	u111
  1232  00096C  EFBA  F004         	goto	u110
  1233  000970                     u111:
  1234  000970  EFC4  F004         	goto	l1195
  1235  000974                     u110:
  1236  000974                     
  1237                           ;main.c: 857:         SSPCON2bits.PEN = 1;
  1238  000974  84C5               	bsf	197,2,c	;volatile
  1239  000976                     l422:
  1240  000976  B4C5               	btfsc	4037,2,c	;volatile
  1241  000978  EFC0  F004         	goto	u121
  1242  00097C  EFC2  F004         	goto	u120
  1243  000980                     u121:
  1244  000980  EFBB  F004         	goto	l422
  1245  000984                     u120:
  1246  000984  EF44  F005         	goto	l425
  1247  000988                     l1195:
  1248                           
  1249                           ;main.c: 862:     SSPBUF = 0;
  1250  000988  0E00               	movlw	0
  1251  00098A  6EC9               	movwf	201,c	;volatile
  1252  00098C                     l426:
  1253  00098C  A69E               	btfss	3998,3,c	;volatile
  1254  00098E  EFCB  F004         	goto	u131
  1255  000992  EFCD  F004         	goto	u130
  1256  000996                     u131:
  1257  000996  EFC6  F004         	goto	l426
  1258  00099A                     u130:
  1259  00099A                     
  1260                           ;main.c: 864:     PIR1bits.SSPIF = 0;
  1261  00099A  969E               	bcf	158,3,c	;volatile
  1262                           
  1263                           ;main.c: 865:     if (SSPCON2bits.ACKSTAT){
  1264  00099C  ACC5               	btfss	197,6,c	;volatile
  1265  00099E  EFD3  F004         	goto	u141
  1266  0009A2  EFD5  F004         	goto	u140
  1267  0009A6                     u141:
  1268  0009A6  EFDF  F004         	goto	l429
  1269  0009AA                     u140:
  1270  0009AA                     
  1271                           ;main.c: 866:         SSPCON2bits.PEN = 1;
  1272  0009AA  84C5               	bsf	197,2,c	;volatile
  1273  0009AC                     l430:
  1274  0009AC  B4C5               	btfsc	4037,2,c	;volatile
  1275  0009AE  EFDB  F004         	goto	u151
  1276  0009B2  EFDD  F004         	goto	u150
  1277  0009B6                     u151:
  1278  0009B6  EFD6  F004         	goto	l430
  1279  0009BA                     u150:
  1280  0009BA  EF44  F005         	goto	l425
  1281  0009BE                     l429:
  1282                           
  1283                           ;main.c: 871:     SSPCON2bits.RSEN = 1;
  1284  0009BE  82C5               	bsf	197,1,c	;volatile
  1285  0009C0                     l433:
  1286  0009C0  B2C5               	btfsc	197,1,c	;volatile
  1287  0009C2  EFE5  F004         	goto	u161
  1288  0009C6  EFE7  F004         	goto	u160
  1289  0009CA                     u161:
  1290  0009CA  EFE0  F004         	goto	l433
  1291  0009CE                     u160:
  1292  0009CE                     
  1293                           ;main.c: 873:     PIR1bits.SSPIF = 0;
  1294  0009CE  969E               	bcf	158,3,c	;volatile
  1295  0009D0                     
  1296                           ;main.c: 875:     SSPBUF = 0xD1;
  1297  0009D0  0ED1               	movlw	209
  1298  0009D2  6EC9               	movwf	201,c	;volatile
  1299  0009D4                     l436:
  1300  0009D4  A69E               	btfss	3998,3,c	;volatile
  1301  0009D6  EFEF  F004         	goto	u171
  1302  0009DA  EFF1  F004         	goto	u170
  1303  0009DE                     u171:
  1304  0009DE  EFEA  F004         	goto	l436
  1305  0009E2                     u170:
  1306  0009E2                     
  1307                           ;main.c: 877:     PIR1bits.SSPIF = 0;
  1308  0009E2  969E               	bcf	158,3,c	;volatile
  1309                           
  1310                           ;main.c: 878:     if (SSPCON2bits.ACKSTAT){
  1311  0009E4  ACC5               	btfss	197,6,c	;volatile
  1312  0009E6  EFF7  F004         	goto	u181
  1313  0009EA  EFF9  F004         	goto	u180
  1314  0009EE                     u181:
  1315  0009EE  EF03  F005         	goto	l439
  1316  0009F2                     u180:
  1317  0009F2                     
  1318                           ;main.c: 879:         SSPCON2bits.PEN = 1;
  1319  0009F2  84C5               	bsf	197,2,c	;volatile
  1320  0009F4                     l440:
  1321  0009F4  B4C5               	btfsc	4037,2,c	;volatile
  1322  0009F6  EFFF  F004         	goto	u191
  1323  0009FA  EF01  F005         	goto	u190
  1324  0009FE                     u191:
  1325  0009FE  EFFA  F004         	goto	l440
  1326  000A02                     u190:
  1327  000A02  EF44  F005         	goto	l425
  1328  000A06                     l439:
  1329                           
  1330                           ;main.c: 884:     SSPCON2bits.RCEN = 1;
  1331  000A06  86C5               	bsf	197,3,c	;volatile
  1332  000A08                     l443:
  1333  000A08  A0C7               	btfss	199,0,c	;volatile
  1334  000A0A  EF09  F005         	goto	u201
  1335  000A0E  EF0B  F005         	goto	u200
  1336  000A12                     u201:
  1337  000A12  EF04  F005         	goto	l443
  1338  000A16                     u200:
  1339  000A16                     
  1340                           ;main.c: 886:     CurrentTime[0] = SSPBUF;
  1341  000A16  CFC9 F00A          	movff	4041,_CurrentTime	;volatile
  1342                           
  1343                           ;main.c: 888:     SSPCON2bits.ACKDT = 0;
  1344  000A1A  9AC5               	bcf	197,5,c	;volatile
  1345                           
  1346                           ;main.c: 889:     SSPCON2bits.ACKEN = 1;
  1347  000A1C  88C5               	bsf	197,4,c	;volatile
  1348  000A1E                     l446:
  1349  000A1E  B8C5               	btfsc	4037,4,c	;volatile
  1350  000A20  EF14  F005         	goto	u211
  1351  000A24  EF16  F005         	goto	u210
  1352  000A28                     u211:
  1353  000A28  EF0F  F005         	goto	l446
  1354  000A2C                     u210:
  1355  000A2C                     
  1356                           ;main.c: 892:     SSPCON2bits.RCEN = 1;
  1357  000A2C  86C5               	bsf	197,3,c	;volatile
  1358  000A2E                     l449:
  1359  000A2E  A0C7               	btfss	199,0,c	;volatile
  1360  000A30  EF1C  F005         	goto	u221
  1361  000A34  EF1E  F005         	goto	u220
  1362  000A38                     u221:
  1363  000A38  EF17  F005         	goto	l449
  1364  000A3C                     u220:
  1365  000A3C                     
  1366                           ;main.c: 894:     CurrentTime[1] = SSPBUF;
  1367  000A3C  CFC9 F00B          	movff	4041,_CurrentTime+1	;volatile
  1368                           
  1369                           ;main.c: 896:     SSPCON2bits.ACKDT = 0;
  1370  000A40  9AC5               	bcf	197,5,c	;volatile
  1371                           
  1372                           ;main.c: 897:     SSPCON2bits.ACKEN = 1;
  1373  000A42  88C5               	bsf	197,4,c	;volatile
  1374  000A44                     l452:
  1375  000A44  B8C5               	btfsc	4037,4,c	;volatile
  1376  000A46  EF27  F005         	goto	u231
  1377  000A4A  EF29  F005         	goto	u230
  1378  000A4E                     u231:
  1379  000A4E  EF22  F005         	goto	l452
  1380  000A52                     u230:
  1381  000A52                     
  1382                           ;main.c: 900:     SSPCON2bits.RCEN = 1;
  1383  000A52  86C5               	bsf	197,3,c	;volatile
  1384  000A54                     l455:
  1385  000A54  A0C7               	btfss	199,0,c	;volatile
  1386  000A56  EF2F  F005         	goto	u241
  1387  000A5A  EF31  F005         	goto	u240
  1388  000A5E                     u241:
  1389  000A5E  EF2A  F005         	goto	l455
  1390  000A62                     u240:
  1391  000A62                     
  1392                           ;main.c: 902:     CurrentTime[2] = SSPBUF;
  1393  000A62  CFC9 F00C          	movff	4041,_CurrentTime+2	;volatile
  1394                           
  1395                           ;main.c: 904:     SSPCON2bits.ACKDT = 1;
  1396  000A66  8AC5               	bsf	197,5,c	;volatile
  1397                           
  1398                           ;main.c: 905:     SSPCON2bits.ACKEN = 1;
  1399  000A68  88C5               	bsf	197,4,c	;volatile
  1400  000A6A                     l458:
  1401  000A6A  B8C5               	btfsc	4037,4,c	;volatile
  1402  000A6C  EF3A  F005         	goto	u251
  1403  000A70  EF3C  F005         	goto	u250
  1404  000A74                     u251:
  1405  000A74  EF35  F005         	goto	l458
  1406  000A78                     u250:
  1407  000A78                     
  1408                           ;main.c: 908:     SSPCON2bits.PEN = 1;
  1409  000A78  84C5               	bsf	197,2,c	;volatile
  1410  000A7A                     l461:
  1411  000A7A  B4C5               	btfsc	4037,2,c	;volatile
  1412  000A7C  EF42  F005         	goto	u261
  1413  000A80  EF44  F005         	goto	u260
  1414  000A84                     u261:
  1415  000A84  EF3D  F005         	goto	l461
  1416  000A88                     u260:
  1417  000A88                     l425:
  1418  000A88  0012               	return		;funcret
  1419  000A8A                     __end_of_UpdateCurrentTime:
  1420                           	callstack 0
  1421                           
  1422 ;; *************** function _SubBCD *****************
  1423 ;; Defined at:
  1424 ;;		line 703 in file "main.c"
  1425 ;; Parameters:    Size  Location     Type
  1426 ;;  Number1         1    wreg     unsigned char 
  1427 ;;  Number2         1    7[COMRAM] unsigned char 
  1428 ;; Auto vars:     Size  Location     Type
  1429 ;;  Number1         1    9[COMRAM] unsigned char 
  1430 ;;  temp            1   10[COMRAM] unsigned char 
  1431 ;; Return value:  Size  Location     Type
  1432 ;;                  1    wreg      unsigned char 
  1433 ;; Registers used:
  1434 ;;		wreg, status,2, status,0
  1435 ;; Tracked objects:
  1436 ;;		On entry : 0/0
  1437 ;;		On exit  : 0/0
  1438 ;;		Unchanged: 0/0
  1439 ;; Data sizes:     COMRAM   BANK0   BANK1   BANK2   BANK3   BANK4   BANK5   BANK6   BANK7   BANK8   BANK9  BANK10  BANK1
      +1  BANK12  BANK13  BANK14  BANK15
  1440 ;;      Params:         1       0       0       0       0       0       0       0       0       0       0       0       
      +0       0       0       0       0
  1441 ;;      Locals:         2       0       0       0       0       0       0       0       0       0       0       0       
      +0       0       0       0       0
  1442 ;;      Temps:          1       0       0       0       0       0       0       0       0       0       0       0       
      +0       0       0       0       0
  1443 ;;      Totals:         4       0       0       0       0       0       0       0       0       0       0       0       
      +0       0       0       0       0
  1444 ;;Total ram usage:        4 bytes
  1445 ;; Hardware stack levels used: 1
  1446 ;; Hardware stack levels required when called: 3
  1447 ;; This function calls:
  1448 ;;		Nothing
  1449 ;; This function is called by:
  1450 ;;		_WakeUp
  1451 ;; This function uses a non-reentrant model
  1452 ;;
  1453                           
  1454                           	psect	text3
  1455  00102C                     __ptext3:
  1456                           	callstack 0
  1457  00102C                     _SubBCD:
  1458                           	callstack 26
  1459                           
  1460                           ;incstack = 0
  1461                           ;SubBCD@Number1 stored from wreg
  1462  00102C  6E26               	movwf	SubBCD@Number1^0,c
  1463  00102E                     
  1464                           ;main.c: 704:     char temp = Number1 - Number2;
  1465  00102E  5024               	movf	SubBCD@Number2^0,w,c
  1466  001030  5C26               	subwf	SubBCD@Number1^0,w,c
  1467  001032  6E27               	movwf	SubBCD@temp^0,c
  1468                           
  1469                           ;main.c: 706:     if ((temp & 0x0F) > 9) return temp - 0x06;
  1470  001034  C027  F025         	movff	SubBCD@temp,??_SubBCD
  1471  001038  0E0F               	movlw	15
  1472  00103A  1625               	andwf	??_SubBCD^0,f,c
  1473  00103C  0E09               	movlw	9
  1474  00103E  6425               	cpfsgt	??_SubBCD^0,c
  1475  001040  EF24  F008         	goto	u1391
  1476  001044  EF26  F008         	goto	u1390
  1477  001048                     u1391:
  1478  001048  EF2A  F008         	goto	l1899
  1479  00104C                     u1390:
  1480  00104C  5027               	movf	SubBCD@temp^0,w,c
  1481  00104E  0FFA               	addlw	250
  1482  001050  EF2B  F008         	goto	l332
  1483  001054                     l1899:
  1484  001054  5027               	movf	SubBCD@temp^0,w,c
  1485  001056                     l332:
  1486  001056  0012               	return		;funcret
  1487  001058                     __end_of_SubBCD:
  1488                           	callstack 0
  1489                           
  1490 ;; *************** function _AddBCD *****************
  1491 ;; Defined at:
  1492 ;;		line 697 in file "main.c"
  1493 ;; Parameters:    Size  Location     Type
  1494 ;;  Number1         1    wreg     unsigned char 
  1495 ;;  Number2         1    7[COMRAM] unsigned char 
  1496 ;; Auto vars:     Size  Location     Type
  1497 ;;  Number1         1    9[COMRAM] unsigned char 
  1498 ;;  temp            1   10[COMRAM] unsigned char 
  1499 ;; Return value:  Size  Location     Type
  1500 ;;                  1    wreg      unsigned char 
  1501 ;; Registers used:
  1502 ;;		wreg, status,2, status,0
  1503 ;; Tracked objects:
  1504 ;;		On entry : 0/0
  1505 ;;		On exit  : 0/0
  1506 ;;		Unchanged: 0/0
  1507 ;; Data sizes:     COMRAM   BANK0   BANK1   BANK2   BANK3   BANK4   BANK5   BANK6   BANK7   BANK8   BANK9  BANK10  BANK1
      +1  BANK12  BANK13  BANK14  BANK15
  1508 ;;      Params:         1       0       0       0       0       0       0       0       0       0       0       0       
      +0       0       0       0       0
  1509 ;;      Locals:         2       0       0       0       0       0       0       0       0       0       0       0       
      +0       0       0       0       0
  1510 ;;      Temps:          1       0       0       0       0       0       0       0       0       0       0       0       
      +0       0       0       0       0
  1511 ;;      Totals:         4       0       0       0       0       0       0       0       0       0       0       0       
      +0       0       0       0       0
  1512 ;;Total ram usage:        4 bytes
  1513 ;; Hardware stack levels used: 1
  1514 ;; Hardware stack levels required when called: 3
  1515 ;; This function calls:
  1516 ;;		Nothing
  1517 ;; This function is called by:
  1518 ;;		_main
  1519 ;;		_WakeUp
  1520 ;; This function uses a non-reentrant model
  1521 ;;
  1522                           
  1523                           	psect	text4
  1524  001058                     __ptext4:
  1525                           	callstack 0
  1526  001058                     _AddBCD:
  1527                           	callstack 26
  1528                           
  1529                           ;incstack = 0
  1530                           ;AddBCD@Number1 stored from wreg
  1531  001058  6E26               	movwf	AddBCD@Number1^0,c
  1532  00105A                     
  1533                           ;main.c: 698:     char temp = Number1 + Number2;
  1534  00105A  5026               	movf	AddBCD@Number1^0,w,c
  1535  00105C  2424               	addwf	AddBCD@Number2^0,w,c
  1536  00105E  6E27               	movwf	AddBCD@temp^0,c
  1537                           
  1538                           ;main.c: 700:     if ((temp & 0x0F) > 9) return temp + 0x06;
  1539  001060  C027  F025         	movff	AddBCD@temp,??_AddBCD
  1540  001064  0E0F               	movlw	15
  1541  001066  1625               	andwf	??_AddBCD^0,f,c
  1542  001068  0E09               	movlw	9
  1543  00106A  6425               	cpfsgt	??_AddBCD^0,c
  1544  00106C  EF3A  F008         	goto	u1381
  1545  001070  EF3C  F008         	goto	u1380
  1546  001074                     u1381:
  1547  001074  EF40  F008         	goto	l1887
  1548  001078                     u1380:
  1549  001078  5027               	movf	AddBCD@temp^0,w,c
  1550  00107A  0F06               	addlw	6
  1551  00107C  EF41  F008         	goto	l327
  1552  001080                     l1887:
  1553  001080  5027               	movf	AddBCD@temp^0,w,c
  1554  001082                     l327:
  1555  001082  0012               	return		;funcret
  1556  001084                     __end_of_AddBCD:
  1557                           	callstack 0
  1558                           
  1559 ;; *************** function _MCUinit *****************
  1560 ;; Defined at:
  1561 ;;		line 652 in file "main.c"
  1562 ;; Parameters:    Size  Location     Type
  1563 ;;		None
  1564 ;; Auto vars:     Size  Location     Type
  1565 ;;		None
  1566 ;; Return value:  Size  Location     Type
  1567 ;;                  1    wreg      void 
  1568 ;; Registers used:
  1569 ;;		wreg, status,2, status,0, cstack
  1570 ;; Tracked objects:
  1571 ;;		On entry : 0/0
  1572 ;;		On exit  : 0/0
  1573 ;;		Unchanged: 0/0
  1574 ;; Data sizes:     COMRAM   BANK0   BANK1   BANK2   BANK3   BANK4   BANK5   BANK6   BANK7   BANK8   BANK9  BANK10  BANK1
      +1  BANK12  BANK13  BANK14  BANK15
  1575 ;;      Params:         0       0       0       0       0       0       0       0       0       0       0       0       
      +0       0       0       0       0
  1576 ;;      Locals:         0       0       0       0       0       0       0       0       0       0       0       0       
      +0       0       0       0       0
  1577 ;;      Temps:          0       0       0       0       0       0       0       0       0       0       0       0       
      +0       0       0       0       0
  1578 ;;      Totals:         0       0       0       0       0       0       0       0       0       0       0       0       
      +0       0       0       0       0
  1579 ;;Total ram usage:        0 bytes
  1580 ;; Hardware stack levels used: 1
  1581 ;; Hardware stack levels required when called: 4
  1582 ;; This function calls:
  1583 ;;		_Display
  1584 ;; This function is called by:
  1585 ;;		_main
  1586 ;; This function uses a non-reentrant model
  1587 ;;
  1588                           
  1589                           	psect	text5
  1590  00117A                     __ptext5:
  1591                           	callstack 0
  1592  00117A                     _MCUinit:
  1593                           	callstack 26
  1594  00117A                     
  1595                           ;main.c: 653:     Display(0x88, 0x88);
  1596  00117A  0E88               	movlw	136
  1597  00117C  6E24               	movwf	Display@Minutes^0,c
  1598  00117E  0E88               	movlw	136
  1599  001180  ECEA  F005         	call	_Display
  1600  001184  0012               	return		;funcret
  1601  001186                     __end_of_MCUinit:
  1602                           	callstack 0
  1603                           
  1604 ;; *************** function _Display *****************
  1605 ;; Defined at:
  1606 ;;		line 709 in file "main.c"
  1607 ;; Parameters:    Size  Location     Type
  1608 ;;  Hours           1    wreg     unsigned char 
  1609 ;;  Minutes         1    7[COMRAM] unsigned char 
  1610 ;; Auto vars:     Size  Location     Type
  1611 ;;  Hours           1   12[COMRAM] unsigned char 
  1612 ;;  Lower_Minute    1   11[COMRAM] unsigned char 
  1613 ;;  Upper_Minute    1   10[COMRAM] unsigned char 
  1614 ;;  Lower_Hours     1    9[COMRAM] unsigned char 
  1615 ;;  Upper_Hours     1    8[COMRAM] unsigned char 
  1616 ;; Return value:  Size  Location     Type
  1617 ;;                  1    wreg      void 
  1618 ;; Registers used:
  1619 ;;		wreg, status,2, status,0
  1620 ;; Tracked objects:
  1621 ;;		On entry : 0/0
  1622 ;;		On exit  : 0/0
  1623 ;;		Unchanged: 0/0
  1624 ;; Data sizes:     COMRAM   BANK0   BANK1   BANK2   BANK3   BANK4   BANK5   BANK6   BANK7   BANK8   BANK9  BANK10  BANK1
      +1  BANK12  BANK13  BANK14  BANK15
  1625 ;;      Params:         1       0       0       0       0       0       0       0       0       0       0       0       
      +0       0       0       0       0
  1626 ;;      Locals:         5       0       0       0       0       0       0       0       0       0       0       0       
      +0       0       0       0       0
  1627 ;;      Temps:          0       0       0       0       0       0       0       0       0       0       0       0       
      +0       0       0       0       0
  1628 ;;      Totals:         6       0       0       0       0       0       0       0       0       0       0       0       
      +0       0       0       0       0
  1629 ;;Total ram usage:        6 bytes
  1630 ;; Hardware stack levels used: 1
  1631 ;; Hardware stack levels required when called: 3
  1632 ;; This function calls:
  1633 ;;		Nothing
  1634 ;; This function is called by:
  1635 ;;		_main
  1636 ;;		_MCUinit
  1637 ;; This function uses a non-reentrant model
  1638 ;;
  1639                           
  1640                           	psect	text6
  1641  000BD4                     __ptext6:
  1642                           	callstack 0
  1643  000BD4                     _Display:
  1644                           	callstack 26
  1645                           
  1646                           ;incstack = 0
  1647                           ;Display@Hours stored from wreg
  1648  000BD4  6E29               	movwf	Display@Hours^0,c
  1649  000BD6                     
  1650                           ;main.c: 710:     char Upper_Hours = ((Hours & 0xF0) >> 4);
  1651  000BD6  3829               	swapf	Display@Hours^0,w,c
  1652  000BD8  0B0F               	andlw	15
  1653  000BDA  0B0F               	andlw	15
  1654  000BDC  6E25               	movwf	Display@Upper_Hours^0,c
  1655                           
  1656                           ;main.c: 711:     char Lower_Hours = Hours & 0x0F;
  1657  000BDE  5029               	movf	Display@Hours^0,w,c
  1658  000BE0  0B0F               	andlw	15
  1659  000BE2  6E26               	movwf	Display@Lower_Hours^0,c
  1660                           
  1661                           ;main.c: 713:     char Upper_Minutes = ((Minutes & 0xF0) >> 4);
  1662  000BE4  3824               	swapf	Display@Minutes^0,w,c
  1663  000BE6  0B0F               	andlw	15
  1664  000BE8  0B0F               	andlw	15
  1665  000BEA  6E27               	movwf	Display@Upper_Minutes^0,c
  1666                           
  1667                           ;main.c: 714:     char Lower_Minutes = Minutes & 0x0F;
  1668  000BEC  5024               	movf	Display@Minutes^0,w,c
  1669  000BEE  0B0F               	andlw	15
  1670  000BF0  6E28               	movwf	Display@Lower_Minutes^0,c
  1671  000BF2                     
  1672                           ;main.c: 716:     if(Blink_First_Digit && Blink) {
  1673  000BF2  501C               	movf	_Blink_First_Digit^0,w,c
  1674  000BF4  B4D8               	btfsc	status,2,c
  1675  000BF6  EFFF  F005         	goto	u1301
  1676  000BFA  EF01  F006         	goto	u1300
  1677  000BFE                     u1301:
  1678  000BFE  EF10  F006         	goto	l336
  1679  000C02                     u1300:
  1680  000C02  501A               	movf	_Blink^0,w,c
  1681  000C04  B4D8               	btfsc	status,2,c
  1682  000C06  EF07  F006         	goto	u1311
  1683  000C0A  EF09  F006         	goto	u1310
  1684  000C0E                     u1311:
  1685  000C0E  EF10  F006         	goto	l336
  1686  000C12                     u1310:
  1687  000C12                     
  1688                           ;main.c: 717:         LATA |= 0x00;
  1689  000C12  5089               	movf	137,w,c	;volatile
  1690                           
  1691                           ;main.c: 718:         _delay((unsigned long)((800)*(4000000/4000000.0)));
  1692  000C14  0EA0               	movlw	160
  1693  000C16                     u2017:
  1694  000C16  D000               	nop2	
  1695  000C18  2EE8               	decfsz	wreg,f,c
  1696  000C1A  D7FD               	bra	u2017
  1697                           
  1698                           ;main.c: 719:     }
  1699  000C1C  EF18  F006         	goto	l1843
  1700  000C20                     l336:
  1701                           
  1702                           ;main.c: 721:         LATA = Upper_Hours;
  1703  000C20  C025  FF89         	movff	Display@Upper_Hours,3977	;volatile
  1704  000C24                     
  1705                           ;main.c: 722:         LATB |= 0x10;
  1706  000C24  888A               	bsf	138,4,c	;volatile
  1707  000C26                     
  1708                           ;main.c: 723:         _delay((unsigned long)((800)*(4000000/4000000.0)));
  1709  000C26  0EA0               	movlw	160
  1710  000C28                     u2027:
  1711  000C28  D000               	nop2	
  1712  000C2A  2EE8               	decfsz	wreg,f,c
  1713  000C2C  D7FD               	bra	u2027
  1714  000C2E                     
  1715                           ;main.c: 724:         LATB &= ~(0x10);
  1716  000C2E  988A               	bcf	138,4,c	;volatile
  1717  000C30                     l1843:
  1718                           
  1719                           ;main.c: 727:     if(Blink_First_Digit && Blink) {
  1720  000C30  501C               	movf	_Blink_First_Digit^0,w,c
  1721  000C32  B4D8               	btfsc	status,2,c
  1722  000C34  EF1E  F006         	goto	u1321
  1723  000C38  EF20  F006         	goto	u1320
  1724  000C3C                     u1321:
  1725  000C3C  EF2F  F006         	goto	l338
  1726  000C40                     u1320:
  1727  000C40  501A               	movf	_Blink^0,w,c
  1728  000C42  B4D8               	btfsc	status,2,c
  1729  000C44  EF26  F006         	goto	u1331
  1730  000C48  EF28  F006         	goto	u1330
  1731  000C4C                     u1331:
  1732  000C4C  EF2F  F006         	goto	l338
  1733  000C50                     u1330:
  1734  000C50                     
  1735                           ;main.c: 728:         LATA |= 0x00;
  1736  000C50  5089               	movf	137,w,c	;volatile
  1737                           
  1738                           ;main.c: 729:         _delay((unsigned long)((800)*(4000000/4000000.0)));
  1739  000C52  0EA0               	movlw	160
  1740  000C54                     u2037:
  1741  000C54  D000               	nop2	
  1742  000C56  2EE8               	decfsz	wreg,f,c
  1743  000C58  D7FD               	bra	u2037
  1744                           
  1745                           ;main.c: 730:     }
  1746  000C5A  EF37  F006         	goto	l1855
  1747  000C5E                     l338:
  1748                           
  1749                           ;main.c: 732:         LATA = Lower_Hours;
  1750  000C5E  C026  FF89         	movff	Display@Lower_Hours,3977	;volatile
  1751  000C62                     
  1752                           ;main.c: 733:         LATB |= 0x20;
  1753  000C62  8A8A               	bsf	138,5,c	;volatile
  1754  000C64                     
  1755                           ;main.c: 734:         _delay((unsigned long)((800)*(4000000/4000000.0)));
  1756  000C64  0EA0               	movlw	160
  1757  000C66                     u2047:
  1758  000C66  D000               	nop2	
  1759  000C68  2EE8               	decfsz	wreg,f,c
  1760  000C6A  D7FD               	bra	u2047
  1761  000C6C                     
  1762                           ;main.c: 735:         LATB &= ~(0x20);
  1763  000C6C  9A8A               	bcf	138,5,c	;volatile
  1764  000C6E                     l1855:
  1765                           
  1766                           ;main.c: 738:     if(Blink_Second_Digit && Blink) {
  1767  000C6E  501B               	movf	_Blink_Second_Digit^0,w,c
  1768  000C70  B4D8               	btfsc	status,2,c
  1769  000C72  EF3D  F006         	goto	u1341
  1770  000C76  EF3F  F006         	goto	u1340
  1771  000C7A                     u1341:
  1772  000C7A  EF4E  F006         	goto	l340
  1773  000C7E                     u1340:
  1774  000C7E  501A               	movf	_Blink^0,w,c
  1775  000C80  B4D8               	btfsc	status,2,c
  1776  000C82  EF45  F006         	goto	u1351
  1777  000C86  EF47  F006         	goto	u1350
  1778  000C8A                     u1351:
  1779  000C8A  EF4E  F006         	goto	l340
  1780  000C8E                     u1350:
  1781  000C8E                     
  1782                           ;main.c: 739:         LATA |= 0x00;
  1783  000C8E  5089               	movf	137,w,c	;volatile
  1784                           
  1785                           ;main.c: 740:         _delay((unsigned long)((800)*(4000000/4000000.0)));
  1786  000C90  0EA0               	movlw	160
  1787  000C92                     u2057:
  1788  000C92  D000               	nop2	
  1789  000C94  2EE8               	decfsz	wreg,f,c
  1790  000C96  D7FD               	bra	u2057
  1791                           
  1792                           ;main.c: 741:     }
  1793  000C98  EF56  F006         	goto	l1867
  1794  000C9C                     l340:
  1795                           
  1796                           ;main.c: 743:         LATA = Upper_Minutes;
  1797  000C9C  C027  FF89         	movff	Display@Upper_Minutes,3977	;volatile
  1798  000CA0                     
  1799                           ;main.c: 744:         LATB |= 0x40;
  1800  000CA0  8C8A               	bsf	138,6,c	;volatile
  1801  000CA2                     
  1802                           ;main.c: 745:         _delay((unsigned long)((800)*(4000000/4000000.0)));
  1803  000CA2  0EA0               	movlw	160
  1804  000CA4                     u2067:
  1805  000CA4  D000               	nop2	
  1806  000CA6  2EE8               	decfsz	wreg,f,c
  1807  000CA8  D7FD               	bra	u2067
  1808  000CAA                     
  1809                           ;main.c: 746:         LATB &= ~(0x40);
  1810  000CAA  9C8A               	bcf	138,6,c	;volatile
  1811  000CAC                     l1867:
  1812                           
  1813                           ;main.c: 749:     if(Blink_Second_Digit && Blink) {
  1814  000CAC  501B               	movf	_Blink_Second_Digit^0,w,c
  1815  000CAE  B4D8               	btfsc	status,2,c
  1816  000CB0  EF5C  F006         	goto	u1361
  1817  000CB4  EF5E  F006         	goto	u1360
  1818  000CB8                     u1361:
  1819  000CB8  EF6D  F006         	goto	l342
  1820  000CBC                     u1360:
  1821  000CBC  501A               	movf	_Blink^0,w,c
  1822  000CBE  B4D8               	btfsc	status,2,c
  1823  000CC0  EF64  F006         	goto	u1371
  1824  000CC4  EF66  F006         	goto	u1370
  1825  000CC8                     u1371:
  1826  000CC8  EF6D  F006         	goto	l342
  1827  000CCC                     u1370:
  1828  000CCC                     
  1829                           ;main.c: 750:         LATA |= 0x00;
  1830  000CCC  5089               	movf	137,w,c	;volatile
  1831                           
  1832                           ;main.c: 751:         _delay((unsigned long)((800)*(4000000/4000000.0)));
  1833  000CCE  0EA0               	movlw	160
  1834  000CD0                     u2077:
  1835  000CD0  D000               	nop2	
  1836  000CD2  2EE8               	decfsz	wreg,f,c
  1837  000CD4  D7FD               	bra	u2077
  1838                           
  1839                           ;main.c: 752:     }else {
  1840  000CD6  EF75  F006         	goto	l344
  1841  000CDA                     l342:
  1842                           
  1843                           ;main.c: 753:         LATA = Lower_Minutes;
  1844  000CDA  C028  FF89         	movff	Display@Lower_Minutes,3977	;volatile
  1845  000CDE                     
  1846                           ;main.c: 754:         LATB |= 0x80;
  1847  000CDE  8E8A               	bsf	138,7,c	;volatile
  1848  000CE0                     
  1849                           ;main.c: 755:         _delay((unsigned long)((800)*(4000000/4000000.0)));
  1850  000CE0  0EA0               	movlw	160
  1851  000CE2                     u2087:
  1852  000CE2  D000               	nop2	
  1853  000CE4  2EE8               	decfsz	wreg,f,c
  1854  000CE6  D7FD               	bra	u2087
  1855  000CE8                     
  1856                           ;main.c: 756:         LATB &= ~(0x80);
  1857  000CE8  9E8A               	bcf	138,7,c	;volatile
  1858  000CEA                     l344:
  1859  000CEA  0012               	return		;funcret
  1860  000CEC                     __end_of_Display:
  1861                           	callstack 0
  1862                           
  1863 ;; *************** function _MCUconfig *****************
  1864 ;; Defined at:
  1865 ;;		line 587 in file "main.c"
  1866 ;; Parameters:    Size  Location     Type
  1867 ;;		None
  1868 ;; Auto vars:     Size  Location     Type
  1869 ;;		None
  1870 ;; Return value:  Size  Location     Type
  1871 ;;                  1    wreg      void 
  1872 ;; Registers used:
  1873 ;;		wreg, status,2, status,0, cstack
  1874 ;; Tracked objects:
  1875 ;;		On entry : 0/0
  1876 ;;		On exit  : 0/0
  1877 ;;		Unchanged: 0/0
  1878 ;; Data sizes:     COMRAM   BANK0   BANK1   BANK2   BANK3   BANK4   BANK5   BANK6   BANK7   BANK8   BANK9  BANK10  BANK1
      +1  BANK12  BANK13  BANK14  BANK15
  1879 ;;      Params:         0       0       0       0       0       0       0       0       0       0       0       0       
      +0       0       0       0       0
  1880 ;;      Locals:         0       0       0       0       0       0       0       0       0       0       0       0       
      +0       0       0       0       0
  1881 ;;      Temps:          0       0       0       0       0       0       0       0       0       0       0       0       
      +0       0       0       0       0
  1882 ;;      Totals:         0       0       0       0       0       0       0       0       0       0       0       0       
      +0       0       0       0       0
  1883 ;;Total ram usage:        0 bytes
  1884 ;; Hardware stack levels used: 1
  1885 ;; Hardware stack levels required when called: 4
  1886 ;; This function calls:
  1887 ;;		_GPIOconfig
  1888 ;;		_I2Cconfig
  1889 ;;		_INTconfig
  1890 ;;		_PWMconfig
  1891 ;;		_TIMERconfig
  1892 ;; This function is called by:
  1893 ;;		_main
  1894 ;; This function uses a non-reentrant model
  1895 ;;
  1896                           
  1897                           	psect	text7
  1898  00113C                     __ptext7:
  1899                           	callstack 0
  1900  00113C                     _MCUconfig:
  1901                           	callstack 26
  1902  00113C                     
  1903                           ;main.c: 588:     OSCCON |= 0xE2;
  1904  00113C  0EE2               	movlw	226
  1905  00113E  12D3               	iorwf	211,f,c	;volatile
  1906  001140                     
  1907                           ;main.c: 590:     GPIOconfig();
  1908  001140  EC8F  F008         	call	_GPIOconfig	;wreg free
  1909  001144                     
  1910                           ;main.c: 593:     I2Cconfig();
  1911  001144  ECC9  F008         	call	_I2Cconfig	;wreg free
  1912  001148                     
  1913                           ;main.c: 595:     TIMERconfig();
  1914  001148  ECB6  F008         	call	_TIMERconfig	;wreg free
  1915  00114C                     
  1916                           ;main.c: 597:     INTconfig();
  1917  00114C  ECAB  F008         	call	_INTconfig	;wreg free
  1918  001150                     
  1919                           ;main.c: 599:     PWMconfig();
  1920  001150  EC7F  F008         	call	_PWMconfig	;wreg free
  1921  001154  0012               	return		;funcret
  1922  001156                     __end_of_MCUconfig:
  1923                           	callstack 0
  1924                           
  1925 ;; *************** function _TIMERconfig *****************
  1926 ;; Defined at:
  1927 ;;		line 527 in file "main.c"
  1928 ;; Parameters:    Size  Location     Type
  1929 ;;		None
  1930 ;; Auto vars:     Size  Location     Type
  1931 ;;		None
  1932 ;; Return value:  Size  Location     Type
  1933 ;;                  1    wreg      void 
  1934 ;; Registers used:
  1935 ;;		wreg, status,2
  1936 ;; Tracked objects:
  1937 ;;		On entry : 0/0
  1938 ;;		On exit  : 0/0
  1939 ;;		Unchanged: 0/0
  1940 ;; Data sizes:     COMRAM   BANK0   BANK1   BANK2   BANK3   BANK4   BANK5   BANK6   BANK7   BANK8   BANK9  BANK10  BANK1
      +1  BANK12  BANK13  BANK14  BANK15
  1941 ;;      Params:         0       0       0       0       0       0       0       0       0       0       0       0       
      +0       0       0       0       0
  1942 ;;      Locals:         0       0       0       0       0       0       0       0       0       0       0       0       
      +0       0       0       0       0
  1943 ;;      Temps:          0       0       0       0       0       0       0       0       0       0       0       0       
      +0       0       0       0       0
  1944 ;;      Totals:         0       0       0       0       0       0       0       0       0       0       0       0       
      +0       0       0       0       0
  1945 ;;Total ram usage:        0 bytes
  1946 ;; Hardware stack levels used: 1
  1947 ;; Hardware stack levels required when called: 3
  1948 ;; This function calls:
  1949 ;;		Nothing
  1950 ;; This function is called by:
  1951 ;;		_MCUconfig
  1952 ;; This function uses a non-reentrant model
  1953 ;;
  1954                           
  1955                           	psect	text8
  1956  00116C                     __ptext8:
  1957                           	callstack 0
  1958  00116C                     _TIMERconfig:
  1959                           	callstack 26
  1960  00116C                     
  1961                           ;main.c: 528:     T0CON = 0x83;
  1962  00116C  0E83               	movlw	131
  1963  00116E  6ED5               	movwf	213,c	;volatile
  1964                           
  1965                           ;main.c: 533:     T1CON = 0xB1;
  1966  001170  0EB1               	movlw	177
  1967  001172  6ECD               	movwf	205,c	;volatile
  1968                           
  1969                           ;main.c: 537:     T3CON = 0x91;
  1970  001174  0E91               	movlw	145
  1971  001176  6EB1               	movwf	177,c	;volatile
  1972  001178  0012               	return		;funcret
  1973  00117A                     __end_of_TIMERconfig:
  1974                           	callstack 0
  1975                           
  1976 ;; *************** function _PWMconfig *****************
  1977 ;; Defined at:
  1978 ;;		line 559 in file "main.c"
  1979 ;; Parameters:    Size  Location     Type
  1980 ;;		None
  1981 ;; Auto vars:     Size  Location     Type
  1982 ;;		None
  1983 ;; Return value:  Size  Location     Type
  1984 ;;                  1    wreg      void 
  1985 ;; Registers used:
  1986 ;;		wreg, status,2
  1987 ;; Tracked objects:
  1988 ;;		On entry : 0/0
  1989 ;;		On exit  : 0/0
  1990 ;;		Unchanged: 0/0
  1991 ;; Data sizes:     COMRAM   BANK0   BANK1   BANK2   BANK3   BANK4   BANK5   BANK6   BANK7   BANK8   BANK9  BANK10  BANK1
      +1  BANK12  BANK13  BANK14  BANK15
  1992 ;;      Params:         0       0       0       0       0       0       0       0       0       0       0       0       
      +0       0       0       0       0
  1993 ;;      Locals:         0       0       0       0       0       0       0       0       0       0       0       0       
      +0       0       0       0       0
  1994 ;;      Temps:          0       0       0       0       0       0       0       0       0       0       0       0       
      +0       0       0       0       0
  1995 ;;      Totals:         0       0       0       0       0       0       0       0       0       0       0       0       
      +0       0       0       0       0
  1996 ;;Total ram usage:        0 bytes
  1997 ;; Hardware stack levels used: 1
  1998 ;; Hardware stack levels required when called: 3
  1999 ;; This function calls:
  2000 ;;		Nothing
  2001 ;; This function is called by:
  2002 ;;		_MCUconfig
  2003 ;; This function uses a non-reentrant model
  2004 ;;
  2005                           
  2006                           	psect	text9
  2007  0010FE                     __ptext9:
  2008                           	callstack 0
  2009  0010FE                     _PWMconfig:
  2010                           	callstack 26
  2011  0010FE                     
  2012                           ;main.c: 561:     PR2 = 49;
  2013  0010FE  0E31               	movlw	49
  2014  001100  6ECB               	movwf	203,c	;volatile
  2015                           
  2016                           ;main.c: 567:     CCP1CON = 0x00;
  2017  001102  0E00               	movlw	0
  2018  001104  6EBD               	movwf	189,c	;volatile
  2019                           
  2020                           ;main.c: 568:     CCPR1L = 0x19;
  2021  001106  0E19               	movlw	25
  2022  001108  6EBE               	movwf	190,c	;volatile
  2023  00110A                     
  2024                           ;main.c: 573:     TRISCbits.RC2 = 0;
  2025  00110A  9494               	bcf	148,2,c	;volatile
  2026                           
  2027                           ;main.c: 576:     T2CON = 0x01;
  2028  00110C  0E01               	movlw	1
  2029  00110E  6ECA               	movwf	202,c	;volatile
  2030  001110                     
  2031                           ;main.c: 578:     T2CONbits.TMR2ON = 1;
  2032  001110  84CA               	bsf	202,2,c	;volatile
  2033                           
  2034                           ;main.c: 581:     CCP1CON = 0x0C;
  2035  001112  0E0C               	movlw	12
  2036  001114  6EBD               	movwf	189,c	;volatile
  2037  001116                     
  2038                           ;main.c: 583:     _delay((unsigned long)((1)*(4000000/4000000.0)));
  2039  001116  F000               	nop	
  2040                           
  2041                           ;main.c: 585:     CCPR1L = 0x00;
  2042  001118  0E00               	movlw	0
  2043  00111A  6EBE               	movwf	190,c	;volatile
  2044  00111C  0012               	return		;funcret
  2045  00111E                     __end_of_PWMconfig:
  2046                           	callstack 0
  2047                           
  2048 ;; *************** function _INTconfig *****************
  2049 ;; Defined at:
  2050 ;;		line 541 in file "main.c"
  2051 ;; Parameters:    Size  Location     Type
  2052 ;;		None
  2053 ;; Auto vars:     Size  Location     Type
  2054 ;;		None
  2055 ;; Return value:  Size  Location     Type
  2056 ;;                  1    wreg      void 
  2057 ;; Registers used:
  2058 ;;		wreg, status,2, status,0
  2059 ;; Tracked objects:
  2060 ;;		On entry : 0/0
  2061 ;;		On exit  : 0/0
  2062 ;;		Unchanged: 0/0
  2063 ;; Data sizes:     COMRAM   BANK0   BANK1   BANK2   BANK3   BANK4   BANK5   BANK6   BANK7   BANK8   BANK9  BANK10  BANK1
      +1  BANK12  BANK13  BANK14  BANK15
  2064 ;;      Params:         0       0       0       0       0       0       0       0       0       0       0       0       
      +0       0       0       0       0
  2065 ;;      Locals:         0       0       0       0       0       0       0       0       0       0       0       0       
      +0       0       0       0       0
  2066 ;;      Temps:          0       0       0       0       0       0       0       0       0       0       0       0       
      +0       0       0       0       0
  2067 ;;      Totals:         0       0       0       0       0       0       0       0       0       0       0       0       
      +0       0       0       0       0
  2068 ;;Total ram usage:        0 bytes
  2069 ;; Hardware stack levels used: 1
  2070 ;; Hardware stack levels required when called: 3
  2071 ;; This function calls:
  2072 ;;		Nothing
  2073 ;; This function is called by:
  2074 ;;		_MCUconfig
  2075 ;; This function uses a non-reentrant model
  2076 ;;
  2077                           
  2078                           	psect	text10
  2079  001156                     __ptext10:
  2080                           	callstack 0
  2081  001156                     _INTconfig:
  2082                           	callstack 26
  2083  001156                     
  2084                           ;main.c: 542:     INTCON = 0xF0;
  2085  001156  0EF0               	movlw	240
  2086  001158  6EF2               	movwf	242,c	;volatile
  2087                           
  2088                           ;main.c: 549:     PIE2 = 0x02;
  2089  00115A  0E02               	movlw	2
  2090  00115C  6EA0               	movwf	160,c	;volatile
  2091                           
  2092                           ;main.c: 552:     PIE1 = 0x01;
  2093  00115E  0E01               	movlw	1
  2094  001160  6E9D               	movwf	157,c	;volatile
  2095  001162                     
  2096                           ;main.c: 554:     INTCON2 &= ~(0xF0);
  2097  001162  0E0F               	movlw	15
  2098  001164  16F1               	andwf	241,f,c	;volatile
  2099  001166                     
  2100                           ;main.c: 556:     INTCON3 = 0x18;
  2101  001166  0E18               	movlw	24
  2102  001168  6EF0               	movwf	240,c	;volatile
  2103  00116A  0012               	return		;funcret
  2104  00116C                     __end_of_INTconfig:
  2105                           	callstack 0
  2106                           
  2107 ;; *************** function _I2Cconfig *****************
  2108 ;; Defined at:
  2109 ;;		line 521 in file "main.c"
  2110 ;; Parameters:    Size  Location     Type
  2111 ;;		None
  2112 ;; Auto vars:     Size  Location     Type
  2113 ;;		None
  2114 ;; Return value:  Size  Location     Type
  2115 ;;                  1    wreg      void 
  2116 ;; Registers used:
  2117 ;;		wreg, status,2
  2118 ;; Tracked objects:
  2119 ;;		On entry : 0/0
  2120 ;;		On exit  : 0/0
  2121 ;;		Unchanged: 0/0
  2122 ;; Data sizes:     COMRAM   BANK0   BANK1   BANK2   BANK3   BANK4   BANK5   BANK6   BANK7   BANK8   BANK9  BANK10  BANK1
      +1  BANK12  BANK13  BANK14  BANK15
  2123 ;;      Params:         0       0       0       0       0       0       0       0       0       0       0       0       
      +0       0       0       0       0
  2124 ;;      Locals:         0       0       0       0       0       0       0       0       0       0       0       0       
      +0       0       0       0       0
  2125 ;;      Temps:          0       0       0       0       0       0       0       0       0       0       0       0       
      +0       0       0       0       0
  2126 ;;      Totals:         0       0       0       0       0       0       0       0       0       0       0       0       
      +0       0       0       0       0
  2127 ;;Total ram usage:        0 bytes
  2128 ;; Hardware stack levels used: 1
  2129 ;; Hardware stack levels required when called: 3
  2130 ;; This function calls:
  2131 ;;		Nothing
  2132 ;; This function is called by:
  2133 ;;		_MCUconfig
  2134 ;; This function uses a non-reentrant model
  2135 ;;
  2136                           
  2137                           	psect	text11
  2138  001192                     __ptext11:
  2139                           	callstack 0
  2140  001192                     _I2Cconfig:
  2141                           	callstack 26
  2142  001192                     
  2143                           ;main.c: 523:     SSPADD = 9;
  2144  001192  0E09               	movlw	9
  2145  001194  6EC8               	movwf	200,c	;volatile
  2146                           
  2147                           ;main.c: 525:     SSPCON1 = 0x28;
  2148  001196  0E28               	movlw	40
  2149  001198  6EC6               	movwf	198,c	;volatile
  2150  00119A  0012               	return		;funcret
  2151  00119C                     __end_of_I2Cconfig:
  2152                           	callstack 0
  2153                           
  2154 ;; *************** function _GPIOconfig *****************
  2155 ;; Defined at:
  2156 ;;		line 502 in file "main.c"
  2157 ;; Parameters:    Size  Location     Type
  2158 ;;		None
  2159 ;; Auto vars:     Size  Location     Type
  2160 ;;		None
  2161 ;; Return value:  Size  Location     Type
  2162 ;;                  1    wreg      void 
  2163 ;; Registers used:
  2164 ;;		wreg, status,2, status,0
  2165 ;; Tracked objects:
  2166 ;;		On entry : 0/0
  2167 ;;		On exit  : 0/0
  2168 ;;		Unchanged: 0/0
  2169 ;; Data sizes:     COMRAM   BANK0   BANK1   BANK2   BANK3   BANK4   BANK5   BANK6   BANK7   BANK8   BANK9  BANK10  BANK1
      +1  BANK12  BANK13  BANK14  BANK15
  2170 ;;      Params:         0       0       0       0       0       0       0       0       0       0       0       0       
      +0       0       0       0       0
  2171 ;;      Locals:         0       0       0       0       0       0       0       0       0       0       0       0       
      +0       0       0       0       0
  2172 ;;      Temps:          0       0       0       0       0       0       0       0       0       0       0       0       
      +0       0       0       0       0
  2173 ;;      Totals:         0       0       0       0       0       0       0       0       0       0       0       0       
      +0       0       0       0       0
  2174 ;;Total ram usage:        0 bytes
  2175 ;; Hardware stack levels used: 1
  2176 ;; Hardware stack levels required when called: 3
  2177 ;; This function calls:
  2178 ;;		Nothing
  2179 ;; This function is called by:
  2180 ;;		_MCUconfig
  2181 ;; This function uses a non-reentrant model
  2182 ;;
  2183                           
  2184                           	psect	text12
  2185  00111E                     __ptext12:
  2186                           	callstack 0
  2187  00111E                     _GPIOconfig:
  2188                           	callstack 26
  2189  00111E                     
  2190                           ;main.c: 504:     TRISC = 0;
  2191  00111E  0E00               	movlw	0
  2192  001120  6E94               	movwf	148,c	;volatile
  2193  001122                     
  2194                           ;main.c: 506:     TRISC |= 0x18;
  2195  001122  0E18               	movlw	24
  2196  001124  1294               	iorwf	148,f,c	;volatile
  2197  001126                     
  2198                           ;main.c: 508:     TRISA = 0;
  2199  001126  0E00               	movlw	0
  2200  001128  6E92               	movwf	146,c	;volatile
  2201  00112A                     
  2202                           ;main.c: 510:     TRISB = 0x07;
  2203  00112A  0E07               	movlw	7
  2204  00112C  6E93               	movwf	147,c	;volatile
  2205  00112E                     
  2206                           ;main.c: 512:     TRISCbits.RC0 = 0;
  2207  00112E  9094               	bcf	148,0,c	;volatile
  2208  001130                     
  2209                           ;main.c: 513:     PORTCbits.RC0 = 1;
  2210  001130  8082               	bsf	130,0,c	;volatile
  2211  001132                     
  2212                           ;main.c: 515:     TRISCbits.RC2 = 0;
  2213  001132  9494               	bcf	148,2,c	;volatile
  2214  001134                     
  2215                           ;main.c: 516:     PORTCbits.RC2 = 1;
  2216  001134  8482               	bsf	130,2,c	;volatile
  2217  001136                     
  2218                           ;main.c: 518:     TRISCbits.RC5 = 0;
  2219  001136  9A94               	bcf	148,5,c	;volatile
  2220  001138                     
  2221                           ;main.c: 519:     PORTCbits.RC5 = 0;
  2222  001138  9A82               	bcf	130,5,c	;volatile
  2223  00113A  0012               	return		;funcret
  2224  00113C                     __end_of_GPIOconfig:
  2225                           	callstack 0
  2226                           
  2227 ;; *************** function _BlinkDigit *****************
  2228 ;; Defined at:
  2229 ;;		line 677 in file "main.c"
  2230 ;; Parameters:    Size  Location     Type
  2231 ;;  index           1    wreg     unsigned char 
  2232 ;; Auto vars:     Size  Location     Type
  2233 ;;  index           1    9[COMRAM] unsigned char 
  2234 ;; Return value:  Size  Location     Type
  2235 ;;                  1    wreg      void 
  2236 ;; Registers used:
  2237 ;;		wreg, status,2, status,0
  2238 ;; Tracked objects:
  2239 ;;		On entry : 0/0
  2240 ;;		On exit  : 0/0
  2241 ;;		Unchanged: 0/0
  2242 ;; Data sizes:     COMRAM   BANK0   BANK1   BANK2   BANK3   BANK4   BANK5   BANK6   BANK7   BANK8   BANK9  BANK10  BANK1
      +1  BANK12  BANK13  BANK14  BANK15
  2243 ;;      Params:         0       0       0       0       0       0       0       0       0       0       0       0       
      +0       0       0       0       0
  2244 ;;      Locals:         1       0       0       0       0       0       0       0       0       0       0       0       
      +0       0       0       0       0
  2245 ;;      Temps:          2       0       0       0       0       0       0       0       0       0       0       0       
      +0       0       0       0       0
  2246 ;;      Totals:         3       0       0       0       0       0       0       0       0       0       0       0       
      +0       0       0       0       0
  2247 ;;Total ram usage:        3 bytes
  2248 ;; Hardware stack levels used: 1
  2249 ;; Hardware stack levels required when called: 3
  2250 ;; This function calls:
  2251 ;;		Nothing
  2252 ;; This function is called by:
  2253 ;;		_main
  2254 ;; This function uses a non-reentrant model
  2255 ;;
  2256                           
  2257                           	psect	text13
  2258  000F54                     __ptext13:
  2259                           	callstack 0
  2260  000F54                     _BlinkDigit:
  2261                           	callstack 27
  2262                           
  2263                           ;incstack = 0
  2264                           ;BlinkDigit@index stored from wreg
  2265  000F54  6E26               	movwf	BlinkDigit@index^0,c
  2266  000F56                     
  2267                           ;main.c: 678:     switch(index){
  2268  000F56  EFBF  F007         	goto	l1327
  2269  000F5A                     l1319:
  2270                           
  2271                           ;main.c: 680:             Blink_First_Digit = 0;
  2272  000F5A  0E00               	movlw	0
  2273  000F5C  6E1C               	movwf	_Blink_First_Digit^0,c
  2274                           
  2275                           ;main.c: 681:             Blink_Second_Digit = 0;
  2276  000F5E  0E00               	movlw	0
  2277  000F60  6E1B               	movwf	_Blink_Second_Digit^0,c
  2278                           
  2279                           ;main.c: 682:         break;
  2280  000F62  EFD8  F007         	goto	l323
  2281  000F66                     l1321:
  2282                           
  2283                           ;main.c: 685:             Blink_First_Digit = 0;
  2284  000F66  0E00               	movlw	0
  2285  000F68  6E1C               	movwf	_Blink_First_Digit^0,c
  2286                           
  2287                           ;main.c: 686:             Blink_Second_Digit = 1;
  2288  000F6A  0E01               	movlw	1
  2289  000F6C  6E1B               	movwf	_Blink_Second_Digit^0,c
  2290                           
  2291                           ;main.c: 687:         break;
  2292  000F6E  EFD8  F007         	goto	l323
  2293  000F72                     l1323:
  2294                           
  2295                           ;main.c: 690:             Blink_First_Digit = 1;
  2296  000F72  0E01               	movlw	1
  2297  000F74  6E1C               	movwf	_Blink_First_Digit^0,c
  2298                           
  2299                           ;main.c: 691:             Blink_Second_Digit = 0;
  2300  000F76  0E00               	movlw	0
  2301  000F78  6E1B               	movwf	_Blink_Second_Digit^0,c
  2302                           
  2303                           ;main.c: 692:         break;
  2304  000F7A  EFD8  F007         	goto	l323
  2305  000F7E                     l1327:
  2306  000F7E  5026               	movf	BlinkDigit@index^0,w,c
  2307  000F80  6E24               	movwf	??_BlinkDigit^0,c
  2308  000F82  6A25               	clrf	(??_BlinkDigit+1)^0,c
  2309                           
  2310                           ; Switch on 2 bytes has been partitioned into a top level switch of size 1, and 1 sub-sw
      +                          itches
  2311                           ; Switch size 1, requested type "simple"
  2312                           ; Number of cases is 1, Range of values is 0 to 0
  2313                           ; switch strategies available:
  2314                           ; Name         Instructions Cycles
  2315                           ; simple_byte            4     3 (average)
  2316                           ;	Chosen strategy is simple_byte
  2317  000F84  5025               	movf	(??_BlinkDigit+1)^0,w,c
  2318  000F86  0A00               	xorlw	0	; case 0
  2319  000F88  B4D8               	btfsc	status,2,c
  2320  000F8A  EFC9  F007         	goto	l2361
  2321  000F8E  EFD8  F007         	goto	l323
  2322  000F92                     l2361:
  2323                           
  2324                           ; Switch size 1, requested type "simple"
  2325                           ; Number of cases is 3, Range of values is 0 to 2
  2326                           ; switch strategies available:
  2327                           ; Name         Instructions Cycles
  2328                           ; simple_byte           10     6 (average)
  2329                           ;	Chosen strategy is simple_byte
  2330  000F92  5024               	movf	??_BlinkDigit^0,w,c
  2331  000F94  0A00               	xorlw	0	; case 0
  2332  000F96  B4D8               	btfsc	status,2,c
  2333  000F98  EFAD  F007         	goto	l1319
  2334  000F9C  0A01               	xorlw	1	; case 1
  2335  000F9E  B4D8               	btfsc	status,2,c
  2336  000FA0  EFB3  F007         	goto	l1321
  2337  000FA4  0A03               	xorlw	3	; case 2
  2338  000FA6  B4D8               	btfsc	status,2,c
  2339  000FA8  EFB9  F007         	goto	l1323
  2340  000FAC  EFD8  F007         	goto	l323
  2341  000FB0                     l323:
  2342  000FB0  0012               	return		;funcret
  2343  000FB2                     __end_of_BlinkDigit:
  2344                           	callstack 0
  2345                           
  2346 ;; *************** function _my_isr_routine *****************
  2347 ;; Defined at:
  2348 ;;		line 288 in file "main.c"
  2349 ;; Parameters:    Size  Location     Type
  2350 ;;		None
  2351 ;; Auto vars:     Size  Location     Type
  2352 ;;		None
  2353 ;; Return value:  Size  Location     Type
  2354 ;;                  1    wreg      void 
  2355 ;; Registers used:
  2356 ;;		wreg, status,2, status,0, cstack
  2357 ;; Tracked objects:
  2358 ;;		On entry : 0/0
  2359 ;;		On exit  : 0/0
  2360 ;;		Unchanged: 0/0
  2361 ;; Data sizes:     COMRAM   BANK0   BANK1   BANK2   BANK3   BANK4   BANK5   BANK6   BANK7   BANK8   BANK9  BANK10  BANK1
      +1  BANK12  BANK13  BANK14  BANK15
  2362 ;;      Params:         0       0       0       0       0       0       0       0       0       0       0       0       
      +0       0       0       0       0
  2363 ;;      Locals:         0       0       0       0       0       0       0       0       0       0       0       0       
      +0       0       0       0       0
  2364 ;;      Temps:          2       0       0       0       0       0       0       0       0       0       0       0       
      +0       0       0       0       0
  2365 ;;      Totals:         2       0       0       0       0       0       0       0       0       0       0       0       
      +0       0       0       0       0
  2366 ;;Total ram usage:        2 bytes
  2367 ;; Hardware stack levels used: 1
  2368 ;; Hardware stack levels required when called: 2
  2369 ;; This function calls:
  2370 ;;		_Buzz
  2371 ;;		_ChangeTime
  2372 ;;		_TMR0interruption
  2373 ;;		_TMR1interruption
  2374 ;;		_TMR3interruption
  2375 ;;		i2_AddBCD
  2376 ;;		i2_SubBCD
  2377 ;;		i2_WakeUp
  2378 ;; This function is called by:
  2379 ;;		Interrupt level 2
  2380 ;; This function uses a non-reentrant model
  2381 ;;
  2382                           
  2383                           	psect	intcode
  2384  000008                     __pintcode:
  2385                           	callstack 0
  2386  000008                     _my_isr_routine:
  2387                           	callstack 26
  2388                           
  2389                           ;incstack = 0
  2390  000008  822F               	bsf	int$flags,1,c	;set compiler interrupt flag (level 2)
  2391  00000A  ED09  F000         	call	int_func,f	;refresh shadow registers
  2392                           
  2393                           	psect	intcode_body
  2394  000012                     __pintcode_body:
  2395                           	callstack 26
  2396  000012                     int_func:
  2397                           	callstack 26
  2398  000012  0006               	pop		; remove dummy address from shadow register refresh
  2399  000014                     
  2400                           ;main.c: 291:     TMR0interruption();
  2401  000014  EC63  F007         	call	_TMR0interruption	;wreg free
  2402  000018                     
  2403                           ;main.c: 292:     TMR1interruption();
  2404  000018  EC6E  F008         	call	_TMR1interruption	;wreg free
  2405  00001C                     
  2406                           ;main.c: 293:     TMR3interruption();
  2407  00001C  ECD9  F007         	call	_TMR3interruption	;wreg free
  2408  000020                     
  2409                           ;main.c: 299:     if(INTCONbits.INT0IE == 1 && INTCONbits.INT0IF == 1){
  2410  000020  A8F2               	btfss	242,4,c	;volatile
  2411  000022  EF15  F000         	goto	i2u178_41
  2412  000026  EF17  F000         	goto	i2u178_40
  2413  00002A                     i2u178_41:
  2414  00002A  EF94  F000         	goto	i2l196
  2415  00002E                     i2u178_40:
  2416  00002E  A2F2               	btfss	242,1,c	;volatile
  2417  000030  EF1C  F000         	goto	i2u179_41
  2418  000034  EF1E  F000         	goto	i2u179_40
  2419  000038                     i2u179_41:
  2420  000038  EF94  F000         	goto	i2l196
  2421  00003C                     i2u179_40:
  2422  00003C                     
  2423                           ;main.c: 301:         Buzz();
  2424  00003C  ECC3  F008         	call	_Buzz	;wreg free
  2425                           
  2426                           ;main.c: 303:         switch(State){
  2427  000040  EF5E  F000         	goto	i2l2185
  2428  000044                     i2l2149:
  2429                           
  2430                           ;main.c: 308:                 State = 1;
  2431  000044  0E01               	movlw	1
  2432  000046  6E19               	movwf	_State^0,c
  2433  000048                     
  2434                           ;main.c: 309:                 T0CONbits.TMR0ON = 0;
  2435  000048  9ED5               	bcf	213,7,c	;volatile
  2436  00004A                     
  2437                           ;main.c: 310:                 T1CONbits.TMR1ON = 1;
  2438  00004A  80CD               	bsf	205,0,c	;volatile
  2439                           
  2440                           ;main.c: 312:                 break;
  2441  00004C  EF93  F000         	goto	i2l199
  2442  000050                     i2l2155:
  2443                           
  2444                           ;main.c: 315:                 State = 3;
  2445  000050  0E03               	movlw	3
  2446  000052  6E19               	movwf	_State^0,c
  2447  000054                     
  2448                           ;main.c: 316:                 WakeUp();
  2449  000054  EC16  F007         	call	i2_WakeUp	;wreg free
  2450  000058                     
  2451                           ;main.c: 317:                 T0CONbits.TMR0ON = 1;
  2452  000058  8ED5               	bsf	213,7,c	;volatile
  2453  00005A                     
  2454                           ;main.c: 318:                 T1CONbits.TMR1ON = 0;
  2455  00005A  90CD               	bcf	205,0,c	;volatile
  2456                           
  2457                           ;main.c: 319:                 break;
  2458  00005C  EF93  F000         	goto	i2l199
  2459  000060                     i2l2163:
  2460                           
  2461                           ;main.c: 323:                 WakeUp();
  2462  000060  EC16  F007         	call	i2_WakeUp	;wreg free
  2463  000064                     
  2464                           ;main.c: 324:                 State = 3;
  2465  000064  0E03               	movlw	3
  2466  000066  6E19               	movwf	_State^0,c
  2467                           
  2468                           ;main.c: 326:                 break;
  2469  000068  EF93  F000         	goto	i2l199
  2470  00006C                     i2l202:
  2471                           
  2472                           ;main.c: 329:                 T0CONbits.TMR0ON = 0;
  2473  00006C  9ED5               	bcf	213,7,c	;volatile
  2474                           
  2475                           ;main.c: 330:                 T1CONbits.TMR1ON = 1;
  2476  00006E  80CD               	bsf	205,0,c	;volatile
  2477  000070                     
  2478                           ;main.c: 331:                 State = 4;
  2479  000070  0E04               	movlw	4
  2480  000072  6E19               	movwf	_State^0,c
  2481                           
  2482                           ;main.c: 332:                 break;
  2483  000074  EF93  F000         	goto	i2l199
  2484  000078                     i2l203:
  2485                           
  2486                           ;main.c: 335:                 T0CONbits.TMR0ON = 0;
  2487  000078  9ED5               	bcf	213,7,c	;volatile
  2488                           
  2489                           ;main.c: 336:                 T1CONbits.TMR1ON = 1;
  2490  00007A  80CD               	bsf	205,0,c	;volatile
  2491  00007C                     
  2492                           ;main.c: 337:                 State = 5;
  2493  00007C  0E05               	movlw	5
  2494  00007E  6E19               	movwf	_State^0,c
  2495                           
  2496                           ;main.c: 338:                 break;
  2497  000080  EF93  F000         	goto	i2l199
  2498  000084                     i2l204:
  2499                           
  2500                           ;main.c: 340:                 T0CONbits.TMR0ON = 0;
  2501  000084  9ED5               	bcf	213,7,c	;volatile
  2502                           
  2503                           ;main.c: 341:                 T1CONbits.TMR1ON = 1;
  2504  000086  80CD               	bsf	205,0,c	;volatile
  2505  000088                     
  2506                           ;main.c: 342:                 State = 6;
  2507  000088  0E06               	movlw	6
  2508  00008A  6E19               	movwf	_State^0,c
  2509                           
  2510                           ;main.c: 343:                 break;
  2511  00008C  EF93  F000         	goto	i2l199
  2512  000090                     i2l205:
  2513                           
  2514                           ;main.c: 345:                 T0CONbits.TMR0ON = 0;
  2515  000090  9ED5               	bcf	213,7,c	;volatile
  2516                           
  2517                           ;main.c: 346:                 T1CONbits.TMR1ON = 1;
  2518  000092  80CD               	bsf	205,0,c	;volatile
  2519  000094                     
  2520                           ;main.c: 347:                 State = 7;
  2521  000094  0E07               	movlw	7
  2522  000096  6E19               	movwf	_State^0,c
  2523                           
  2524                           ;main.c: 348:                 break;
  2525  000098  EF93  F000         	goto	i2l199
  2526  00009C                     i2l206:
  2527                           
  2528                           ;main.c: 350:                 T0CONbits.TMR0ON = 0;
  2529  00009C  9ED5               	bcf	213,7,c	;volatile
  2530                           
  2531                           ;main.c: 351:                 T1CONbits.TMR1ON = 1;
  2532  00009E  80CD               	bsf	205,0,c	;volatile
  2533  0000A0                     
  2534                           ;main.c: 352:                 State = 8;
  2535  0000A0  0E08               	movlw	8
  2536  0000A2  6E19               	movwf	_State^0,c
  2537                           
  2538                           ;main.c: 353:                 break;
  2539  0000A4  EF93  F000         	goto	i2l199
  2540  0000A8                     i2l207:
  2541                           
  2542                           ;main.c: 355:                 T0CONbits.TMR0ON = 0;
  2543  0000A8  9ED5               	bcf	213,7,c	;volatile
  2544                           
  2545                           ;main.c: 356:                 T1CONbits.TMR1ON = 1;
  2546  0000AA  80CD               	bsf	205,0,c	;volatile
  2547  0000AC                     
  2548                           ;main.c: 357:                 State = 9;
  2549  0000AC  0E09               	movlw	9
  2550  0000AE  6E19               	movwf	_State^0,c
  2551                           
  2552                           ;main.c: 358:                 break;
  2553  0000B0  EF93  F000         	goto	i2l199
  2554  0000B4                     i2l208:
  2555                           
  2556                           ;main.c: 360:                 T0CONbits.TMR0ON = 1;
  2557  0000B4  8ED5               	bsf	213,7,c	;volatile
  2558                           
  2559                           ;main.c: 361:                 T1CONbits.TMR1ON = 0;
  2560  0000B6  90CD               	bcf	205,0,c	;volatile
  2561  0000B8  EF30  F000         	goto	i2l2163
  2562  0000BC                     i2l2185:
  2563  0000BC  5019               	movf	_State^0,w,c
  2564  0000BE  6E22               	movwf	??_my_isr_routine^0,c
  2565  0000C0  6A23               	clrf	(??_my_isr_routine+1)^0,c
  2566                           
  2567                           ; Switch on 2 bytes has been partitioned into a top level switch of size 1, and 1 sub-sw
      +                          itches
  2568                           ; Switch size 1, requested type "simple"
  2569                           ; Number of cases is 1, Range of values is 0 to 0
  2570                           ; switch strategies available:
  2571                           ; Name         Instructions Cycles
  2572                           ; simple_byte            4     3 (average)
  2573                           ;	Chosen strategy is simple_byte
  2574  0000C2  5023               	movf	(??_my_isr_routine+1)^0,w,c
  2575  0000C4  0A00               	xorlw	0	; case 0
  2576  0000C6  B4D8               	btfsc	status,2,c
  2577  0000C8  EF68  F000         	goto	i2l2363
  2578  0000CC  EF93  F000         	goto	i2l199
  2579  0000D0                     i2l2363:
  2580                           
  2581                           ; Switch size 1, requested type "simple"
  2582                           ; Number of cases is 10, Range of values is 0 to 9
  2583                           ; switch strategies available:
  2584                           ; Name         Instructions Cycles
  2585                           ; simple_byte           31    16 (average)
  2586                           ;	Chosen strategy is simple_byte
  2587  0000D0  5022               	movf	??_my_isr_routine^0,w,c
  2588  0000D2  0A00               	xorlw	0	; case 0
  2589  0000D4  B4D8               	btfsc	status,2,c
  2590  0000D6  EF22  F000         	goto	i2l2149
  2591  0000DA  0A01               	xorlw	1	; case 1
  2592  0000DC  B4D8               	btfsc	status,2,c
  2593  0000DE  EF28  F000         	goto	i2l2155
  2594  0000E2  0A03               	xorlw	3	; case 2
  2595  0000E4  B4D8               	btfsc	status,2,c
  2596  0000E6  EF30  F000         	goto	i2l2163
  2597  0000EA  0A01               	xorlw	1	; case 3
  2598  0000EC  B4D8               	btfsc	status,2,c
  2599  0000EE  EF36  F000         	goto	i2l202
  2600  0000F2  0A07               	xorlw	7	; case 4
  2601  0000F4  B4D8               	btfsc	status,2,c
  2602  0000F6  EF3C  F000         	goto	i2l203
  2603  0000FA  0A01               	xorlw	1	; case 5
  2604  0000FC  B4D8               	btfsc	status,2,c
  2605  0000FE  EF42  F000         	goto	i2l204
  2606  000102  0A03               	xorlw	3	; case 6
  2607  000104  B4D8               	btfsc	status,2,c
  2608  000106  EF48  F000         	goto	i2l205
  2609  00010A  0A01               	xorlw	1	; case 7
  2610  00010C  B4D8               	btfsc	status,2,c
  2611  00010E  EF4E  F000         	goto	i2l206
  2612  000112  0A0F               	xorlw	15	; case 8
  2613  000114  B4D8               	btfsc	status,2,c
  2614  000116  EF54  F000         	goto	i2l207
  2615  00011A  0A01               	xorlw	1	; case 9
  2616  00011C  B4D8               	btfsc	status,2,c
  2617  00011E  EF5A  F000         	goto	i2l208
  2618  000122  EF93  F000         	goto	i2l199
  2619  000126                     i2l199:
  2620                           
  2621                           ;main.c: 367:         INTCONbits.INT0F = 0;
  2622  000126  92F2               	bcf	242,1,c	;volatile
  2623  000128                     i2l196:
  2624                           
  2625                           ;main.c: 371:     if(INTCON3bits.INT1IE == 1 && INTCON3bits.INT1IF == 1){
  2626  000128  A6F0               	btfss	240,3,c	;volatile
  2627  00012A  EF99  F000         	goto	i2u180_41
  2628  00012E  EF9B  F000         	goto	i2u180_40
  2629  000132                     i2u180_41:
  2630  000132  EF9E  F001         	goto	i2l209
  2631  000136                     i2u180_40:
  2632  000136  A0F0               	btfss	240,0,c	;volatile
  2633  000138  EFA0  F000         	goto	i2u181_41
  2634  00013C  EFA2  F000         	goto	i2u181_40
  2635  000140                     i2u181_41:
  2636  000140  EF9E  F001         	goto	i2l209
  2637  000144                     i2u181_40:
  2638  000144                     
  2639                           ;main.c: 373:         Buzz();
  2640  000144  ECC3  F008         	call	_Buzz	;wreg free
  2641                           
  2642                           ;main.c: 376:         switch(State){
  2643  000148  EF68  F001         	goto	i2l2253
  2644  00014C                     i2l2191:
  2645                           
  2646                           ;main.c: 378:                 if(CurrentTime[1] == 0x59) CurrentTime[1] = 0x00;
  2647  00014C  0E59               	movlw	89
  2648  00014E  180B               	xorwf	(_CurrentTime+1)^0,w,c
  2649  000150  A4D8               	btfss	status,2,c
  2650  000152  EFAD  F000         	goto	i2u182_41
  2651  000156  EFAF  F000         	goto	i2u182_40
  2652  00015A                     i2u182_41:
  2653  00015A  EFB3  F000         	goto	i2l2195
  2654  00015E                     i2u182_40:
  2655  00015E  0E00               	movlw	0
  2656  000160  6E0B               	movwf	(_CurrentTime+1)^0,c
  2657  000162  EFB9  F000         	goto	i2l2197
  2658  000166                     i2l2195:
  2659  000166  0E01               	movlw	1
  2660  000168  6E1D               	movwf	i2AddBCD@Number2^0,c
  2661  00016A  500B               	movf	(_CurrentTime+1)^0,w,c
  2662  00016C  EC58  F008         	call	i2_AddBCD
  2663  000170  6E0B               	movwf	(_CurrentTime+1)^0,c
  2664  000172                     i2l2197:
  2665                           
  2666                           ;main.c: 381:                 ChangeTime(0x00, 0x00);
  2667  000172  0E00               	movlw	0
  2668  000174  6E1D               	movwf	ChangeTime@Time^0,c
  2669  000176  0E00               	movlw	0
  2670  000178  EC76  F006         	call	_ChangeTime
  2671  00017C                     
  2672                           ;main.c: 382:                 ChangeTime(0x01, CurrentTime[1]);
  2673  00017C  C00B  F01D         	movff	_CurrentTime+1,ChangeTime@Time
  2674  000180  0E01               	movlw	1
  2675  000182  EC76  F006         	call	_ChangeTime
  2676                           
  2677                           ;main.c: 383:                 break;
  2678  000186  EF9D  F001         	goto	i2l214
  2679  00018A                     i2l2201:
  2680                           
  2681                           ;main.c: 385:                 if(CurrentTime[2] == 0x23) CurrentTime[2] = 0x00;
  2682  00018A  0E23               	movlw	35
  2683  00018C  180C               	xorwf	(_CurrentTime+2)^0,w,c
  2684  00018E  A4D8               	btfss	status,2,c
  2685  000190  EFCC  F000         	goto	i2u183_41
  2686  000194  EFCE  F000         	goto	i2u183_40
  2687  000198                     i2u183_41:
  2688  000198  EFD2  F000         	goto	i2l2205
  2689  00019C                     i2u183_40:
  2690  00019C  0E00               	movlw	0
  2691  00019E  6E0C               	movwf	(_CurrentTime+2)^0,c
  2692  0001A0  EFD8  F000         	goto	i2l2207
  2693  0001A4                     i2l2205:
  2694  0001A4  0E01               	movlw	1
  2695  0001A6  6E1D               	movwf	i2AddBCD@Number2^0,c
  2696  0001A8  500C               	movf	(_CurrentTime+2)^0,w,c
  2697  0001AA  EC58  F008         	call	i2_AddBCD
  2698  0001AE  6E0C               	movwf	(_CurrentTime+2)^0,c
  2699  0001B0                     i2l2207:
  2700                           
  2701                           ;main.c: 388:                 ChangeTime(0x00, 0x00);
  2702  0001B0  0E00               	movlw	0
  2703  0001B2  6E1D               	movwf	ChangeTime@Time^0,c
  2704  0001B4  0E00               	movlw	0
  2705  0001B6  EC76  F006         	call	_ChangeTime
  2706  0001BA                     
  2707                           ;main.c: 389:                 ChangeTime(0x02, CurrentTime[2]);
  2708  0001BA  C00C  F01D         	movff	_CurrentTime+2,ChangeTime@Time
  2709  0001BE  0E02               	movlw	2
  2710  0001C0  EC76  F006         	call	_ChangeTime
  2711                           
  2712                           ;main.c: 390:                 break;
  2713  0001C4  EF9D  F001         	goto	i2l214
  2714  0001C8                     i2l2211:
  2715                           
  2716                           ;main.c: 393:                 WakeUp();
  2717  0001C8  EC16  F007         	call	i2_WakeUp	;wreg free
  2718  0001CC                     
  2719                           ;main.c: 394:                 State = 3;
  2720  0001CC  0E03               	movlw	3
  2721  0001CE  6E19               	movwf	_State^0,c
  2722                           
  2723                           ;main.c: 395:                 break;
  2724  0001D0  EF9D  F001         	goto	i2l214
  2725  0001D4                     i2l2215:
  2726                           
  2727                           ;main.c: 402:                 if(TargetTime[1] == 0x59) TargetTime[1] = 0x00;
  2728  0001D4  0E59               	movlw	89
  2729  0001D6  182D               	xorwf	(_TargetTime+1)^0,w,c
  2730  0001D8  A4D8               	btfss	status,2,c
  2731  0001DA  EFF1  F000         	goto	i2u184_41
  2732  0001DE  EFF3  F000         	goto	i2u184_40
  2733  0001E2                     i2u184_41:
  2734  0001E2  EFF7  F000         	goto	i2l2219
  2735  0001E6                     i2u184_40:
  2736  0001E6  0E00               	movlw	0
  2737  0001E8  6E2D               	movwf	(_TargetTime+1)^0,c
  2738  0001EA  EF9D  F001         	goto	i2l214
  2739  0001EE                     i2l2219:
  2740  0001EE  0E01               	movlw	1
  2741  0001F0  6E1D               	movwf	i2AddBCD@Number2^0,c
  2742  0001F2  502D               	movf	(_TargetTime+1)^0,w,c
  2743  0001F4  EC58  F008         	call	i2_AddBCD
  2744  0001F8  6E2D               	movwf	(_TargetTime+1)^0,c
  2745  0001FA  EF9D  F001         	goto	i2l214
  2746  0001FE                     i2l2221:
  2747                           
  2748                           ;main.c: 407:                 if(TargetTime[2] == 0x23) TargetTime[2] = 0x00;
  2749  0001FE  0E23               	movlw	35
  2750  000200  182E               	xorwf	(_TargetTime+2)^0,w,c
  2751  000202  A4D8               	btfss	status,2,c
  2752  000204  EF06  F001         	goto	i2u185_41
  2753  000208  EF08  F001         	goto	i2u185_40
  2754  00020C                     i2u185_41:
  2755  00020C  EF0C  F001         	goto	i2l2225
  2756  000210                     i2u185_40:
  2757  000210  0E00               	movlw	0
  2758  000212  6E2E               	movwf	(_TargetTime+2)^0,c
  2759  000214  EF9D  F001         	goto	i2l214
  2760  000218                     i2l2225:
  2761  000218  0E01               	movlw	1
  2762  00021A  6E1D               	movwf	i2AddBCD@Number2^0,c
  2763  00021C  502E               	movf	(_TargetTime+2)^0,w,c
  2764  00021E  EC58  F008         	call	i2_AddBCD
  2765  000222  6E2E               	movwf	(_TargetTime+2)^0,c
  2766  000224  EF9D  F001         	goto	i2l214
  2767  000228                     i2l2227:
  2768                           
  2769                           ;main.c: 411:                 if(WateringTime[0] == 0x59) WateringTime[0] = 0x00;
  2770  000228  0E59               	movlw	89
  2771  00022A  1804               	xorwf	_WateringTime^0,w,c
  2772  00022C  A4D8               	btfss	status,2,c
  2773  00022E  EF1B  F001         	goto	i2u186_41
  2774  000232  EF1D  F001         	goto	i2u186_40
  2775  000236                     i2u186_41:
  2776  000236  EF21  F001         	goto	i2l2231
  2777  00023A                     i2u186_40:
  2778  00023A  0E00               	movlw	0
  2779  00023C  6E04               	movwf	_WateringTime^0,c
  2780  00023E  EF9D  F001         	goto	i2l214
  2781  000242                     i2l2231:
  2782  000242  0E01               	movlw	1
  2783  000244  6E1D               	movwf	i2AddBCD@Number2^0,c
  2784  000246  5004               	movf	_WateringTime^0,w,c
  2785  000248  EC58  F008         	call	i2_AddBCD
  2786  00024C  6E04               	movwf	_WateringTime^0,c
  2787  00024E  EF9D  F001         	goto	i2l214
  2788  000252                     i2l2233:
  2789                           
  2790                           ;main.c: 415:                 if(WateringTime[1] == 0x59) WateringTime[1] = 0x00;
  2791  000252  0E59               	movlw	89
  2792  000254  1805               	xorwf	(_WateringTime+1)^0,w,c
  2793  000256  A4D8               	btfss	status,2,c
  2794  000258  EF30  F001         	goto	i2u187_41
  2795  00025C  EF32  F001         	goto	i2u187_40
  2796  000260                     i2u187_41:
  2797  000260  EF36  F001         	goto	i2l2237
  2798  000264                     i2u187_40:
  2799  000264  0E00               	movlw	0
  2800  000266  6E05               	movwf	(_WateringTime+1)^0,c
  2801  000268  EF9D  F001         	goto	i2l214
  2802  00026C                     i2l2237:
  2803  00026C  0E01               	movlw	1
  2804  00026E  6E1D               	movwf	i2AddBCD@Number2^0,c
  2805  000270  5005               	movf	(_WateringTime+1)^0,w,c
  2806  000272  EC58  F008         	call	i2_AddBCD
  2807  000276  6E05               	movwf	(_WateringTime+1)^0,c
  2808  000278  EF9D  F001         	goto	i2l214
  2809  00027C                     i2l2239:
  2810                           
  2811                           ;main.c: 419:                 if(ValveTime[0] == 0x59) ValveTime[0] = 0x00;
  2812  00027C  0E59               	movlw	89
  2813  00027E  1801               	xorwf	_ValveTime^0,w,c
  2814  000280  A4D8               	btfss	status,2,c
  2815  000282  EF45  F001         	goto	i2u188_41
  2816  000286  EF47  F001         	goto	i2u188_40
  2817  00028A                     i2u188_41:
  2818  00028A  EF4B  F001         	goto	i2l2243
  2819  00028E                     i2u188_40:
  2820  00028E  0E00               	movlw	0
  2821  000290  6E01               	movwf	_ValveTime^0,c
  2822  000292  EF9D  F001         	goto	i2l214
  2823  000296                     i2l2243:
  2824  000296  0E01               	movlw	1
  2825  000298  6E1D               	movwf	i2AddBCD@Number2^0,c
  2826  00029A  5001               	movf	_ValveTime^0,w,c
  2827  00029C  EC58  F008         	call	i2_AddBCD
  2828  0002A0  6E01               	movwf	_ValveTime^0,c
  2829  0002A2  EF9D  F001         	goto	i2l214
  2830  0002A6                     i2l2245:
  2831                           
  2832                           ;main.c: 423:                 if(ValveTime[1] == 0x59) ValveTime[1] = 0x00;
  2833  0002A6  0E59               	movlw	89
  2834  0002A8  1802               	xorwf	(_ValveTime+1)^0,w,c
  2835  0002AA  A4D8               	btfss	status,2,c
  2836  0002AC  EF5A  F001         	goto	i2u189_41
  2837  0002B0  EF5C  F001         	goto	i2u189_40
  2838  0002B4                     i2u189_41:
  2839  0002B4  EF60  F001         	goto	i2l2249
  2840  0002B8                     i2u189_40:
  2841  0002B8  0E00               	movlw	0
  2842  0002BA  6E02               	movwf	(_ValveTime+1)^0,c
  2843  0002BC  EF9D  F001         	goto	i2l214
  2844  0002C0                     i2l2249:
  2845  0002C0  0E01               	movlw	1
  2846  0002C2  6E1D               	movwf	i2AddBCD@Number2^0,c
  2847  0002C4  5002               	movf	(_ValveTime+1)^0,w,c
  2848  0002C6  EC58  F008         	call	i2_AddBCD
  2849  0002CA  6E02               	movwf	(_ValveTime+1)^0,c
  2850  0002CC  EF9D  F001         	goto	i2l214
  2851  0002D0                     i2l2253:
  2852  0002D0  5019               	movf	_State^0,w,c
  2853  0002D2  6E22               	movwf	??_my_isr_routine^0,c
  2854  0002D4  6A23               	clrf	(??_my_isr_routine+1)^0,c
  2855                           
  2856                           ; Switch on 2 bytes has been partitioned into a top level switch of size 1, and 1 sub-sw
      +                          itches
  2857                           ; Switch size 1, requested type "simple"
  2858                           ; Number of cases is 1, Range of values is 0 to 0
  2859                           ; switch strategies available:
  2860                           ; Name         Instructions Cycles
  2861                           ; simple_byte            4     3 (average)
  2862                           ;	Chosen strategy is simple_byte
  2863  0002D6  5023               	movf	(??_my_isr_routine+1)^0,w,c
  2864  0002D8  0A00               	xorlw	0	; case 0
  2865  0002DA  B4D8               	btfsc	status,2,c
  2866  0002DC  EF72  F001         	goto	i2l2365
  2867  0002E0  EF9D  F001         	goto	i2l214
  2868  0002E4                     i2l2365:
  2869                           
  2870                           ; Switch size 1, requested type "simple"
  2871                           ; Number of cases is 10, Range of values is 0 to 9
  2872                           ; switch strategies available:
  2873                           ; Name         Instructions Cycles
  2874                           ; simple_byte           31    16 (average)
  2875                           ;	Chosen strategy is simple_byte
  2876  0002E4  5022               	movf	??_my_isr_routine^0,w,c
  2877  0002E6  0A00               	xorlw	0	; case 0
  2878  0002E8  B4D8               	btfsc	status,2,c
  2879  0002EA  EFA6  F000         	goto	i2l2191
  2880  0002EE  0A01               	xorlw	1	; case 1
  2881  0002F0  B4D8               	btfsc	status,2,c
  2882  0002F2  EFC5  F000         	goto	i2l2201
  2883  0002F6  0A03               	xorlw	3	; case 2
  2884  0002F8  B4D8               	btfsc	status,2,c
  2885  0002FA  EFE4  F000         	goto	i2l2211
  2886  0002FE  0A01               	xorlw	1	; case 3
  2887  000300  B4D8               	btfsc	status,2,c
  2888  000302  EF9D  F001         	goto	i2l214
  2889  000306  0A07               	xorlw	7	; case 4
  2890  000308  B4D8               	btfsc	status,2,c
  2891  00030A  EFEA  F000         	goto	i2l2215
  2892  00030E  0A01               	xorlw	1	; case 5
  2893  000310  B4D8               	btfsc	status,2,c
  2894  000312  EFFF  F000         	goto	i2l2221
  2895  000316  0A03               	xorlw	3	; case 6
  2896  000318  B4D8               	btfsc	status,2,c
  2897  00031A  EF14  F001         	goto	i2l2227
  2898  00031E  0A01               	xorlw	1	; case 7
  2899  000320  B4D8               	btfsc	status,2,c
  2900  000322  EF29  F001         	goto	i2l2233
  2901  000326  0A0F               	xorlw	15	; case 8
  2902  000328  B4D8               	btfsc	status,2,c
  2903  00032A  EF3E  F001         	goto	i2l2239
  2904  00032E  0A01               	xorlw	1	; case 9
  2905  000330  B4D8               	btfsc	status,2,c
  2906  000332  EF53  F001         	goto	i2l2245
  2907  000336  EF9D  F001         	goto	i2l214
  2908  00033A                     i2l214:
  2909                           
  2910                           ;main.c: 428:         INTCON3bits.INT1IF = 0;
  2911  00033A  90F0               	bcf	240,0,c	;volatile
  2912  00033C                     i2l209:
  2913                           
  2914                           ;main.c: 432:     if(INTCON3bits.INT2IE == 1 && INTCON3bits.INT2IF == 1){
  2915  00033C  A8F0               	btfss	240,4,c	;volatile
  2916  00033E  EFA3  F001         	goto	i2u190_41
  2917  000342  EFA5  F001         	goto	i2u190_40
  2918  000346                     i2u190_41:
  2919  000346  EFA0  F002         	goto	i2l267
  2920  00034A                     i2u190_40:
  2921  00034A  A2F0               	btfss	240,1,c	;volatile
  2922  00034C  EFAA  F001         	goto	i2u191_41
  2923  000350  EFAC  F001         	goto	i2u191_40
  2924  000354                     i2u191_41:
  2925  000354  EFA0  F002         	goto	i2l267
  2926  000358                     i2u191_40:
  2927  000358                     
  2928                           ;main.c: 434:         Buzz();
  2929  000358  ECC3  F008         	call	_Buzz	;wreg free
  2930                           
  2931                           ;main.c: 437:         switch(State){
  2932  00035C  EF6A  F002         	goto	i2l2321
  2933  000360                     i2l2259:
  2934                           
  2935                           ;main.c: 440:                 if(CurrentTime[1] == 0x00) CurrentTime[1] = 0x59;
  2936  000360  500B               	movf	(_CurrentTime+1)^0,w,c
  2937  000362  A4D8               	btfss	status,2,c
  2938  000364  EFB6  F001         	goto	i2u192_41
  2939  000368  EFB8  F001         	goto	i2u192_40
  2940  00036C                     i2u192_41:
  2941  00036C  EFBC  F001         	goto	i2l2263
  2942  000370                     i2u192_40:
  2943  000370  0E59               	movlw	89
  2944  000372  6E0B               	movwf	(_CurrentTime+1)^0,c
  2945  000374  EFC2  F001         	goto	i2l2265
  2946  000378                     i2l2263:
  2947  000378  0E01               	movlw	1
  2948  00037A  6E1D               	movwf	i2SubBCD@Number2^0,c
  2949  00037C  500B               	movf	(_CurrentTime+1)^0,w,c
  2950  00037E  EC42  F008         	call	i2_SubBCD
  2951  000382  6E0B               	movwf	(_CurrentTime+1)^0,c
  2952  000384                     i2l2265:
  2953                           
  2954                           ;main.c: 443:                 ChangeTime(0x00, 0x00);
  2955  000384  0E00               	movlw	0
  2956  000386  6E1D               	movwf	ChangeTime@Time^0,c
  2957  000388  0E00               	movlw	0
  2958  00038A  EC76  F006         	call	_ChangeTime
  2959  00038E                     
  2960                           ;main.c: 444:                 ChangeTime(0x01, CurrentTime[1]);
  2961  00038E  C00B  F01D         	movff	_CurrentTime+1,ChangeTime@Time
  2962  000392  0E01               	movlw	1
  2963  000394  EC76  F006         	call	_ChangeTime
  2964                           
  2965                           ;main.c: 445:                 break;
  2966  000398  EF9F  F002         	goto	i2l243
  2967  00039C                     i2l2269:
  2968                           
  2969                           ;main.c: 447:                 if(CurrentTime[2] == 0x00) CurrentTime[2] = 0x23;
  2970  00039C  500C               	movf	(_CurrentTime+2)^0,w,c
  2971  00039E  A4D8               	btfss	status,2,c
  2972  0003A0  EFD4  F001         	goto	i2u193_41
  2973  0003A4  EFD6  F001         	goto	i2u193_40
  2974  0003A8                     i2u193_41:
  2975  0003A8  EFDA  F001         	goto	i2l2273
  2976  0003AC                     i2u193_40:
  2977  0003AC  0E23               	movlw	35
  2978  0003AE  6E0C               	movwf	(_CurrentTime+2)^0,c
  2979  0003B0  EFE0  F001         	goto	i2l2275
  2980  0003B4                     i2l2273:
  2981  0003B4  0E01               	movlw	1
  2982  0003B6  6E1D               	movwf	i2SubBCD@Number2^0,c
  2983  0003B8  500C               	movf	(_CurrentTime+2)^0,w,c
  2984  0003BA  EC42  F008         	call	i2_SubBCD
  2985  0003BE  6E0C               	movwf	(_CurrentTime+2)^0,c
  2986  0003C0                     i2l2275:
  2987                           
  2988                           ;main.c: 450:                 ChangeTime(0x00, 0x00);
  2989  0003C0  0E00               	movlw	0
  2990  0003C2  6E1D               	movwf	ChangeTime@Time^0,c
  2991  0003C4  0E00               	movlw	0
  2992  0003C6  EC76  F006         	call	_ChangeTime
  2993  0003CA                     
  2994                           ;main.c: 451:                 ChangeTime(0x02, CurrentTime[2]);
  2995  0003CA  C00C  F01D         	movff	_CurrentTime+2,ChangeTime@Time
  2996  0003CE  0E02               	movlw	2
  2997  0003D0  EC76  F006         	call	_ChangeTime
  2998                           
  2999                           ;main.c: 452:                 break;
  3000  0003D4  EF9F  F002         	goto	i2l243
  3001  0003D8                     i2l2279:
  3002                           
  3003                           ;main.c: 456:                 WakeUp();
  3004  0003D8  EC16  F007         	call	i2_WakeUp	;wreg free
  3005  0003DC                     
  3006                           ;main.c: 458:                 State = 3;
  3007  0003DC  0E03               	movlw	3
  3008  0003DE  6E19               	movwf	_State^0,c
  3009                           
  3010                           ;main.c: 460:                 break;
  3011  0003E0  EF9F  F002         	goto	i2l243
  3012  0003E4                     i2l2283:
  3013                           
  3014                           ;main.c: 467:                 if(TargetTime[1] == 0x00) TargetTime[1] = 0x59;
  3015  0003E4  502D               	movf	(_TargetTime+1)^0,w,c
  3016  0003E6  A4D8               	btfss	status,2,c
  3017  0003E8  EFF8  F001         	goto	i2u194_41
  3018  0003EC  EFFA  F001         	goto	i2u194_40
  3019  0003F0                     i2u194_41:
  3020  0003F0  EFFE  F001         	goto	i2l2287
  3021  0003F4                     i2u194_40:
  3022  0003F4  0E59               	movlw	89
  3023  0003F6  6E2D               	movwf	(_TargetTime+1)^0,c
  3024  0003F8  EF9F  F002         	goto	i2l243
  3025  0003FC                     i2l2287:
  3026  0003FC  0E01               	movlw	1
  3027  0003FE  6E1D               	movwf	i2SubBCD@Number2^0,c
  3028  000400  502D               	movf	(_TargetTime+1)^0,w,c
  3029  000402  EC42  F008         	call	i2_SubBCD
  3030  000406  6E2D               	movwf	(_TargetTime+1)^0,c
  3031  000408  EF9F  F002         	goto	i2l243
  3032  00040C                     i2l2289:
  3033                           
  3034                           ;main.c: 472:                 if(TargetTime[2] == 0x00) TargetTime[2] = 0x23;
  3035  00040C  502E               	movf	(_TargetTime+2)^0,w,c
  3036  00040E  A4D8               	btfss	status,2,c
  3037  000410  EF0C  F002         	goto	i2u195_41
  3038  000414  EF0E  F002         	goto	i2u195_40
  3039  000418                     i2u195_41:
  3040  000418  EF12  F002         	goto	i2l2293
  3041  00041C                     i2u195_40:
  3042  00041C  0E23               	movlw	35
  3043  00041E  6E2E               	movwf	(_TargetTime+2)^0,c
  3044  000420  EF9F  F002         	goto	i2l243
  3045  000424                     i2l2293:
  3046  000424  0E01               	movlw	1
  3047  000426  6E1D               	movwf	i2SubBCD@Number2^0,c
  3048  000428  502E               	movf	(_TargetTime+2)^0,w,c
  3049  00042A  EC42  F008         	call	i2_SubBCD
  3050  00042E  6E2E               	movwf	(_TargetTime+2)^0,c
  3051  000430  EF9F  F002         	goto	i2l243
  3052  000434                     i2l2295:
  3053                           
  3054                           ;main.c: 476:                 if(WateringTime[0] == 0x00) WateringTime[0] = 0x59;
  3055  000434  5004               	movf	_WateringTime^0,w,c
  3056  000436  A4D8               	btfss	status,2,c
  3057  000438  EF20  F002         	goto	i2u196_41
  3058  00043C  EF22  F002         	goto	i2u196_40
  3059  000440                     i2u196_41:
  3060  000440  EF26  F002         	goto	i2l2299
  3061  000444                     i2u196_40:
  3062  000444  0E59               	movlw	89
  3063  000446  6E04               	movwf	_WateringTime^0,c
  3064  000448  EF9F  F002         	goto	i2l243
  3065  00044C                     i2l2299:
  3066  00044C  0E01               	movlw	1
  3067  00044E  6E1D               	movwf	i2SubBCD@Number2^0,c
  3068  000450  5004               	movf	_WateringTime^0,w,c
  3069  000452  EC42  F008         	call	i2_SubBCD
  3070  000456  6E04               	movwf	_WateringTime^0,c
  3071  000458  EF9F  F002         	goto	i2l243
  3072  00045C                     i2l2301:
  3073                           
  3074                           ;main.c: 481:                 if(WateringTime[1] == 0x00) WateringTime[1] = 0x59;
  3075  00045C  5005               	movf	(_WateringTime+1)^0,w,c
  3076  00045E  A4D8               	btfss	status,2,c
  3077  000460  EF34  F002         	goto	i2u197_41
  3078  000464  EF36  F002         	goto	i2u197_40
  3079  000468                     i2u197_41:
  3080  000468  EF3A  F002         	goto	i2l2305
  3081  00046C                     i2u197_40:
  3082  00046C  0E59               	movlw	89
  3083  00046E  6E05               	movwf	(_WateringTime+1)^0,c
  3084  000470  EF9F  F002         	goto	i2l243
  3085  000474                     i2l2305:
  3086  000474  0E01               	movlw	1
  3087  000476  6E1D               	movwf	i2SubBCD@Number2^0,c
  3088  000478  5005               	movf	(_WateringTime+1)^0,w,c
  3089  00047A  EC42  F008         	call	i2_SubBCD
  3090  00047E  6E05               	movwf	(_WateringTime+1)^0,c
  3091  000480  EF9F  F002         	goto	i2l243
  3092  000484                     i2l2307:
  3093                           
  3094                           ;main.c: 486:                 if(ValveTime[0] == 0x00) ValveTime[0] = 0x59;
  3095  000484  5001               	movf	_ValveTime^0,w,c
  3096  000486  A4D8               	btfss	status,2,c
  3097  000488  EF48  F002         	goto	i2u198_41
  3098  00048C  EF4A  F002         	goto	i2u198_40
  3099  000490                     i2u198_41:
  3100  000490  EF4E  F002         	goto	i2l2311
  3101  000494                     i2u198_40:
  3102  000494  0E59               	movlw	89
  3103  000496  6E01               	movwf	_ValveTime^0,c
  3104  000498  EF9F  F002         	goto	i2l243
  3105  00049C                     i2l2311:
  3106  00049C  0E01               	movlw	1
  3107  00049E  6E1D               	movwf	i2SubBCD@Number2^0,c
  3108  0004A0  5001               	movf	_ValveTime^0,w,c
  3109  0004A2  EC42  F008         	call	i2_SubBCD
  3110  0004A6  6E01               	movwf	_ValveTime^0,c
  3111  0004A8  EF9F  F002         	goto	i2l243
  3112  0004AC                     i2l2313:
  3113                           
  3114                           ;main.c: 491:                 if(ValveTime[1] == 0x00) ValveTime[1] = 0x59;
  3115  0004AC  5002               	movf	(_ValveTime+1)^0,w,c
  3116  0004AE  A4D8               	btfss	status,2,c
  3117  0004B0  EF5C  F002         	goto	i2u199_41
  3118  0004B4  EF5E  F002         	goto	i2u199_40
  3119  0004B8                     i2u199_41:
  3120  0004B8  EF62  F002         	goto	i2l2317
  3121  0004BC                     i2u199_40:
  3122  0004BC  0E59               	movlw	89
  3123  0004BE  6E02               	movwf	(_ValveTime+1)^0,c
  3124  0004C0  EF9F  F002         	goto	i2l243
  3125  0004C4                     i2l2317:
  3126  0004C4  0E01               	movlw	1
  3127  0004C6  6E1D               	movwf	i2SubBCD@Number2^0,c
  3128  0004C8  5002               	movf	(_ValveTime+1)^0,w,c
  3129  0004CA  EC42  F008         	call	i2_SubBCD
  3130  0004CE  6E02               	movwf	(_ValveTime+1)^0,c
  3131  0004D0  EF9F  F002         	goto	i2l243
  3132  0004D4                     i2l2321:
  3133  0004D4  5019               	movf	_State^0,w,c
  3134  0004D6  6E22               	movwf	??_my_isr_routine^0,c
  3135  0004D8  6A23               	clrf	(??_my_isr_routine+1)^0,c
  3136                           
  3137                           ; Switch on 2 bytes has been partitioned into a top level switch of size 1, and 1 sub-sw
      +                          itches
  3138                           ; Switch size 1, requested type "simple"
  3139                           ; Number of cases is 1, Range of values is 0 to 0
  3140                           ; switch strategies available:
  3141                           ; Name         Instructions Cycles
  3142                           ; simple_byte            4     3 (average)
  3143                           ;	Chosen strategy is simple_byte
  3144  0004DA  5023               	movf	(??_my_isr_routine+1)^0,w,c
  3145  0004DC  0A00               	xorlw	0	; case 0
  3146  0004DE  B4D8               	btfsc	status,2,c
  3147  0004E0  EF74  F002         	goto	i2l2367
  3148  0004E4  EF9F  F002         	goto	i2l243
  3149  0004E8                     i2l2367:
  3150                           
  3151                           ; Switch size 1, requested type "simple"
  3152                           ; Number of cases is 10, Range of values is 0 to 9
  3153                           ; switch strategies available:
  3154                           ; Name         Instructions Cycles
  3155                           ; simple_byte           31    16 (average)
  3156                           ;	Chosen strategy is simple_byte
  3157  0004E8  5022               	movf	??_my_isr_routine^0,w,c
  3158  0004EA  0A00               	xorlw	0	; case 0
  3159  0004EC  B4D8               	btfsc	status,2,c
  3160  0004EE  EFB0  F001         	goto	i2l2259
  3161  0004F2  0A01               	xorlw	1	; case 1
  3162  0004F4  B4D8               	btfsc	status,2,c
  3163  0004F6  EFCE  F001         	goto	i2l2269
  3164  0004FA  0A03               	xorlw	3	; case 2
  3165  0004FC  B4D8               	btfsc	status,2,c
  3166  0004FE  EFEC  F001         	goto	i2l2279
  3167  000502  0A01               	xorlw	1	; case 3
  3168  000504  B4D8               	btfsc	status,2,c
  3169  000506  EF9F  F002         	goto	i2l243
  3170  00050A  0A07               	xorlw	7	; case 4
  3171  00050C  B4D8               	btfsc	status,2,c
  3172  00050E  EFF2  F001         	goto	i2l2283
  3173  000512  0A01               	xorlw	1	; case 5
  3174  000514  B4D8               	btfsc	status,2,c
  3175  000516  EF06  F002         	goto	i2l2289
  3176  00051A  0A03               	xorlw	3	; case 6
  3177  00051C  B4D8               	btfsc	status,2,c
  3178  00051E  EF1A  F002         	goto	i2l2295
  3179  000522  0A01               	xorlw	1	; case 7
  3180  000524  B4D8               	btfsc	status,2,c
  3181  000526  EF2E  F002         	goto	i2l2301
  3182  00052A  0A0F               	xorlw	15	; case 8
  3183  00052C  B4D8               	btfsc	status,2,c
  3184  00052E  EF42  F002         	goto	i2l2307
  3185  000532  0A01               	xorlw	1	; case 9
  3186  000534  B4D8               	btfsc	status,2,c
  3187  000536  EF56  F002         	goto	i2l2313
  3188  00053A  EF9F  F002         	goto	i2l243
  3189  00053E                     i2l243:
  3190                           
  3191                           ;main.c: 496:         INTCON3bits.INT2IF = 0;
  3192  00053E  92F0               	bcf	240,1,c	;volatile
  3193  000540                     i2l267:
  3194  000540  922F               	bcf	int$flags,1,c	;clear compiler interrupt flag (level 2)
  3195  000542  0011               	retfie		f
  3196  000544                     __end_of_my_isr_routine:
  3197                           	callstack 0
  3198                           
  3199 ;; *************** function i2_WakeUp *****************
  3200 ;; Defined at:
  3201 ;;		line 657 in file "main.c"
  3202 ;; Parameters:    Size  Location     Type
  3203 ;;		None
  3204 ;; Auto vars:     Size  Location     Type
  3205 ;;		None
  3206 ;; Return value:  Size  Location     Type
  3207 ;;                  1    wreg      void 
  3208 ;; Registers used:
  3209 ;;		wreg, status,2, status,0, cstack
  3210 ;; Tracked objects:
  3211 ;;		On entry : 0/0
  3212 ;;		On exit  : 0/0
  3213 ;;		Unchanged: 0/0
  3214 ;; Data sizes:     COMRAM   BANK0   BANK1   BANK2   BANK3   BANK4   BANK5   BANK6   BANK7   BANK8   BANK9  BANK10  BANK1
      +1  BANK12  BANK13  BANK14  BANK15
  3215 ;;      Params:         0       0       0       0       0       0       0       0       0       0       0       0       
      +0       0       0       0       0
  3216 ;;      Locals:         0       0       0       0       0       0       0       0       0       0       0       0       
      +0       0       0       0       0
  3217 ;;      Temps:          1       0       0       0       0       0       0       0       0       0       0       0       
      +0       0       0       0       0
  3218 ;;      Totals:         1       0       0       0       0       0       0       0       0       0       0       0       
      +0       0       0       0       0
  3219 ;;Total ram usage:        1 bytes
  3220 ;; Hardware stack levels used: 1
  3221 ;; Hardware stack levels required when called: 1
  3222 ;; This function calls:
  3223 ;;		i2_AddBCD
  3224 ;;		i2_SubBCD
  3225 ;;		i2_UpdateCurrentTime
  3226 ;; This function is called by:
  3227 ;;		_my_isr_routine
  3228 ;; This function uses a non-reentrant model
  3229 ;;
  3230                           
  3231                           	psect	text15
  3232  000E2C                     __ptext15:
  3233                           	callstack 0
  3234  000E2C                     i2_WakeUp:
  3235                           	callstack 26
  3236  000E2C                     
  3237                           ;main.c: 658:     UpdateCurrentTime();
  3238  000E2C  EC45  F005         	call	i2_UpdateCurrentTime	;wreg free
  3239  000E30                     
  3240                           ;main.c: 660:     if (AddBCD(CurrentTime[1], 0x02) > 0x59) {
  3241  000E30  0E02               	movlw	2
  3242  000E32  6E1D               	movwf	i2AddBCD@Number2^0,c
  3243  000E34  500B               	movf	(_CurrentTime+1)^0,w,c
  3244  000E36  EC58  F008         	call	i2_AddBCD
  3245  000E3A  6E21               	movwf	??i2_WakeUp^0,c
  3246  000E3C  0E59               	movlw	89
  3247  000E3E  6421               	cpfsgt	??i2_WakeUp^0,c
  3248  000E40  EF24  F007         	goto	i2u153_41
  3249  000E44  EF26  F007         	goto	i2u153_40
  3250  000E48                     i2u153_41:
  3251  000E48  EF58  F007         	goto	i2l311
  3252  000E4C                     i2u153_40:
  3253  000E4C                     
  3254                           ;main.c: 661:         if(AddBCD(CurrentTime[1], 0x01) > 0x23){
  3255  000E4C  0E01               	movlw	1
  3256  000E4E  6E1D               	movwf	i2AddBCD@Number2^0,c
  3257  000E50  500B               	movf	(_CurrentTime+1)^0,w,c
  3258  000E52  EC58  F008         	call	i2_AddBCD
  3259  000E56  6E21               	movwf	??i2_WakeUp^0,c
  3260  000E58  0E23               	movlw	35
  3261  000E5A  6421               	cpfsgt	??i2_WakeUp^0,c
  3262  000E5C  EF32  F007         	goto	i2u154_41
  3263  000E60  EF34  F007         	goto	i2u154_40
  3264  000E64                     i2u154_41:
  3265  000E64  EF44  F007         	goto	i2l1969
  3266  000E68                     i2u154_40:
  3267  000E68                     
  3268                           ;main.c: 662:             WakeUpTime[2] = 0x00;
  3269  000E68  0E00               	movlw	0
  3270  000E6A  6E09               	movwf	(_WakeUpTime+2)^0,c
  3271  000E6C                     
  3272                           ;main.c: 663:             WakeUpTime[1] = AddBCD(CurrentTime[1], 0x02);
  3273  000E6C  0E02               	movlw	2
  3274  000E6E  6E1D               	movwf	i2AddBCD@Number2^0,c
  3275  000E70  500B               	movf	(_CurrentTime+1)^0,w,c
  3276  000E72  EC58  F008         	call	i2_AddBCD
  3277  000E76  6E08               	movwf	(_WakeUpTime+1)^0,c
  3278  000E78                     
  3279                           ;main.c: 664:             WakeUpTime[1] = SubBCD(CurrentTime[1], 0x60);
  3280  000E78  0E60               	movlw	96
  3281  000E7A  6E1D               	movwf	i2SubBCD@Number2^0,c
  3282  000E7C  500B               	movf	(_CurrentTime+1)^0,w,c
  3283  000E7E  EC42  F008         	call	i2_SubBCD
  3284  000E82  6E08               	movwf	(_WakeUpTime+1)^0,c
  3285                           
  3286                           ;main.c: 665:         }else{
  3287  000E84  EF60  F007         	goto	i2l1973
  3288  000E88                     i2l1969:
  3289                           
  3290                           ;main.c: 666:             WakeUpTime[2] = AddBCD(CurrentTime[2], 0x01);
  3291  000E88  0E01               	movlw	1
  3292  000E8A  6E1D               	movwf	i2AddBCD@Number2^0,c
  3293  000E8C  500C               	movf	(_CurrentTime+2)^0,w,c
  3294  000E8E  EC58  F008         	call	i2_AddBCD
  3295  000E92  6E09               	movwf	(_WakeUpTime+2)^0,c
  3296                           
  3297                           ;main.c: 667:             WakeUpTime[1] = AddBCD(CurrentTime[1], 0x02);
  3298  000E94  0E02               	movlw	2
  3299  000E96  6E1D               	movwf	i2AddBCD@Number2^0,c
  3300  000E98  500B               	movf	(_CurrentTime+1)^0,w,c
  3301  000E9A  EC58  F008         	call	i2_AddBCD
  3302  000E9E  6E08               	movwf	(_WakeUpTime+1)^0,c
  3303                           
  3304                           ;main.c: 668:             WakeUpTime[1] = SubBCD(CurrentTime[1], 0x60);
  3305  000EA0  0E60               	movlw	96
  3306  000EA2  6E1D               	movwf	i2SubBCD@Number2^0,c
  3307  000EA4  500B               	movf	(_CurrentTime+1)^0,w,c
  3308  000EA6  EC42  F008         	call	i2_SubBCD
  3309  000EAA  6E08               	movwf	(_WakeUpTime+1)^0,c
  3310  000EAC  EF60  F007         	goto	i2l1973
  3311  000EB0                     i2l311:
  3312                           
  3313                           ;main.c: 671:         WakeUpTime[2] = CurrentTime[2];
  3314  000EB0  C00C  F009         	movff	_CurrentTime+2,_WakeUpTime+2
  3315  000EB4                     
  3316                           ;main.c: 672:         WakeUpTime[1] = AddBCD(CurrentTime[1], 0x02);
  3317  000EB4  0E02               	movlw	2
  3318  000EB6  6E1D               	movwf	i2AddBCD@Number2^0,c
  3319  000EB8  500B               	movf	(_CurrentTime+1)^0,w,c
  3320  000EBA  EC58  F008         	call	i2_AddBCD
  3321  000EBE  6E08               	movwf	(_WakeUpTime+1)^0,c
  3322  000EC0                     i2l1973:
  3323                           
  3324                           ;main.c: 674:     UpdateTimeFlag = 1;
  3325  000EC0  0E01               	movlw	1
  3326  000EC2  6E18               	movwf	_UpdateTimeFlag^0,c
  3327  000EC4  0012               	return		;funcret
  3328  000EC6                     __end_ofi2_WakeUp:
  3329                           	callstack 0
  3330                           
  3331 ;; *************** function i2_SubBCD *****************
  3332 ;; Defined at:
  3333 ;;		line 703 in file "main.c"
  3334 ;; Parameters:    Size  Location     Type
  3335 ;;  Number1         1    wreg     unsigned char 
  3336 ;;  Number2         1    0[COMRAM] unsigned char 
  3337 ;; Auto vars:     Size  Location     Type
  3338 ;;  Number1         1    2[COMRAM] unsigned char 
  3339 ;;  temp            1    3[COMRAM] unsigned char 
  3340 ;; Return value:  Size  Location     Type
  3341 ;;                  1    wreg      unsigned char 
  3342 ;; Registers used:
  3343 ;;		wreg, status,2, status,0
  3344 ;; Tracked objects:
  3345 ;;		On entry : 0/0
  3346 ;;		On exit  : 0/0
  3347 ;;		Unchanged: 0/0
  3348 ;; Data sizes:     COMRAM   BANK0   BANK1   BANK2   BANK3   BANK4   BANK5   BANK6   BANK7   BANK8   BANK9  BANK10  BANK1
      +1  BANK12  BANK13  BANK14  BANK15
  3349 ;;      Params:         1       0       0       0       0       0       0       0       0       0       0       0       
      +0       0       0       0       0
  3350 ;;      Locals:         2       0       0       0       0       0       0       0       0       0       0       0       
      +0       0       0       0       0
  3351 ;;      Temps:          1       0       0       0       0       0       0       0       0       0       0       0       
      +0       0       0       0       0
  3352 ;;      Totals:         4       0       0       0       0       0       0       0       0       0       0       0       
      +0       0       0       0       0
  3353 ;;Total ram usage:        4 bytes
  3354 ;; Hardware stack levels used: 1
  3355 ;; This function calls:
  3356 ;;		Nothing
  3357 ;; This function is called by:
  3358 ;;		_my_isr_routine
  3359 ;;		i2_WakeUp
  3360 ;; This function uses a non-reentrant model
  3361 ;;
  3362                           
  3363                           	psect	text16
  3364  001084                     __ptext16:
  3365                           	callstack 0
  3366  001084                     i2_SubBCD:
  3367                           	callstack 26
  3368                           
  3369                           ;incstack = 0
  3370                           ;i2SubBCD@Number1 stored from wreg
  3371  001084  6E1F               	movwf	i2SubBCD@Number1^0,c
  3372  001086                     
  3373                           ;main.c: 704:     char temp = Number1 - Number2;
  3374  001086  501D               	movf	i2SubBCD@Number2^0,w,c
  3375  001088  5C1F               	subwf	i2SubBCD@Number1^0,w,c
  3376  00108A  6E20               	movwf	i2SubBCD@temp^0,c
  3377                           
  3378                           ;main.c: 706:     if ((temp & 0x0F) > 9) return temp - 0x06;
  3379  00108C  C020  F01E         	movff	i2SubBCD@temp,??i2_SubBCD
  3380  001090  0E0F               	movlw	15
  3381  001092  161E               	andwf	??i2_SubBCD^0,f,c
  3382  001094  0E09               	movlw	9
  3383  001096  641E               	cpfsgt	??i2_SubBCD^0,c
  3384  001098  EF50  F008         	goto	i2u141_41
  3385  00109C  EF52  F008         	goto	i2u141_40
  3386  0010A0                     i2u141_41:
  3387  0010A0  EF56  F008         	goto	i2l1923
  3388  0010A4                     i2u141_40:
  3389  0010A4  5020               	movf	i2SubBCD@temp^0,w,c
  3390  0010A6  0FFA               	addlw	250
  3391  0010A8  EF57  F008         	goto	i2l332
  3392  0010AC                     i2l1923:
  3393  0010AC  5020               	movf	i2SubBCD@temp^0,w,c
  3394  0010AE                     i2l332:
  3395  0010AE  0012               	return		;funcret
  3396  0010B0                     __end_ofi2_SubBCD:
  3397                           	callstack 0
  3398                           
  3399 ;; *************** function i2_AddBCD *****************
  3400 ;; Defined at:
  3401 ;;		line 697 in file "main.c"
  3402 ;; Parameters:    Size  Location     Type
  3403 ;;  Number1         1    wreg     unsigned char 
  3404 ;;  Number2         1    0[COMRAM] unsigned char 
  3405 ;; Auto vars:     Size  Location     Type
  3406 ;;  Number1         1    2[COMRAM] unsigned char 
  3407 ;;  temp            1    3[COMRAM] unsigned char 
  3408 ;; Return value:  Size  Location     Type
  3409 ;;                  1    wreg      unsigned char 
  3410 ;; Registers used:
  3411 ;;		wreg, status,2, status,0
  3412 ;; Tracked objects:
  3413 ;;		On entry : 0/0
  3414 ;;		On exit  : 0/0
  3415 ;;		Unchanged: 0/0
  3416 ;; Data sizes:     COMRAM   BANK0   BANK1   BANK2   BANK3   BANK4   BANK5   BANK6   BANK7   BANK8   BANK9  BANK10  BANK1
      +1  BANK12  BANK13  BANK14  BANK15
  3417 ;;      Params:         1       0       0       0       0       0       0       0       0       0       0       0       
      +0       0       0       0       0
  3418 ;;      Locals:         2       0       0       0       0       0       0       0       0       0       0       0       
      +0       0       0       0       0
  3419 ;;      Temps:          1       0       0       0       0       0       0       0       0       0       0       0       
      +0       0       0       0       0
  3420 ;;      Totals:         4       0       0       0       0       0       0       0       0       0       0       0       
      +0       0       0       0       0
  3421 ;;Total ram usage:        4 bytes
  3422 ;; Hardware stack levels used: 1
  3423 ;; This function calls:
  3424 ;;		Nothing
  3425 ;; This function is called by:
  3426 ;;		_my_isr_routine
  3427 ;;		i2_WakeUp
  3428 ;; This function uses a non-reentrant model
  3429 ;;
  3430                           
  3431                           	psect	text17
  3432  0010B0                     __ptext17:
  3433                           	callstack 0
  3434  0010B0                     i2_AddBCD:
  3435                           	callstack 26
  3436                           
  3437                           ;incstack = 0
  3438                           ;i2AddBCD@Number1 stored from wreg
  3439  0010B0  6E1F               	movwf	i2AddBCD@Number1^0,c
  3440  0010B2                     
  3441                           ;main.c: 698:     char temp = Number1 + Number2;
  3442  0010B2  501F               	movf	i2AddBCD@Number1^0,w,c
  3443  0010B4  241D               	addwf	i2AddBCD@Number2^0,w,c
  3444  0010B6  6E20               	movwf	i2AddBCD@temp^0,c
  3445                           
  3446                           ;main.c: 700:     if ((temp & 0x0F) > 9) return temp + 0x06;
  3447  0010B8  C020  F01E         	movff	i2AddBCD@temp,??i2_AddBCD
  3448  0010BC  0E0F               	movlw	15
  3449  0010BE  161E               	andwf	??i2_AddBCD^0,f,c
  3450  0010C0  0E09               	movlw	9
  3451  0010C2  641E               	cpfsgt	??i2_AddBCD^0,c
  3452  0010C4  EF66  F008         	goto	i2u140_41
  3453  0010C8  EF68  F008         	goto	i2u140_40
  3454  0010CC                     i2u140_41:
  3455  0010CC  EF6C  F008         	goto	i2l1911
  3456  0010D0                     i2u140_40:
  3457  0010D0  5020               	movf	i2AddBCD@temp^0,w,c
  3458  0010D2  0F06               	addlw	6
  3459  0010D4  EF6D  F008         	goto	i2l327
  3460  0010D8                     i2l1911:
  3461  0010D8  5020               	movf	i2AddBCD@temp^0,w,c
  3462  0010DA                     i2l327:
  3463  0010DA  0012               	return		;funcret
  3464  0010DC                     __end_ofi2_AddBCD:
  3465                           	callstack 0
  3466                           
  3467 ;; *************** function _TMR3interruption *****************
  3468 ;; Defined at:
  3469 ;;		line 634 in file "main.c"
  3470 ;; Parameters:    Size  Location     Type
  3471 ;;		None
  3472 ;; Auto vars:     Size  Location     Type
  3473 ;;		None
  3474 ;; Return value:  Size  Location     Type
  3475 ;;                  1    wreg      void 
  3476 ;; Registers used:
  3477 ;;		wreg, status,2
  3478 ;; Tracked objects:
  3479 ;;		On entry : 0/0
  3480 ;;		On exit  : 0/0
  3481 ;;		Unchanged: 0/0
  3482 ;; Data sizes:     COMRAM   BANK0   BANK1   BANK2   BANK3   BANK4   BANK5   BANK6   BANK7   BANK8   BANK9  BANK10  BANK1
      +1  BANK12  BANK13  BANK14  BANK15
  3483 ;;      Params:         0       0       0       0       0       0       0       0       0       0       0       0       
      +0       0       0       0       0
  3484 ;;      Locals:         0       0       0       0       0       0       0       0       0       0       0       0       
      +0       0       0       0       0
  3485 ;;      Temps:          0       0       0       0       0       0       0       0       0       0       0       0       
      +0       0       0       0       0
  3486 ;;      Totals:         0       0       0       0       0       0       0       0       0       0       0       0       
      +0       0       0       0       0
  3487 ;;Total ram usage:        0 bytes
  3488 ;; Hardware stack levels used: 1
  3489 ;; This function calls:
  3490 ;;		Nothing
  3491 ;; This function is called by:
  3492 ;;		_my_isr_routine
  3493 ;; This function uses a non-reentrant model
  3494 ;;
  3495                           
  3496                           	psect	text18
  3497  000FB2                     __ptext18:
  3498                           	callstack 0
  3499  000FB2                     _TMR3interruption:
  3500                           	callstack 27
  3501  000FB2                     
  3502                           ;main.c: 636:     if(PIE2bits.TMR3IE == 1 && PIR2bits.TMR3IF == 1){
  3503  000FB2  A2A0               	btfss	160,1,c	;volatile
  3504  000FB4  EFDE  F007         	goto	i2u57_41
  3505  000FB8  EFE0  F007         	goto	i2u57_40
  3506  000FBC                     i2u57_41:
  3507  000FBC  EFF9  F007         	goto	i2l305
  3508  000FC0                     i2u57_40:
  3509  000FC0  A2A1               	btfss	161,1,c	;volatile
  3510  000FC2  EFE5  F007         	goto	i2u58_41
  3511  000FC6  EFE7  F007         	goto	i2u58_40
  3512  000FCA                     i2u58_41:
  3513  000FCA  EFF9  F007         	goto	i2l305
  3514  000FCE                     i2u58_40:
  3515  000FCE                     
  3516                           ;main.c: 638:         if(BuzzerFlag){
  3517  000FCE  5012               	movf	_BuzzerFlag^0,w,c
  3518  000FD0  B4D8               	btfsc	status,2,c
  3519  000FD2  EFED  F007         	goto	i2u59_41
  3520  000FD6  EFEF  F007         	goto	i2u59_40
  3521  000FDA                     i2u59_41:
  3522  000FDA  EFF5  F007         	goto	i2l303
  3523  000FDE                     i2u59_40:
  3524  000FDE                     
  3525                           ;main.c: 639:             PORTCbits.RC0 = 0;
  3526  000FDE  9082               	bcf	130,0,c	;volatile
  3527                           
  3528                           ;main.c: 640:             PIE2bits.TMR3IE = 0;
  3529  000FE0  92A0               	bcf	160,1,c	;volatile
  3530  000FE2                     
  3531                           ;main.c: 641:             BuzzerFlag = 0;
  3532  000FE2  0E00               	movlw	0
  3533  000FE4  6E12               	movwf	_BuzzerFlag^0,c
  3534                           
  3535                           ;main.c: 642:         }else{
  3536  000FE6  EFF8  F007         	goto	i2l1397
  3537  000FEA                     i2l303:
  3538                           
  3539                           ;main.c: 643:             PORTCbits.RC0 = 1;
  3540  000FEA  8082               	bsf	130,0,c	;volatile
  3541  000FEC                     
  3542                           ;main.c: 644:             BuzzerFlag = 1;
  3543  000FEC  0E01               	movlw	1
  3544  000FEE  6E12               	movwf	_BuzzerFlag^0,c
  3545  000FF0                     i2l1397:
  3546                           
  3547                           ;main.c: 648:         PIR2bits.TMR3IF = 0;
  3548  000FF0  92A1               	bcf	161,1,c	;volatile
  3549  000FF2                     i2l305:
  3550  000FF2  0012               	return		;funcret
  3551  000FF4                     __end_of_TMR3interruption:
  3552                           	callstack 0
  3553                           
  3554 ;; *************** function _TMR1interruption *****************
  3555 ;; Defined at:
  3556 ;;		line 625 in file "main.c"
  3557 ;; Parameters:    Size  Location     Type
  3558 ;;		None
  3559 ;; Auto vars:     Size  Location     Type
  3560 ;;		None
  3561 ;; Return value:  Size  Location     Type
  3562 ;;                  1    wreg      void 
  3563 ;; Registers used:
  3564 ;;		status,2, status,0
  3565 ;; Tracked objects:
  3566 ;;		On entry : 0/0
  3567 ;;		On exit  : 0/0
  3568 ;;		Unchanged: 0/0
  3569 ;; Data sizes:     COMRAM   BANK0   BANK1   BANK2   BANK3   BANK4   BANK5   BANK6   BANK7   BANK8   BANK9  BANK10  BANK1
      +1  BANK12  BANK13  BANK14  BANK15
  3570 ;;      Params:         0       0       0       0       0       0       0       0       0       0       0       0       
      +0       0       0       0       0
  3571 ;;      Locals:         0       0       0       0       0       0       0       0       0       0       0       0       
      +0       0       0       0       0
  3572 ;;      Temps:          0       0       0       0       0       0       0       0       0       0       0       0       
      +0       0       0       0       0
  3573 ;;      Totals:         0       0       0       0       0       0       0       0       0       0       0       0       
      +0       0       0       0       0
  3574 ;;Total ram usage:        0 bytes
  3575 ;; Hardware stack levels used: 1
  3576 ;; This function calls:
  3577 ;;		Nothing
  3578 ;; This function is called by:
  3579 ;;		_my_isr_routine
  3580 ;; This function uses a non-reentrant model
  3581 ;;
  3582                           
  3583                           	psect	text19
  3584  0010DC                     __ptext19:
  3585                           	callstack 0
  3586  0010DC                     _TMR1interruption:
  3587                           	callstack 27
  3588  0010DC                     
  3589                           ;main.c: 627:     if(PIE1bits.TMR1IE == 1 && PIR1bits.TMR1IF == 1){
  3590  0010DC  A09D               	btfss	157,0,c	;volatile
  3591  0010DE  EF73  F008         	goto	i2u55_41
  3592  0010E2  EF75  F008         	goto	i2u55_40
  3593  0010E6                     i2u55_41:
  3594  0010E6  EF7E  F008         	goto	i2l299
  3595  0010EA                     i2u55_40:
  3596  0010EA  A09E               	btfss	158,0,c	;volatile
  3597  0010EC  EF7A  F008         	goto	i2u56_41
  3598  0010F0  EF7C  F008         	goto	i2u56_40
  3599  0010F4                     i2u56_41:
  3600  0010F4  EF7E  F008         	goto	i2l299
  3601  0010F8                     i2u56_40:
  3602  0010F8                     
  3603                           ;main.c: 629:         Blink = ~Blink;
  3604  0010F8  1E1A               	comf	_Blink^0,f,c
  3605  0010FA                     
  3606                           ;main.c: 631:         PIR1bits.TMR1IF = 0;
  3607  0010FA  909E               	bcf	158,0,c	;volatile
  3608  0010FC                     i2l299:
  3609  0010FC  0012               	return		;funcret
  3610  0010FE                     __end_of_TMR1interruption:
  3611                           	callstack 0
  3612                           
  3613 ;; *************** function _TMR0interruption *****************
  3614 ;; Defined at:
  3615 ;;		line 601 in file "main.c"
  3616 ;; Parameters:    Size  Location     Type
  3617 ;;		None
  3618 ;; Auto vars:     Size  Location     Type
  3619 ;;		None
  3620 ;; Return value:  Size  Location     Type
  3621 ;;                  1    wreg      void 
  3622 ;; Registers used:
  3623 ;;		wreg, status,2, status,0, cstack
  3624 ;; Tracked objects:
  3625 ;;		On entry : 0/0
  3626 ;;		On exit  : 0/0
  3627 ;;		Unchanged: 0/0
  3628 ;; Data sizes:     COMRAM   BANK0   BANK1   BANK2   BANK3   BANK4   BANK5   BANK6   BANK7   BANK8   BANK9  BANK10  BANK1
      +1  BANK12  BANK13  BANK14  BANK15
  3629 ;;      Params:         0       0       0       0       0       0       0       0       0       0       0       0       
      +0       0       0       0       0
  3630 ;;      Locals:         0       0       0       0       0       0       0       0       0       0       0       0       
      +0       0       0       0       0
  3631 ;;      Temps:          2       0       0       0       0       0       0       0       0       0       0       0       
      +0       0       0       0       0
  3632 ;;      Totals:         2       0       0       0       0       0       0       0       0       0       0       0       
      +0       0       0       0       0
  3633 ;;Total ram usage:        2 bytes
  3634 ;; Hardware stack levels used: 1
  3635 ;; Hardware stack levels required when called: 1
  3636 ;; This function calls:
  3637 ;;		i2_UpdateCurrentTime
  3638 ;; This function is called by:
  3639 ;;		_my_isr_routine
  3640 ;; This function uses a non-reentrant model
  3641 ;;
  3642                           
  3643                           	psect	text20
  3644  000EC6                     __ptext20:
  3645                           	callstack 0
  3646  000EC6                     _TMR0interruption:
  3647                           	callstack 26
  3648  000EC6                     
  3649                           ;main.c: 603:     if(INTCONbits.TMR0IE && INTCONbits.TMR0IF){
  3650  000EC6  AAF2               	btfss	242,5,c	;volatile
  3651  000EC8  EF68  F007         	goto	i2u51_41
  3652  000ECC  EF6A  F007         	goto	i2u51_40
  3653  000ED0                     i2u51_41:
  3654  000ED0  EFA9  F007         	goto	i2l295
  3655  000ED4                     i2u51_40:
  3656  000ED4  A4F2               	btfss	242,2,c	;volatile
  3657  000ED6  EF6F  F007         	goto	i2u52_41
  3658  000EDA  EF71  F007         	goto	i2u52_40
  3659  000EDE                     i2u52_41:
  3660  000EDE  EFA9  F007         	goto	i2l295
  3661  000EE2                     i2u52_40:
  3662  000EE2  EF97  F007         	goto	i2l1371
  3663  000EE6                     i2l1357:
  3664                           
  3665                           ;main.c: 607:                 UpdateCurrentTime();
  3666  000EE6  EC45  F005         	call	i2_UpdateCurrentTime	;wreg free
  3667  000EEA                     
  3668                           ;main.c: 609:                 if(CurrentTime[2] == TargetTime[2] && CurrentTime[1] == Ta
      +                          rgetTime[1]) {
  3669  000EEA  502E               	movf	(_TargetTime+2)^0,w,c
  3670  000EEC  180C               	xorwf	(_CurrentTime+2)^0,w,c
  3671  000EEE  A4D8               	btfss	status,2,c
  3672  000EF0  EF7C  F007         	goto	i2u53_41
  3673  000EF4  EF7E  F007         	goto	i2u53_40
  3674  000EF8                     i2u53_41:
  3675  000EF8  EF8D  F007         	goto	i2l1365
  3676  000EFC                     i2u53_40:
  3677  000EFC  502D               	movf	(_TargetTime+1)^0,w,c
  3678  000EFE  180B               	xorwf	(_CurrentTime+1)^0,w,c
  3679  000F00  A4D8               	btfss	status,2,c
  3680  000F02  EF85  F007         	goto	i2u54_41
  3681  000F06  EF87  F007         	goto	i2u54_40
  3682  000F0A                     i2u54_41:
  3683  000F0A  EF8D  F007         	goto	i2l1365
  3684  000F0E                     i2u54_40:
  3685  000F0E                     
  3686                           ;main.c: 610:                     WaterEnable = 1;
  3687  000F0E  0E01               	movlw	1
  3688  000F10  6E17               	movwf	_WaterEnable^0,c
  3689                           
  3690                           ;main.c: 612:                     State = 3;
  3691  000F12  0E03               	movlw	3
  3692  000F14  6E19               	movwf	_State^0,c
  3693                           
  3694                           ;main.c: 613:                 }else{
  3695  000F16  EFA8  F007         	goto	i2l293
  3696  000F1A                     i2l1365:
  3697                           
  3698                           ;main.c: 614:                     WaterEnable = 0;
  3699  000F1A  0E00               	movlw	0
  3700  000F1C  6E17               	movwf	_WaterEnable^0,c
  3701                           
  3702                           ;main.c: 615:                     WaterEnableLock = 0;
  3703  000F1E  0E00               	movlw	0
  3704  000F20  6E16               	movwf	_WaterEnableLock^0,c
  3705  000F22  EFA8  F007         	goto	i2l293
  3706  000F26                     i2l1367:
  3707                           
  3708                           ;main.c: 619:                 UpdateTimeFlag = 1;
  3709  000F26  0E01               	movlw	1
  3710  000F28  6E18               	movwf	_UpdateTimeFlag^0,c
  3711                           
  3712                           ;main.c: 620:                 break;
  3713  000F2A  EFA8  F007         	goto	i2l293
  3714  000F2E                     i2l1371:
  3715  000F2E  5019               	movf	_State^0,w,c
  3716  000F30  6E1D               	movwf	??_TMR0interruption^0,c
  3717  000F32  6A1E               	clrf	(??_TMR0interruption+1)^0,c
  3718                           
  3719                           ; Switch on 2 bytes has been partitioned into a top level switch of size 1, and 1 sub-sw
      +                          itches
  3720                           ; Switch size 1, requested type "simple"
  3721                           ; Number of cases is 1, Range of values is 0 to 0
  3722                           ; switch strategies available:
  3723                           ; Name         Instructions Cycles
  3724                           ; simple_byte            4     3 (average)
  3725                           ;	Chosen strategy is simple_byte
  3726  000F34  501E               	movf	(??_TMR0interruption+1)^0,w,c
  3727  000F36  0A00               	xorlw	0	; case 0
  3728  000F38  B4D8               	btfsc	status,2,c
  3729  000F3A  EFA1  F007         	goto	i2l2369
  3730  000F3E  EF93  F007         	goto	i2l1367
  3731  000F42                     i2l2369:
  3732                           
  3733                           ; Switch size 1, requested type "simple"
  3734                           ; Number of cases is 1, Range of values is 2 to 2
  3735                           ; switch strategies available:
  3736                           ; Name         Instructions Cycles
  3737                           ; simple_byte            4     3 (average)
  3738                           ;	Chosen strategy is simple_byte
  3739  000F42  501D               	movf	??_TMR0interruption^0,w,c
  3740  000F44  0A02               	xorlw	2	; case 2
  3741  000F46  B4D8               	btfsc	status,2,c
  3742  000F48  EF73  F007         	goto	i2l1357
  3743  000F4C  EF93  F007         	goto	i2l1367
  3744  000F50                     i2l293:
  3745                           
  3746                           ;main.c: 622:         INTCONbits.TMR0IF = 0;
  3747  000F50  94F2               	bcf	242,2,c	;volatile
  3748  000F52                     i2l295:
  3749  000F52  0012               	return		;funcret
  3750  000F54                     __end_of_TMR0interruption:
  3751                           	callstack 0
  3752                           
  3753 ;; *************** function i2_UpdateCurrentTime *****************
  3754 ;; Defined at:
  3755 ;;		line 848 in file "main.c"
  3756 ;; Parameters:    Size  Location     Type
  3757 ;;		None
  3758 ;; Auto vars:     Size  Location     Type
  3759 ;;		None
  3760 ;; Return value:  Size  Location     Type
  3761 ;;                  1    wreg      void 
  3762 ;; Registers used:
  3763 ;;		wreg, status,2
  3764 ;; Tracked objects:
  3765 ;;		On entry : 0/0
  3766 ;;		On exit  : 0/0
  3767 ;;		Unchanged: 0/0
  3768 ;; Data sizes:     COMRAM   BANK0   BANK1   BANK2   BANK3   BANK4   BANK5   BANK6   BANK7   BANK8   BANK9  BANK10  BANK1
      +1  BANK12  BANK13  BANK14  BANK15
  3769 ;;      Params:         0       0       0       0       0       0       0       0       0       0       0       0       
      +0       0       0       0       0
  3770 ;;      Locals:         0       0       0       0       0       0       0       0       0       0       0       0       
      +0       0       0       0       0
  3771 ;;      Temps:          0       0       0       0       0       0       0       0       0       0       0       0       
      +0       0       0       0       0
  3772 ;;      Totals:         0       0       0       0       0       0       0       0       0       0       0       0       
      +0       0       0       0       0
  3773 ;;Total ram usage:        0 bytes
  3774 ;; Hardware stack levels used: 1
  3775 ;; This function calls:
  3776 ;;		Nothing
  3777 ;; This function is called by:
  3778 ;;		_TMR0interruption
  3779 ;;		i2_WakeUp
  3780 ;; This function uses a non-reentrant model
  3781 ;;
  3782                           
  3783                           	psect	text21
  3784  000A8A                     __ptext21:
  3785                           	callstack 0
  3786  000A8A                     i2_UpdateCurrentTime:
  3787                           	callstack 26
  3788  000A8A                     
  3789                           ;main.c: 849:     SSPCON2bits.SEN = 1;
  3790  000A8A  80C5               	bsf	197,0,c	;volatile
  3791  000A8C                     i2l415:
  3792  000A8C  B0C5               	btfsc	4037,0,c	;volatile
  3793  000A8E  EF4B  F005         	goto	i2u31_41
  3794  000A92  EF4D  F005         	goto	i2u31_40
  3795  000A96                     i2u31_41:
  3796  000A96  EF46  F005         	goto	i2l415
  3797  000A9A                     i2u31_40:
  3798  000A9A                     
  3799                           ;main.c: 851:     PIR1bits.SSPIF = 0;
  3800  000A9A  969E               	bcf	158,3,c	;volatile
  3801  000A9C                     
  3802                           ;main.c: 853:     SSPBUF = 0xD0;
  3803  000A9C  0ED0               	movlw	208
  3804  000A9E  6EC9               	movwf	201,c	;volatile
  3805  000AA0                     i2l418:
  3806  000AA0  A69E               	btfss	3998,3,c	;volatile
  3807  000AA2  EF55  F005         	goto	i2u32_41
  3808  000AA6  EF57  F005         	goto	i2u32_40
  3809  000AAA                     i2u32_41:
  3810  000AAA  EF50  F005         	goto	i2l418
  3811  000AAE                     i2u32_40:
  3812  000AAE                     
  3813                           ;main.c: 855:     PIR1bits.SSPIF = 0;
  3814  000AAE  969E               	bcf	158,3,c	;volatile
  3815                           
  3816                           ;main.c: 856:     if (SSPCON2bits.ACKSTAT){
  3817  000AB0  ACC5               	btfss	197,6,c	;volatile
  3818  000AB2  EF5D  F005         	goto	i2u33_41
  3819  000AB6  EF5F  F005         	goto	i2u33_40
  3820  000ABA                     i2u33_41:
  3821  000ABA  EF69  F005         	goto	i2l1295
  3822  000ABE                     i2u33_40:
  3823  000ABE                     
  3824                           ;main.c: 857:         SSPCON2bits.PEN = 1;
  3825  000ABE  84C5               	bsf	197,2,c	;volatile
  3826  000AC0                     i2l422:
  3827  000AC0  B4C5               	btfsc	4037,2,c	;volatile
  3828  000AC2  EF65  F005         	goto	i2u34_41
  3829  000AC6  EF67  F005         	goto	i2u34_40
  3830  000ACA                     i2u34_41:
  3831  000ACA  EF60  F005         	goto	i2l422
  3832  000ACE                     i2u34_40:
  3833  000ACE  EFE9  F005         	goto	i2l425
  3834  000AD2                     i2l1295:
  3835                           
  3836                           ;main.c: 862:     SSPBUF = 0;
  3837  000AD2  0E00               	movlw	0
  3838  000AD4  6EC9               	movwf	201,c	;volatile
  3839  000AD6                     i2l426:
  3840  000AD6  A69E               	btfss	3998,3,c	;volatile
  3841  000AD8  EF70  F005         	goto	i2u35_41
  3842  000ADC  EF72  F005         	goto	i2u35_40
  3843  000AE0                     i2u35_41:
  3844  000AE0  EF6B  F005         	goto	i2l426
  3845  000AE4                     i2u35_40:
  3846  000AE4                     
  3847                           ;main.c: 864:     PIR1bits.SSPIF = 0;
  3848  000AE4  969E               	bcf	158,3,c	;volatile
  3849                           
  3850                           ;main.c: 865:     if (SSPCON2bits.ACKSTAT){
  3851  000AE6  ACC5               	btfss	197,6,c	;volatile
  3852  000AE8  EF78  F005         	goto	i2u36_41
  3853  000AEC  EF7A  F005         	goto	i2u36_40
  3854  000AF0                     i2u36_41:
  3855  000AF0  EF84  F005         	goto	i2l429
  3856  000AF4                     i2u36_40:
  3857  000AF4                     
  3858                           ;main.c: 866:         SSPCON2bits.PEN = 1;
  3859  000AF4  84C5               	bsf	197,2,c	;volatile
  3860  000AF6                     i2l430:
  3861  000AF6  B4C5               	btfsc	4037,2,c	;volatile
  3862  000AF8  EF80  F005         	goto	i2u37_41
  3863  000AFC  EF82  F005         	goto	i2u37_40
  3864  000B00                     i2u37_41:
  3865  000B00  EF7B  F005         	goto	i2l430
  3866  000B04                     i2u37_40:
  3867  000B04  EFE9  F005         	goto	i2l425
  3868  000B08                     i2l429:
  3869                           
  3870                           ;main.c: 871:     SSPCON2bits.RSEN = 1;
  3871  000B08  82C5               	bsf	197,1,c	;volatile
  3872  000B0A                     i2l433:
  3873  000B0A  B2C5               	btfsc	197,1,c	;volatile
  3874  000B0C  EF8A  F005         	goto	i2u38_41
  3875  000B10  EF8C  F005         	goto	i2u38_40
  3876  000B14                     i2u38_41:
  3877  000B14  EF85  F005         	goto	i2l433
  3878  000B18                     i2u38_40:
  3879  000B18                     
  3880                           ;main.c: 873:     PIR1bits.SSPIF = 0;
  3881  000B18  969E               	bcf	158,3,c	;volatile
  3882  000B1A                     
  3883                           ;main.c: 875:     SSPBUF = 0xD1;
  3884  000B1A  0ED1               	movlw	209
  3885  000B1C  6EC9               	movwf	201,c	;volatile
  3886  000B1E                     i2l436:
  3887  000B1E  A69E               	btfss	3998,3,c	;volatile
  3888  000B20  EF94  F005         	goto	i2u39_41
  3889  000B24  EF96  F005         	goto	i2u39_40
  3890  000B28                     i2u39_41:
  3891  000B28  EF8F  F005         	goto	i2l436
  3892  000B2C                     i2u39_40:
  3893  000B2C                     
  3894                           ;main.c: 877:     PIR1bits.SSPIF = 0;
  3895  000B2C  969E               	bcf	158,3,c	;volatile
  3896                           
  3897                           ;main.c: 878:     if (SSPCON2bits.ACKSTAT){
  3898  000B2E  ACC5               	btfss	197,6,c	;volatile
  3899  000B30  EF9C  F005         	goto	i2u40_41
  3900  000B34  EF9E  F005         	goto	i2u40_40
  3901  000B38                     i2u40_41:
  3902  000B38  EFA8  F005         	goto	i2l439
  3903  000B3C                     i2u40_40:
  3904  000B3C                     
  3905                           ;main.c: 879:         SSPCON2bits.PEN = 1;
  3906  000B3C  84C5               	bsf	197,2,c	;volatile
  3907  000B3E                     i2l440:
  3908  000B3E  B4C5               	btfsc	4037,2,c	;volatile
  3909  000B40  EFA4  F005         	goto	i2u41_41
  3910  000B44  EFA6  F005         	goto	i2u41_40
  3911  000B48                     i2u41_41:
  3912  000B48  EF9F  F005         	goto	i2l440
  3913  000B4C                     i2u41_40:
  3914  000B4C  EFE9  F005         	goto	i2l425
  3915  000B50                     i2l439:
  3916                           
  3917                           ;main.c: 884:     SSPCON2bits.RCEN = 1;
  3918  000B50  86C5               	bsf	197,3,c	;volatile
  3919  000B52                     i2l443:
  3920  000B52  A0C7               	btfss	199,0,c	;volatile
  3921  000B54  EFAE  F005         	goto	i2u42_41
  3922  000B58  EFB0  F005         	goto	i2u42_40
  3923  000B5C                     i2u42_41:
  3924  000B5C  EFA9  F005         	goto	i2l443
  3925  000B60                     i2u42_40:
  3926  000B60                     
  3927                           ;main.c: 886:     CurrentTime[0] = SSPBUF;
  3928  000B60  CFC9 F00A          	movff	4041,_CurrentTime	;volatile
  3929                           
  3930                           ;main.c: 888:     SSPCON2bits.ACKDT = 0;
  3931  000B64  9AC5               	bcf	197,5,c	;volatile
  3932                           
  3933                           ;main.c: 889:     SSPCON2bits.ACKEN = 1;
  3934  000B66  88C5               	bsf	197,4,c	;volatile
  3935  000B68                     i2l446:
  3936  000B68  B8C5               	btfsc	4037,4,c	;volatile
  3937  000B6A  EFB9  F005         	goto	i2u43_41
  3938  000B6E  EFBB  F005         	goto	i2u43_40
  3939  000B72                     i2u43_41:
  3940  000B72  EFB4  F005         	goto	i2l446
  3941  000B76                     i2u43_40:
  3942  000B76                     
  3943                           ;main.c: 892:     SSPCON2bits.RCEN = 1;
  3944  000B76  86C5               	bsf	197,3,c	;volatile
  3945  000B78                     i2l449:
  3946  000B78  A0C7               	btfss	199,0,c	;volatile
  3947  000B7A  EFC1  F005         	goto	i2u44_41
  3948  000B7E  EFC3  F005         	goto	i2u44_40
  3949  000B82                     i2u44_41:
  3950  000B82  EFBC  F005         	goto	i2l449
  3951  000B86                     i2u44_40:
  3952  000B86                     
  3953                           ;main.c: 894:     CurrentTime[1] = SSPBUF;
  3954  000B86  CFC9 F00B          	movff	4041,_CurrentTime+1	;volatile
  3955                           
  3956                           ;main.c: 896:     SSPCON2bits.ACKDT = 0;
  3957  000B8A  9AC5               	bcf	197,5,c	;volatile
  3958                           
  3959                           ;main.c: 897:     SSPCON2bits.ACKEN = 1;
  3960  000B8C  88C5               	bsf	197,4,c	;volatile
  3961  000B8E                     i2l452:
  3962  000B8E  B8C5               	btfsc	4037,4,c	;volatile
  3963  000B90  EFCC  F005         	goto	i2u45_41
  3964  000B94  EFCE  F005         	goto	i2u45_40
  3965  000B98                     i2u45_41:
  3966  000B98  EFC7  F005         	goto	i2l452
  3967  000B9C                     i2u45_40:
  3968  000B9C                     
  3969                           ;main.c: 900:     SSPCON2bits.RCEN = 1;
  3970  000B9C  86C5               	bsf	197,3,c	;volatile
  3971  000B9E                     i2l455:
  3972  000B9E  A0C7               	btfss	199,0,c	;volatile
  3973  000BA0  EFD4  F005         	goto	i2u46_41
  3974  000BA4  EFD6  F005         	goto	i2u46_40
  3975  000BA8                     i2u46_41:
  3976  000BA8  EFCF  F005         	goto	i2l455
  3977  000BAC                     i2u46_40:
  3978  000BAC                     
  3979                           ;main.c: 902:     CurrentTime[2] = SSPBUF;
  3980  000BAC  CFC9 F00C          	movff	4041,_CurrentTime+2	;volatile
  3981                           
  3982                           ;main.c: 904:     SSPCON2bits.ACKDT = 1;
  3983  000BB0  8AC5               	bsf	197,5,c	;volatile
  3984                           
  3985                           ;main.c: 905:     SSPCON2bits.ACKEN = 1;
  3986  000BB2  88C5               	bsf	197,4,c	;volatile
  3987  000BB4                     i2l458:
  3988  000BB4  B8C5               	btfsc	4037,4,c	;volatile
  3989  000BB6  EFDF  F005         	goto	i2u47_41
  3990  000BBA  EFE1  F005         	goto	i2u47_40
  3991  000BBE                     i2u47_41:
  3992  000BBE  EFDA  F005         	goto	i2l458
  3993  000BC2                     i2u47_40:
  3994  000BC2                     
  3995                           ;main.c: 908:     SSPCON2bits.PEN = 1;
  3996  000BC2  84C5               	bsf	197,2,c	;volatile
  3997  000BC4                     i2l461:
  3998  000BC4  B4C5               	btfsc	4037,2,c	;volatile
  3999  000BC6  EFE7  F005         	goto	i2u48_41
  4000  000BCA  EFE9  F005         	goto	i2u48_40
  4001  000BCE                     i2u48_41:
  4002  000BCE  EFE2  F005         	goto	i2l461
  4003  000BD2                     i2u48_40:
  4004  000BD2                     i2l425:
  4005  000BD2  0012               	return		;funcret
  4006  000BD4                     __end_ofi2_UpdateCurrentTime:
  4007                           	callstack 0
  4008                           
  4009 ;; *************** function _ChangeTime *****************
  4010 ;; Defined at:
  4011 ;;		line 764 in file "main.c"
  4012 ;; Parameters:    Size  Location     Type
  4013 ;;  Address         1    wreg     unsigned char 
  4014 ;;  Time            1    0[COMRAM] unsigned char 
  4015 ;; Auto vars:     Size  Location     Type
  4016 ;;  Address         1    1[COMRAM] unsigned char 
  4017 ;; Return value:  Size  Location     Type
  4018 ;;                  1    wreg      void 
  4019 ;; Registers used:
  4020 ;;		wreg, status,2
  4021 ;; Tracked objects:
  4022 ;;		On entry : 0/0
  4023 ;;		On exit  : 0/0
  4024 ;;		Unchanged: 0/0
  4025 ;; Data sizes:     COMRAM   BANK0   BANK1   BANK2   BANK3   BANK4   BANK5   BANK6   BANK7   BANK8   BANK9  BANK10  BANK1
      +1  BANK12  BANK13  BANK14  BANK15
  4026 ;;      Params:         1       0       0       0       0       0       0       0       0       0       0       0       
      +0       0       0       0       0
  4027 ;;      Locals:         1       0       0       0       0       0       0       0       0       0       0       0       
      +0       0       0       0       0
  4028 ;;      Temps:          0       0       0       0       0       0       0       0       0       0       0       0       
      +0       0       0       0       0
  4029 ;;      Totals:         2       0       0       0       0       0       0       0       0       0       0       0       
      +0       0       0       0       0
  4030 ;;Total ram usage:        2 bytes
  4031 ;; Hardware stack levels used: 1
  4032 ;; This function calls:
  4033 ;;		Nothing
  4034 ;; This function is called by:
  4035 ;;		_my_isr_routine
  4036 ;; This function uses a non-reentrant model
  4037 ;;
  4038                           
  4039                           	psect	text22
  4040  000CEC                     __ptext22:
  4041                           	callstack 0
  4042  000CEC                     _ChangeTime:
  4043                           	callstack 27
  4044                           
  4045                           ;incstack = 0
  4046                           ;ChangeTime@Address stored from wreg
  4047  000CEC  6E1E               	movwf	ChangeTime@Address^0,c
  4048  000CEE                     
  4049                           ;main.c: 766:     SSPCON2bits.SEN = 1;
  4050  000CEE  80C5               	bsf	197,0,c	;volatile
  4051  000CF0                     i2l350:
  4052  000CF0  B0C5               	btfsc	4037,0,c	;volatile
  4053  000CF2  EF7D  F006         	goto	i2u144_41
  4054  000CF6  EF7F  F006         	goto	i2u144_40
  4055  000CFA                     i2u144_41:
  4056  000CFA  EF78  F006         	goto	i2l350
  4057  000CFE                     i2u144_40:
  4058  000CFE                     
  4059                           ;main.c: 768:     PIR1bits.SSPIF = 0;
  4060  000CFE  969E               	bcf	158,3,c	;volatile
  4061  000D00                     
  4062                           ;main.c: 770:     SSPBUF = 0xD0;
  4063  000D00  0ED0               	movlw	208
  4064  000D02  6EC9               	movwf	201,c	;volatile
  4065  000D04                     i2l353:
  4066  000D04  A69E               	btfss	3998,3,c	;volatile
  4067  000D06  EF87  F006         	goto	i2u145_41
  4068  000D0A  EF89  F006         	goto	i2u145_40
  4069  000D0E                     i2u145_41:
  4070  000D0E  EF82  F006         	goto	i2l353
  4071  000D12                     i2u145_40:
  4072  000D12                     
  4073                           ;main.c: 772:     PIR1bits.SSPIF = 0;
  4074  000D12  969E               	bcf	158,3,c	;volatile
  4075                           
  4076                           ;main.c: 773:     if (SSPCON2bits.ACKSTAT){
  4077  000D14  ACC5               	btfss	197,6,c	;volatile
  4078  000D16  EF8F  F006         	goto	i2u146_41
  4079  000D1A  EF91  F006         	goto	i2u146_40
  4080  000D1E                     i2u146_41:
  4081  000D1E  EF9B  F006         	goto	i2l1953
  4082  000D22                     i2u146_40:
  4083  000D22                     
  4084                           ;main.c: 774:         SSPCON2bits.PEN = 1;
  4085  000D22  84C5               	bsf	197,2,c	;volatile
  4086  000D24                     i2l357:
  4087  000D24  B4C5               	btfsc	4037,2,c	;volatile
  4088  000D26  EF97  F006         	goto	i2u147_41
  4089  000D2A  EF99  F006         	goto	i2u147_40
  4090  000D2E                     i2u147_41:
  4091  000D2E  EF92  F006         	goto	i2l357
  4092  000D32                     i2u147_40:
  4093  000D32  EFC8  F006         	goto	i2l360
  4094  000D36                     i2l1953:
  4095                           
  4096                           ;main.c: 779:     SSPBUF = Address;
  4097  000D36  C01E  FFC9         	movff	ChangeTime@Address,4041	;volatile
  4098  000D3A                     i2l361:
  4099  000D3A  A69E               	btfss	3998,3,c	;volatile
  4100  000D3C  EFA2  F006         	goto	i2u148_41
  4101  000D40  EFA4  F006         	goto	i2u148_40
  4102  000D44                     i2u148_41:
  4103  000D44  EF9D  F006         	goto	i2l361
  4104  000D48                     i2u148_40:
  4105  000D48                     
  4106                           ;main.c: 781:     PIR1bits.SSPIF = 0;
  4107  000D48  969E               	bcf	158,3,c	;volatile
  4108                           
  4109                           ;main.c: 782:     if (SSPCON2bits.ACKSTAT){
  4110  000D4A  ACC5               	btfss	197,6,c	;volatile
  4111  000D4C  EFAA  F006         	goto	i2u149_41
  4112  000D50  EFAC  F006         	goto	i2u149_40
  4113  000D54                     i2u149_41:
  4114  000D54  EFB6  F006         	goto	i2l364
  4115  000D58                     i2u149_40:
  4116  000D58                     
  4117                           ;main.c: 783:         SSPCON2bits.PEN = 1;
  4118  000D58  84C5               	bsf	197,2,c	;volatile
  4119  000D5A                     i2l365:
  4120  000D5A  B4C5               	btfsc	4037,2,c	;volatile
  4121  000D5C  EFB2  F006         	goto	i2u150_41
  4122  000D60  EFB4  F006         	goto	i2u150_40
  4123  000D64                     i2u150_41:
  4124  000D64  EFAD  F006         	goto	i2l365
  4125  000D68                     i2u150_40:
  4126  000D68  EFC8  F006         	goto	i2l360
  4127  000D6C                     i2l364:
  4128                           
  4129                           ;main.c: 788:     SSPBUF = Time;
  4130  000D6C  C01D  FFC9         	movff	ChangeTime@Time,4041	;volatile
  4131  000D70                     i2l368:
  4132  000D70  A69E               	btfss	3998,3,c	;volatile
  4133  000D72  EFBD  F006         	goto	i2u151_41
  4134  000D76  EFBF  F006         	goto	i2u151_40
  4135  000D7A                     i2u151_41:
  4136  000D7A  EFB8  F006         	goto	i2l368
  4137  000D7E                     i2u151_40:
  4138  000D7E                     
  4139                           ;main.c: 790:     PIR1bits.SSPIF = 0;
  4140  000D7E  969E               	bcf	158,3,c	;volatile
  4141                           
  4142                           ;main.c: 793:     SSPCON2bits.PEN = 1;
  4143  000D80  84C5               	bsf	197,2,c	;volatile
  4144  000D82                     i2l371:
  4145  000D82  B4C5               	btfsc	4037,2,c	;volatile
  4146  000D84  EFC6  F006         	goto	i2u152_41
  4147  000D88  EFC8  F006         	goto	i2u152_40
  4148  000D8C                     i2u152_41:
  4149  000D8C  EFC1  F006         	goto	i2l371
  4150  000D90                     i2u152_40:
  4151  000D90                     i2l360:
  4152  000D90  0012               	return		;funcret
  4153  000D92                     __end_of_ChangeTime:
  4154                           	callstack 0
  4155                           
  4156 ;; *************** function _Buzz *****************
  4157 ;; Defined at:
  4158 ;;		line 759 in file "main.c"
  4159 ;; Parameters:    Size  Location     Type
  4160 ;;		None
  4161 ;; Auto vars:     Size  Location     Type
  4162 ;;		None
  4163 ;; Return value:  Size  Location     Type
  4164 ;;                  1    wreg      void 
  4165 ;; Registers used:
  4166 ;;		wreg, status,2
  4167 ;; Tracked objects:
  4168 ;;		On entry : 0/0
  4169 ;;		On exit  : 0/0
  4170 ;;		Unchanged: 0/0
  4171 ;; Data sizes:     COMRAM   BANK0   BANK1   BANK2   BANK3   BANK4   BANK5   BANK6   BANK7   BANK8   BANK9  BANK10  BANK1
      +1  BANK12  BANK13  BANK14  BANK15
  4172 ;;      Params:         0       0       0       0       0       0       0       0       0       0       0       0       
      +0       0       0       0       0
  4173 ;;      Locals:         0       0       0       0       0       0       0       0       0       0       0       0       
      +0       0       0       0       0
  4174 ;;      Temps:          0       0       0       0       0       0       0       0       0       0       0       0       
      +0       0       0       0       0
  4175 ;;      Totals:         0       0       0       0       0       0       0       0       0       0       0       0       
      +0       0       0       0       0
  4176 ;;Total ram usage:        0 bytes
  4177 ;; Hardware stack levels used: 1
  4178 ;; This function calls:
  4179 ;;		Nothing
  4180 ;; This function is called by:
  4181 ;;		_my_isr_routine
  4182 ;; This function uses a non-reentrant model
  4183 ;;
  4184                           
  4185                           	psect	text23
  4186  001186                     __ptext23:
  4187                           	callstack 0
  4188  001186                     _Buzz:
  4189                           	callstack 27
  4190  001186                     
  4191                           ;main.c: 761:     PIE2bits.TMR3IE = 1;
  4192  001186  82A0               	bsf	160,1,c	;volatile
  4193  001188                     
  4194                           ;main.c: 762:     TMR3 = 0;
  4195  001188  0E00               	movlw	0
  4196  00118A  6EB3               	movwf	179,c	;volatile
  4197  00118C  0E00               	movlw	0
  4198  00118E  6EB2               	movwf	178,c	;volatile
  4199  001190  0012               	return		;funcret
  4200  001192                     __end_of_Buzz:
  4201                           	callstack 0
  4202  0000                     
  4203                           	psect	rparam
  4204  0000                     
  4205                           	psect	temp
  4206  00002F                     btemp:
  4207                           	callstack 0
  4208  00002F                     	ds	1
  4209  0000                     int$flags	set	btemp
  4210  0000                     wtemp8	set	btemp+1
  4211  0000                     ttemp5	set	btemp+1
  4212  0000                     ttemp6	set	btemp+4
  4213  0000                     ttemp7	set	btemp+8
  4214                           
  4215                           	psect	idloc
  4216                           
  4217                           ;Config register IDLOC0 @ 0x200000
  4218                           ;	unspecified, using default values
  4219  200000                     	org	2097152
  4220  200000  FF                 	db	255
  4221                           
  4222                           ;Config register IDLOC1 @ 0x200001
  4223                           ;	unspecified, using default values
  4224  200001                     	org	2097153
  4225  200001  FF                 	db	255
  4226                           
  4227                           ;Config register IDLOC2 @ 0x200002
  4228                           ;	unspecified, using default values
  4229  200002                     	org	2097154
  4230  200002  FF                 	db	255
  4231                           
  4232                           ;Config register IDLOC3 @ 0x200003
  4233                           ;	unspecified, using default values
  4234  200003                     	org	2097155
  4235  200003  FF                 	db	255
  4236                           
  4237                           ;Config register IDLOC4 @ 0x200004
  4238                           ;	unspecified, using default values
  4239  200004                     	org	2097156
  4240  200004  FF                 	db	255
  4241                           
  4242                           ;Config register IDLOC5 @ 0x200005
  4243                           ;	unspecified, using default values
  4244  200005                     	org	2097157
  4245  200005  FF                 	db	255
  4246                           
  4247                           ;Config register IDLOC6 @ 0x200006
  4248                           ;	unspecified, using default values
  4249  200006                     	org	2097158
  4250  200006  FF                 	db	255
  4251                           
  4252                           ;Config register IDLOC7 @ 0x200007
  4253                           ;	unspecified, using default values
  4254  200007                     	org	2097159
  4255  200007  FF                 	db	255
  4256                           
  4257                           	psect	config
  4258                           
  4259                           ; Padding undefined space
  4260  300000                     	org	3145728
  4261  300000  FF                 	db	255
  4262                           
  4263                           ;Config register CONFIG1H @ 0x300001
  4264                           ;	Oscillator Selection bits
  4265                           ;	OSC = INTIO67, Internal oscillator block, port function on RA6 and RA7
  4266                           ;	Fail-Safe Clock Monitor Enable bit
  4267                           ;	FCMEN = OFF, Fail-Safe Clock Monitor disabled
  4268                           ;	Internal/External Oscillator Switchover bit
  4269                           ;	IESO = OFF, Oscillator Switchover mode disabled
  4270  300001                     	org	3145729
  4271  300001  08                 	db	8
  4272                           
  4273                           ;Config register CONFIG2L @ 0x300002
  4274                           ;	Power-up Timer Enable bit
  4275                           ;	PWRT = OFF, PWRT disabled
  4276                           ;	Brown-out Reset Enable bits
  4277                           ;	BOREN = OFF, Brown-out Reset disabled in hardware and software
  4278                           ;	Brown Out Reset Voltage bits
  4279                           ;	BORV = 3, Minimum setting
  4280  300002                     	org	3145730
  4281  300002  19                 	db	25
  4282                           
  4283                           ;Config register CONFIG2H @ 0x300003
  4284                           ;	Watchdog Timer Enable bit
  4285                           ;	WDT = OFF, WDT disabled (control is placed on the SWDTEN bit)
  4286                           ;	Watchdog Timer Postscale Select bits
  4287                           ;	WDTPS = 32768, 1:32768
  4288  300003                     	org	3145731
  4289  300003  1E                 	db	30
  4290                           
  4291                           ; Padding undefined space
  4292  300004                     	org	3145732
  4293  300004  FF                 	db	255
  4294                           
  4295                           ;Config register CONFIG3H @ 0x300005
  4296                           ;	CCP2 MUX bit
  4297                           ;	CCP2MX = PORTC, CCP2 input/output is multiplexed with RC1
  4298                           ;	PORTB A/D Enable bit
  4299                           ;	PBADEN = OFF, PORTB<4:0> pins are configured as digital I/O on Reset
  4300                           ;	Low-Power Timer1 Oscillator Enable bit
  4301                           ;	LPT1OSC = OFF, Timer1 configured for higher power operation
  4302                           ;	MCLR Pin Enable bit
  4303                           ;	MCLRE = ON, MCLR pin enabled; RE3 input pin disabled
  4304  300005                     	org	3145733
  4305  300005  81                 	db	129
  4306                           
  4307                           ;Config register CONFIG4L @ 0x300006
  4308                           ;	Stack Full/Underflow Reset Enable bit
  4309                           ;	STVREN = OFF, Stack full/underflow will not cause Reset
  4310                           ;	Single-Supply ICSP Enable bit
  4311                           ;	LVP = OFF, Single-Supply ICSP disabled
  4312                           ;	Extended Instruction Set Enable bit
  4313                           ;	XINST = OFF, Instruction set extension and Indexed Addressing mode disabled (Legacy mo
      +                          de)
  4314                           ;	Background Debugger Enable bit
  4315                           ;	DEBUG = 0x1, unprogrammed default
  4316  300006                     	org	3145734
  4317  300006  80                 	db	128
  4318                           
  4319                           ; Padding undefined space
  4320  300007                     	org	3145735
  4321  300007  FF                 	db	255
  4322                           
  4323                           ;Config register CONFIG5L @ 0x300008
  4324                           ;	Code Protection bit
  4325                           ;	CP0 = OFF, Block 0 (000800-003FFFh) not code-protected
  4326                           ;	Code Protection bit
  4327                           ;	CP1 = OFF, Block 1 (004000-007FFFh) not code-protected
  4328                           ;	Code Protection bit
  4329                           ;	CP2 = OFF, Block 2 (008000-00BFFFh) not code-protected
  4330                           ;	Code Protection bit
  4331                           ;	CP3 = OFF, Block 3 (00C000-00FFFFh) not code-protected
  4332  300008                     	org	3145736
  4333  300008  0F                 	db	15
  4334                           
  4335                           ;Config register CONFIG5H @ 0x300009
  4336                           ;	Boot Block Code Protection bit
  4337                           ;	CPB = OFF, Boot block (000000-0007FFh) not code-protected
  4338                           ;	Data EEPROM Code Protection bit
  4339                           ;	CPD = OFF, Data EEPROM not code-protected
  4340  300009                     	org	3145737
  4341  300009  C0                 	db	192
  4342                           
  4343                           ;Config register CONFIG6L @ 0x30000A
  4344                           ;	Write Protection bit
  4345                           ;	WRT0 = OFF, Block 0 (000800-003FFFh) not write-protected
  4346                           ;	Write Protection bit
  4347                           ;	WRT1 = OFF, Block 1 (004000-007FFFh) not write-protected
  4348                           ;	Write Protection bit
  4349                           ;	WRT2 = OFF, Block 2 (008000-00BFFFh) not write-protected
  4350                           ;	Write Protection bit
  4351                           ;	WRT3 = OFF, Block 3 (00C000-00FFFFh) not write-protected
  4352  30000A                     	org	3145738
  4353  30000A  0F                 	db	15
  4354                           
  4355                           ;Config register CONFIG6H @ 0x30000B
  4356                           ;	Configuration Register Write Protection bit
  4357                           ;	WRTC = OFF, Configuration registers (300000-3000FFh) not write-protected
  4358                           ;	Boot Block Write Protection bit
  4359                           ;	WRTB = OFF, Boot Block (000000-0007FFh) not write-protected
  4360                           ;	Data EEPROM Write Protection bit
  4361                           ;	WRTD = OFF, Data EEPROM not write-protected
  4362  30000B                     	org	3145739
  4363  30000B  E0                 	db	224
  4364                           
  4365                           ;Config register CONFIG7L @ 0x30000C
  4366                           ;	Table Read Protection bit
  4367                           ;	EBTR0 = OFF, Block 0 (000800-003FFFh) not protected from table reads executed in other
      +                           blocks
  4368                           ;	Table Read Protection bit
  4369                           ;	EBTR1 = OFF, Block 1 (004000-007FFFh) not protected from table reads executed in other
      +                           blocks
  4370                           ;	Table Read Protection bit
  4371                           ;	EBTR2 = OFF, Block 2 (008000-00BFFFh) not protected from table reads executed in other
      +                           blocks
  4372                           ;	Table Read Protection bit
  4373                           ;	EBTR3 = OFF, Block 3 (00C000-00FFFFh) not protected from table reads executed in other
      +                           blocks
  4374  30000C                     	org	3145740
  4375  30000C  0F                 	db	15
  4376                           
  4377                           ;Config register CONFIG7H @ 0x30000D
  4378                           ;	Boot Block Table Read Protection bit
  4379                           ;	EBTRB = OFF, Boot Block (000000-0007FFh) not protected from table reads executed in ot
      +                          her blocks
  4380  30000D                     	org	3145741
  4381  30000D  40                 	db	64
  4382                           tosu	equ	0xFFF
  4383                           tosh	equ	0xFFE
  4384                           tosl	equ	0xFFD
  4385                           stkptr	equ	0xFFC
  4386                           pclatu	equ	0xFFB
  4387                           pclath	equ	0xFFA
  4388                           pcl	equ	0xFF9
  4389                           tblptru	equ	0xFF8
  4390                           tblptrh	equ	0xFF7
  4391                           tblptrl	equ	0xFF6
  4392                           tablat	equ	0xFF5
  4393                           prodh	equ	0xFF4
  4394                           prodl	equ	0xFF3
  4395                           indf0	equ	0xFEF
  4396                           postinc0	equ	0xFEE
  4397                           postdec0	equ	0xFED
  4398                           preinc0	equ	0xFEC
  4399                           plusw0	equ	0xFEB
  4400                           fsr0h	equ	0xFEA
  4401                           fsr0l	equ	0xFE9
  4402                           wreg	equ	0xFE8
  4403                           indf1	equ	0xFE7
  4404                           postinc1	equ	0xFE6
  4405                           postdec1	equ	0xFE5
  4406                           preinc1	equ	0xFE4
  4407                           plusw1	equ	0xFE3
  4408                           fsr1h	equ	0xFE2
  4409                           fsr1l	equ	0xFE1
  4410                           bsr	equ	0xFE0
  4411                           indf2	equ	0xFDF
  4412                           postinc2	equ	0xFDE
  4413                           postdec2	equ	0xFDD
  4414                           preinc2	equ	0xFDC
  4415                           plusw2	equ	0xFDB
  4416                           fsr2h	equ	0xFDA
  4417                           fsr2l	equ	0xFD9
  4418                           status	equ	0xFD8

Data Sizes:
    Strings     0
    Constant    0
    Data        3
    BSS         28
    Persistent  0
    Stack       0

Auto Spaces:
    Space          Size  Autos    Used
    COMRAM          126     15      46
    BANK0           128      0       0
    BANK1           256      0       0
    BANK2           256      0       0
    BANK3           256      0       0
    BANK4           256      0       0
    BANK5           256      0       0
    BANK6           256      0       0
    BANK7           256      0       0
    BANK8           256      0       0
    BANK9           256      0       0
    BANK10          256      0       0
    BANK11          256      0       0
    BANK12          256      0       0
    BANK13          256      0       0
    BANK14          256      0       0
    BANK15          128      0       0

Pointer List with Targets:

    None.

Critical Paths under _main in COMRAM

    _main->_Display
    _WakeUp->_AddBCD
    _WakeUp->_SubBCD
    _MCUinit->_Display

Critical Paths under _my_isr_routine in COMRAM

    _my_isr_routine->i2_WakeUp
    i2_WakeUp->i2_AddBCD
    i2_WakeUp->i2_SubBCD

Critical Paths under _main in BANK0

    None.

Critical Paths under _my_isr_routine in BANK0

    None.

Critical Paths under _main in BANK1

    None.

Critical Paths under _my_isr_routine in BANK1

    None.

Critical Paths under _main in BANK2

    None.

Critical Paths under _my_isr_routine in BANK2

    None.

Critical Paths under _main in BANK3

    None.

Critical Paths under _my_isr_routine in BANK3

    None.

Critical Paths under _main in BANK4

    None.

Critical Paths under _my_isr_routine in BANK4

    None.

Critical Paths under _main in BANK5

    None.

Critical Paths under _my_isr_routine in BANK5

    None.

Critical Paths under _main in BANK6

    None.

Critical Paths under _my_isr_routine in BANK6

    None.

Critical Paths under _main in BANK7

    None.

Critical Paths under _my_isr_routine in BANK7

    None.

Critical Paths under _main in BANK8

    None.

Critical Paths under _my_isr_routine in BANK8

    None.

Critical Paths under _main in BANK9

    None.

Critical Paths under _my_isr_routine in BANK9

    None.

Critical Paths under _main in BANK10

    None.

Critical Paths under _my_isr_routine in BANK10

    None.

Critical Paths under _main in BANK11

    None.

Critical Paths under _my_isr_routine in BANK11

    None.

Critical Paths under _main in BANK12

    None.

Critical Paths under _my_isr_routine in BANK12

    None.

Critical Paths under _main in BANK13

    None.

Critical Paths under _my_isr_routine in BANK13

    None.

Critical Paths under _main in BANK14

    None.

Critical Paths under _my_isr_routine in BANK14

    None.

Critical Paths under _main in BANK15

    None.

Critical Paths under _my_isr_routine in BANK15

    None.

Call Graph Tables:

 ---------------------------------------------------------------------------------
 (Depth) Function   	        Calls       Base Space   Used Autos Params    Refs
 ---------------------------------------------------------------------------------
 (0) _main                                                 2     2      0    5708
                                             13 COMRAM     2     2      0
                             _AddBCD
                         _BlinkDigit
                            _Display
                          _MCUconfig
                            _MCUinit
                  _UpdateCurrentTime
                             _WakeUp
 ---------------------------------------------------------------------------------
 (1) _WakeUp                                               1     1      0    2086
                                             11 COMRAM     1     1      0
                             _AddBCD
                             _SubBCD
                  _UpdateCurrentTime
 ---------------------------------------------------------------------------------
 (2) _UpdateCurrentTime                                    0     0      0       0
 ---------------------------------------------------------------------------------
 (2) _SubBCD                                               4     3      1     663
                                              7 COMRAM     4     3      1
 ---------------------------------------------------------------------------------
 (2) _AddBCD                                               4     3      1    1423
                                              7 COMRAM     4     3      1
 ---------------------------------------------------------------------------------
 (1) _MCUinit                                              0     0      0    1092
                            _Display
 ---------------------------------------------------------------------------------
 (2) _Display                                              6     5      1    1092
                                              7 COMRAM     6     5      1
 ---------------------------------------------------------------------------------
 (1) _MCUconfig                                            0     0      0       0
                         _GPIOconfig
                          _I2Cconfig
                          _INTconfig
                          _PWMconfig
                        _TIMERconfig
 ---------------------------------------------------------------------------------
 (2) _TIMERconfig                                          0     0      0       0
 ---------------------------------------------------------------------------------
 (2) _PWMconfig                                            0     0      0       0
 ---------------------------------------------------------------------------------
 (2) _INTconfig                                            0     0      0       0
 ---------------------------------------------------------------------------------
 (2) _I2Cconfig                                            0     0      0       0
 ---------------------------------------------------------------------------------
 (2) _GPIOconfig                                           0     0      0       0
 ---------------------------------------------------------------------------------
 (1) _BlinkDigit                                           3     3      0      15
                                              7 COMRAM     3     3      0
 ---------------------------------------------------------------------------------
 Estimated maximum stack depth 2
 ---------------------------------------------------------------------------------
 (Depth) Function   	        Calls       Base Space   Used Autos Params    Refs
 ---------------------------------------------------------------------------------
 (3) _my_isr_routine                                       2     2      0    2344
                                              5 COMRAM     2     2      0
                               _Buzz
                         _ChangeTime
                   _TMR0interruption
                   _TMR1interruption
                   _TMR3interruption
                           i2_AddBCD
                           i2_SubBCD
                           i2_WakeUp
 ---------------------------------------------------------------------------------
 (4) i2_WakeUp                                             1     1      0     846
                                              4 COMRAM     1     1      0
                           i2_AddBCD
                           i2_SubBCD
                i2_UpdateCurrentTime
 ---------------------------------------------------------------------------------
 (5) i2_SubBCD                                             4     3      1     371
                                              0 COMRAM     4     3      1
 ---------------------------------------------------------------------------------
 (5) i2_AddBCD                                             4     3      1     475
                                              0 COMRAM     4     3      1
 ---------------------------------------------------------------------------------
 (4) _TMR3interruption                                     0     0      0       0
 ---------------------------------------------------------------------------------
 (4) _TMR1interruption                                     0     0      0       0
 ---------------------------------------------------------------------------------
 (4) _TMR0interruption                                     2     2      0       0
                                              0 COMRAM     2     2      0
                i2_UpdateCurrentTime
 ---------------------------------------------------------------------------------
 (5) i2_UpdateCurrentTime                                  0     0      0       0
 ---------------------------------------------------------------------------------
 (4) _ChangeTime                                           2     1      1     652
                                              0 COMRAM     2     1      1
 ---------------------------------------------------------------------------------
 (4) _Buzz                                                 0     0      0       0
 ---------------------------------------------------------------------------------
 Estimated maximum stack depth 5
 ---------------------------------------------------------------------------------

 Call Graph Graphs:

 _main (ROOT)
   _AddBCD
   _BlinkDigit
   _Display
   _MCUconfig
     _GPIOconfig
     _I2Cconfig
     _INTconfig
     _PWMconfig
     _TIMERconfig
   _MCUinit
     _Display
   _UpdateCurrentTime
   _WakeUp
     _AddBCD
     _SubBCD
     _UpdateCurrentTime

 _my_isr_routine (ROOT)
   _Buzz
   _ChangeTime
   _TMR0interruption
     i2_UpdateCurrentTime
   _TMR1interruption
   _TMR3interruption
   i2_AddBCD
   i2_SubBCD
   i2_WakeUp
     i2_AddBCD
     i2_SubBCD
     i2_UpdateCurrentTime

 Address spaces:
Name               Size   Autos  Total    Cost      Usage
BIGRAM             F7F      0       0      37        0.0%
EEDATA             400      0       0       0        0.0%
BITBANK14          100      0       0      32        0.0%
BANK14             100      0       0      33        0.0%
BITBANK13          100      0       0      30        0.0%
BANK13             100      0       0      31        0.0%
BITBANK12          100      0       0      28        0.0%
BANK12             100      0       0      29        0.0%
BITBANK11          100      0       0      26        0.0%
BANK11             100      0       0      27        0.0%
BITBANK10          100      0       0      24        0.0%
BANK10             100      0       0      25        0.0%
BITBANK9           100      0       0      22        0.0%
BANK9              100      0       0      23        0.0%
BITBANK8           100      0       0      20        0.0%
BANK8              100      0       0      21        0.0%
BITBANK7           100      0       0      18        0.0%
BANK7              100      0       0      19        0.0%
BITBANK6           100      0       0      16        0.0%
BANK6              100      0       0      17        0.0%
BITBANK5           100      0       0      14        0.0%
BANK5              100      0       0      15        0.0%
BITBANK4           100      0       0      12        0.0%
BANK4              100      0       0      13        0.0%
BITBANK3           100      0       0      10        0.0%
BANK3              100      0       0      11        0.0%
BITBANK2           100      0       0       8        0.0%
BANK2              100      0       0       9        0.0%
BITBANK1           100      0       0       6        0.0%
BANK1              100      0       0       7        0.0%
BITBANK15           80      0       0      35        0.0%
BANK15              80      0       0      36        0.0%
BITBANK0            80      0       0       4        0.0%
BANK0               80      0       0       5        0.0%
BITCOMRAM           7E      0       0       0        0.0%
COMRAM              7E      F      2E       1       36.5%
BITSFR               0      0       0     200        0.0%
SFR                  0      0       0     200        0.0%
STACK                0      0       0       2        0.0%
NULL                 0      0       0       0        0.0%
ABS                  0      0      2E      34        0.0%
DATA                 0      0      2E       3        0.0%
CODE                 0      0       0       0        0.0%


Microchip Technology PIC18 Macro Assembler V2.32 build 20210201212658 
Symbol Table                                                                                   Sat Jul 24 16:27:14 2021

            _TMR1interruption 10DC                   _SSPSTATbits 000FC7                            u90 0950  
                          u91 094C            __size_of_I2Cconfig 000A                           l311 0E16  
                         l160 05CE                           l154 0938                           l323 0FB0  
                         l315 0E2A                           l340 0C9C                           l308 1184  
                         l332 1056                           l420 0964                           l156 0580  
                         l181 079E                           l270 113A                           l342 0CDA  
                         l430 09AC                           l422 0976                           l327 1082  
                         l415 0942                           l344 0CEA                           l336 0C20  
                         l440 09F4                           l273 119A                           l433 09C0  
                         l425 0A88                           l417 0950                           l282 111C  
                         l338 0C5E                           l426 098C                           l418 0956  
                         l451 0A3C                           l443 0A08                           l435 09CE  
                         l276 1178                           l460 0A78                           l452 0A44  
                         l436 09D4                           l428 099A                           l285 1154  
                         l461 0A7A                           l445 0A16                           l429 09BE  
                         l454 0A52                           l446 0A1E                           l438 09E2  
                         l279 116A                           l455 0A54                           l439 0A06  
                         l448 0A2C                           l457 0A62                           l449 0A2E  
                         l458 0A6A                           u100 0964                           u101 0960  
                         u110 0974                           u111 0970                           u200 0A16  
                         u120 0984                           u201 0A12                           u121 0980  
                         u210 0A2C                           u130 099A                           u211 0A28  
                         u131 0996                           u220 0A3C                           u140 09AA  
                         u221 0A38                           u141 09A6                           u230 0A52  
                         u150 09BA                           u231 0A4E                           u151 09B6  
                         u240 0A62                           u160 09CE                           u241 0A5E  
                         u161 09CA                           u250 0A78                           u170 09E2  
                         u251 0A74                           u171 09DE                           u260 0A88  
                         u180 09F2                           u261 0A84                           u181 09EE  
                         u190 0A02                           _PR2 000FCB                           u191 09FE  
                         _PEN 007E2A                           _SEN 007E28           _CurrentWateringTime 000F  
                 ?_GPIOconfig 001D                           wreg 000FE8                          l1201 09F2  
                        l2001 05F2                          l2011 0636                          l2003 0602  
                        l2101 0858                          l2021 069A                          l2013 064A  
                        l2005 060A                          l1231 1126                          l1311 114C  
                        l1303 113C                          l2111 086E                          l2103 085C  
                        l2031 06F0                          l2023 06AE                          l2015 065E  
                        l2007 061C                          l1321 0F66                          l1241 1134  
                        l1233 112A                          l1313 1150                          l1305 1140  
                        l2121 08AA                          l2113 0880                          l2105 0860  
                        l2033 06FC                          l2025 06BE                          l2041 0718  
                        l2017 0672                          l2009 062E                          l1323 0F72  
                        l1243 1136                          l1235 112E                          l1227 111E  
                        l1251 1156                          l1307 1144                          l2123 08AE  
                        l2115 0892                          l2107 0862                          l2051 0722  
                        l2043 071A                          l2035 0704                          l2027 06C2  
                        l2019 0686                          l2131 08BE                          l1317 0F56  
                        l1245 1138                          l1237 1130                          l1229 1122  
                        l1253 1162                          l1261 1110                          l1309 1148  
                        l2125 08B2                          l2117 089E                          l2109 0864  
                        l2061 0750                          l2053 0724                          l2045 071C  
                        l2037 0710                          l2029 06D4                          l1319 0F5A  
                        l1327 0F7E                          l1239 1132                          l1247 1192  
                        l1255 1166                          l1263 1116                          l1191 0952  
                        l2127 08B6                          l2119 08A6                          l2071 078E  
                        l2063 0760                          l2055 0734                          l2047 071E  
                        l2039 0714                          l1257 10FE                          l1249 116C  
                        l1193 0974                          l2081 07C8                          l2073 07A2  
                        l2065 0772                          l2057 0744                          l2049 0720  
                        l1259 110A                          l1195 0988                          l2091 080A  
                        l2083 07DA                          l2067 0776                          l2075 07A6  
                        l2059 0748                          l1197 09AA                          l1189 0940  
                        l2093 081C                          l2085 07DE                          l2077 07AC  
                        l2069 077E                          l1199 09D0                          l2095 0838  
                        l2087 07F6                          l2079 07B6                          l2361 0F92  
                        l2097 0844                          l2089 0806                          l2099 084C  
                        l1831 0BF2                          l2359 08D2                          l1841 0C2E  
                        l1833 0C02                          l1851 0C64                          l1843 0C30  
                        l1835 0C12                          l1931 0D96                          l1861 0CA0  
                        l1853 0C6C                          l1845 0C40                          l1837 0C24  
                        l1829 0BD6                          l1941 0DEE                          l1933 0DB2  
                        l1871 0CCC                          l1863 0CA2                          l1855 0C6E  
                        l1847 0C50                          l1839 0C26                          l1927 117A  
                        l1943 0E1A                          l1935 0DCE                          l1873 0CDE  
                        l1865 0CAA                          l1857 0C7E                          l1849 0C62  
                        l1881 1078                          l1945 0E26                          l1937 0DD2  
                        l1929 0D92                          l1875 0CE0                          l1867 0CAC  
                        l1859 0C8E                          l1891 102E                          l1939 0DDE  
                  _ChangeTime 0CEC                          l1877 0CE8                          l1869 0CBC  
                        l1893 104C                          l1981 056C                          l1887 1080  
                        l1879 105A                          l1991 05BE                          l1983 0586  
                        l1975 0544                          l1993 05C6                          l1985 0596  
                        l1977 054C                          l1899 1054                          l1987 059A  
                        l1995 05D2                          l1979 0558                          l1997 05DC  
                        l1989 05AC                          l1999 05E2                          u1300 0C02  
                        u1301 0BFE                          u1310 0C12                          u1311 0C0E  
                        u2007 054E                          u1320 0C40                          u1321 0C3C  
                        u2017 0C16                          u1330 0C50                          u1331 0C4C  
                        u2027 0C28                          u1340 0C7E                          u1420 0DB2  
                        u1341 0C7A                          u2037 0C54                          u1421 0DAE  
                        _LATA 000F89                          u1350 0C8E                          u1430 0DCE  
                        _LATB 000F8A                          u1351 0C8A                          u2047 0C66  
                        u1431 0DCA                          u1360 0CBC                          u1600 061C  
                        u1361 0CB8                          u2057 0C92                          u1601 0618  
                        u1370 0CCC                          u1610 062E                          u1371 0CC8  
                        u2067 0CA4                          u1611 062A                          u1380 1078  
                        u1700 079E                          u1620 06BE                          u2077 0CD0  
                        u1381 1074                          u1701 079A                          u1621 06BA  
                        u1390 104C                          u1710 07C8                          u1630 06D4  
                        u1550 0596                          u2087 0CE2                          u1391 1048  
                        u1711 07C4                          u1631 06D0                          u1551 0592  
                        u1720 07DA                          u1640 06F0                          u1560 05AC  
                        u1721 07D6                          u1641 06EC                          u1561 05A8  
                        u1730 0806                          u1650 0734                          u1570 05BE  
                        u1731 0802                          u1651 0730                          u1571 05BA  
                        u1740 081C                          u1660 0744                          u1580 05F2  
                        u1741 0818                          u1661 0740                          u1581 05EE  
                        u1750 0838                          u1670 0760                          u1590 0602  
                        u1751 0834                          u1671 075C                          u1591 05FE  
                        _PIE1 000F9D                          u1760 0880                          u1680 0772  
                        _PIE2 000FA0                          u1761 087C                          u1681 076E  
                        u1770 0892                          u1690 078E                          u1771 088E  
                        u1691 078A                          _TMR3 000FB2               __end_of_MCUinit 1186  
                        _Buzz 1186                          _main 0544                          btemp 002F  
                        start 000E                    _BlinkDigit 0F54               __end_of_Display 0CEC  
                ___param_bank 000000                         ?_Buzz 001D                         ?_main 001D  
                       _ACKEN 007E2C                         _T0CON 000FD5                         _T1CON 000FCD  
                       _T2CON 000FCA                         _T3CON 000FB1            __size_of_MCUconfig 001A  
                       i2l202 006C                         i2l203 0078                         i2l204 0084  
                       i2l205 0090                         i2l214 033A                         i2l206 009C  
                       i2l303 0FEA                         i2l311 0EB0                         i2l207 00A8  
                       i2l208 00B4                         i2l305 0FF2                         i2l209 033C  
                       i2l315 0EC4                         i2l243 053E                         i2l420 0AAE  
                       i2l332 10AE                         i2l350 0CF0                         i2l430 0AF6  
                       i2l422 0AC0                         i2l415 0A8C                         i2l327 10DA  
                       i2l360 0D90                         i2l352 0CFE                         i2l440 0B3E  
                       i2l361 0D3A                         i2l353 0D04                         i2l433 0B0A  
                       i2l425 0BD2                         i2l417 0A9A                         i2l370 0D7E  
                       i2l426 0AD6                         i2l418 0AA0                         i2l347 1190  
                       i2l371 0D82                         i2l363 0D48                         i2l355 0D12  
                       i2l451 0B86                         i2l443 0B52                         i2l435 0B18  
                       i2l267 0540                         i2l364 0D6C                         i2l460 0BC2  
                       i2l452 0B8E                         i2l436 0B1E                         i2l428 0AE4  
                       i2l196 0128                         i2l365 0D5A                         i2l357 0D24  
                       i2l461 0BC4                         i2l445 0B60                         i2l429 0B08  
                       i2l293 0F50                         i2l454 0B9C                         i2l446 0B68  
                       i2l438 0B2C                         i2l455 0B9E                         i2l439 0B50  
                       i2l295 0F52                         i2l199 0126                         i2l368 0D70  
                       i2l448 0B76                         i2l457 0BAC                         i2l449 0B78  
                       i2l458 0BB4                         i2l299 10FC                         _TRISA 000F92  
                       _TRISB 000F93                         _TRISC 000F94                         _SSPIF 007CF3  
            __end_ofi2_AddBCD 10DC            __size_of_INTconfig 0016                         _Blink 001A  
                       _State 0019                    SubBCD@temp 0027              __end_ofi2_SubBCD 10B0  
            __end_ofi2_WakeUp 0EC6                         tablat 000FF5              _CurrentValveTime 000D  
                       ttemp5 0030                         ttemp6 0033                         ttemp7 0037  
                       status 000FD8             __end_of_I2Cconfig 119C                         wtemp8 0030  
                  _LastSecond 0011           __size_of_GPIOconfig 001E               __initialization 0FF4  
                __end_of_Buzz 1192            __size_of_PWMconfig 0020                  __end_of_main 0940  
            _TMR3interruption 0FB2                        ??_Buzz 001D                        ??_main 002A  
                  _BuzzerFlag 0012                 __activetblptr 000002             _UpdateCurrentTime 0940  
          ?_UpdateCurrentTime 001D                     ??_MCUinit 002A      __end_of_TMR0interruption 0F54  
                      _CCPR1L 000FBE                   ?_ChangeTime 001D                        i2l1301 0B3C  
                      i2l1401 1188                        i2l2201 018A                        i2l2211 01C8  
                      i2l2203 019C                        i2l2301 045C                        i2l2221 01FE  
                      i2l2213 01CC                        i2l2205 01A4                        i2l2141 001C  
                      i2l1351 0EC6                        i2l2311 049C                        i2l2303 046C  
                      i2l2231 0242                        i2l2223 0210                        i2l2215 01D4  
                      i2l2207 01B0                        i2l2151 0048                        i2l2143 0020  
                      i2l1361 0EFC                        i2l1353 0ED4                        i2l2313 04AC  
                      i2l2305 0474                        i2l2321 04D4                        i2l2241 028E  
                      i2l2233 0252                        i2l2225 0218                        i2l2217 01E6  
                      i2l2209 01BA                        i2l2161 005A                        i2l2153 004A  
                      i2l2145 002E                        i2l2137 0014                        i2l1291 0A9C  
                      i2l1363 0F0E                        i2l1371 0F2E                        i2l2315 04BC  
                      i2l2307 0484                        i2l2243 0296                        i2l2235 0264  
                      i2l2227 0228                        i2l2219 01EE                        i2l2171 0088  
                      i2l2163 0060                        i2l2155 0050                        i2l2147 003C  
                      i2l2139 0018           ??_UpdateCurrentTime 0024                        i2l1293 0ABE  
                      i2l1365 0F1A                        i2l1357 0EE6                        i2l1381 10F8  
                      i2l2317 04C4                        i2l2309 0494                        i2l2261 0370  
                      i2l2245 02A6                        i2l2237 026C                        i2l2229 023A  
                      i2l2253 02D0                        i2l2173 0094                        i2l2165 0064  
                      i2l2157 0054                        i2l2149 0044                        i2l1295 0AD2  
                      i2l1367 0F26                        i2l1359 0EEA                        i2l1383 10FA  
                      i2l1391 0FDE                        i2l2271 03AC                        i2l2263 0378  
                      i2l2255 034A                        i2l2247 02B8                        i2l2239 027C  
                      i2l2191 014C                        i2l2175 00A0                        i2l2167 0070  
                      i2l2159 0058                        i2l1297 0AF4                        i2l1289 0A8A  
                      i2l1377 10DC                        i2l1393 0FE2                        i2l1385 0FB2  
                      i2l2281 03DC                        i2l2273 03B4                        i2l2265 0384  
                      i2l2257 0358                        i2l2249 02C0                        i2l2193 015E  
                      i2l2177 00AC                        i2l2169 007C                        i2l2185 00BC  
                      i2l1299 0B1A                        i2l1379 10EA                        i2l1395 0FEC  
                      i2l1387 0FC0                        i2l2291 041C                        i2l2283 03E4  
                      i2l2275 03C0                        i2l2267 038E                        i2l2259 0360  
                      i2l2195 0166                        i2l2187 0136                        i2l2363 00D0  
                      i2l1397 0FF0                        i2l1389 0FCE                        i2l2293 0424  
                      i2l2285 03F4                        i2l2277 03CA                        i2l2269 039C  
                      i2l2365 02E4                        i2l2197 0172                        i2l2189 0144  
                      i2l1399 1186                        i2l1911 10D8                        i2l1903 10B2  
                      i2l2367 04E8                        i2l2295 0434                        i2l2287 03FC  
                      i2l2279 03D8                        i2l2199 017C                        i2l2369 0F42  
                      i2l1905 10D0                        i2l2297 0444                        i2l2289 040C  
                      i2l1923 10AC                        i2l1915 1086                        i2l2299 044C  
                      i2l1917 10A4                        i2l1951 0D22                        i2l1953 0D36  
                      i2l1961 0E4C                        i2l1955 0D58                        i2l1947 0CEE  
                      i2l1971 0EB4                        i2l1963 0E68                        i2l1949 0D00  
                      i2l1973 0EC0                        i2l1965 0E6C                        i2l1957 0E2C  
                      i2l1967 0E78                        i2l1959 0E30                        i2l1969 0E88  
                      _INTCON 000FF2                        _OSCCON 000FD3                        _AddBCD 1058  
                      _SSPADD 000FC8                        _SSPBUF 000FC9                     ??_Display 0025  
                  _WakeUpTime 0007                    _TargetTime 002C                  ?_TIMERconfig 001D  
           __end_of_MCUconfig 1156             __end_of_INTconfig 116C                   ?_BlinkDigit 001D  
                      _SubBCD 102C                        _WakeUp 0D92               BlinkDigit@index 0026  
             i2SubBCD@Number1 001F               i2SubBCD@Number2 001D                        clear_0 1018  
   __end_of_UpdateCurrentTime 0A8A                        isa$std 000001                  __pdataCOMRAM 002C  
                      tblptrh 000FF7                        tblptrl 000FF6                        tblptru 000FF8  
           __end_of_PWMconfig 111E      __end_of_TMR1interruption 10FE             ChangeTime@Address 001E  
                  __accesstop 0080       __end_of__initialization 101E                 ___rparam_used 000001  
               AddBCD@Number1 0026                 AddBCD@Number2 0024                     ?i2_AddBCD 001D  
              __pcstackCOMRAM 001D   __end_ofi2_UpdateCurrentTime 0BD4           __size_of_ChangeTime 00A6  
                   ?i2_SubBCD 001D                     ?i2_WakeUp 001D                   _CurrentTime 000A  
                ??_GPIOconfig 0024           __size_of_BlinkDigit 005E                       ?_AddBCD 0024  
                     ?_SubBCD 0024                       ?_WakeUp 001D                    ??i2_AddBCD 001E  
          __end_of_GPIOconfig 113C                       _CCP1CON 000FBD            Display@Lower_Hours 0026  
                  ??i2_SubBCD 001E    __size_of_UpdateCurrentTime 014A                    ??i2_WakeUp 0021  
                     _INTCON2 000FF1                       _INTCON3 000FF0                       i2u31_40 0A9A  
                     i2u31_41 0A96                       i2u40_40 0B3C                       i2u32_40 0AAE  
                     i2u40_41 0B38                       i2u32_41 0AAA                       i2u41_40 0B4C  
                     i2u33_40 0ABE                       i2u41_41 0B48                       i2u33_41 0ABA  
                     i2u42_40 0B60                       i2u34_40 0ACE                       i2u42_41 0B5C  
                     i2u34_41 0ACA                       i2u43_40 0B76                       i2u35_40 0AE4  
                     i2u51_40 0ED4                       i2u43_41 0B72                       i2u35_41 0AE0  
                     i2u51_41 0ED0                       i2u44_40 0B86                       i2u36_40 0AF4  
                     i2u52_40 0EE2                       i2u44_41 0B82                       i2u36_41 0AF0  
                     i2u52_41 0EDE                       i2u45_40 0B9C                       i2u37_40 0B04  
                     i2u53_40 0EFC                       i2u45_41 0B98                       i2u37_41 0B00  
                     i2u53_41 0EF8                       i2u46_40 0BAC                       i2u38_40 0B18  
                     i2u54_40 0F0E                       i2u46_41 0BA8                       i2u38_41 0B14  
                     i2u54_41 0F0A                       i2u47_40 0BC2                       i2u39_40 0B2C  
                     i2u55_40 10EA                       i2u47_41 0BBE                       i2u39_41 0B28  
                     i2u55_41 10E6                       i2u48_40 0BD2                       i2u56_40 10F8  
                     i2u48_41 0BCE                       i2u56_41 10F4                       _MCUinit 117A  
                     i2u57_40 0FC0                       i2u57_41 0FBC                       i2u58_40 0FCE  
                     i2u58_41 0FCA                       i2u59_40 0FDE                       i2u59_41 0FDA  
             _ValveEnableLock 0014                       _SSPCON1 000FC6       __size_of_my_isr_routine 053C  
    __end_of_TMR3interruption 0FF4               __size_of_AddBCD 002C          Display@Lower_Minutes 0028  
                     _Display 0BD4                       __Hparam 0000                       __Lparam 0000  
                 _ValveEnable 0015                     _I2Cconfig 1192          __size_of_TIMERconfig 000E  
             __size_of_SubBCD 002C               __size_of_WakeUp 009A                       __pcinit 0FF4  
                     __ramtop 1000                       __ptext0 0544                       __ptext1 0D92  
                     __ptext2 0940                       __ptext3 102C                       __ptext4 1058  
                     __ptext5 117A                       __ptext6 0BD4                       __ptext7 113C  
                     __ptext8 116C                       __ptext9 10FE                     _T0CONbits 000FD5  
                   _T1CONbits 000FCD                     _T2CONbits 000FCA                   _WaterEnable 0017  
                ??_ChangeTime 001E                __pintcode_body 0012             ?_TMR0interruption 001D  
        end_of_initialization 101E            ??_TMR0interruption 001D                 __Lmediumconst 0000  
                     int_func 0012                  ??_BlinkDigit 0024                  i2AddBCD@temp 0020  
                  ?_I2Cconfig 001D                     _MCUconfig 113C                       postinc0 000FEE  
                   _INTconfig 1156            Display@Upper_Hours 0025            __end_of_ChangeTime 0D92  
                   _PORTCbits 000F82                     _TRISCbits 000F94            __end_of_BlinkDigit 0FB2  
           ?_TMR1interruption 001D                     _PWMconfig 10FE            ??_TMR1interruption 001D  
                 _CCP1CONbits 000FBD                __end_of_AddBCD 1084                __end_of_SubBCD 1058  
                  ?_MCUconfig 001D                __end_of_WakeUp 0E2C            _Blink_Second_Digit 001B  
                  ?_INTconfig 001D             __size_ofi2_AddBCD 002C            _UpdateTimePrescale 0013  
               __pidataCOMRAM 119C             __size_ofi2_SubBCD 002C             __size_ofi2_WakeUp 009A  
         start_initialization 0FF4                _my_isr_routine 0008                      ??_AddBCD 0025  
                  ?_PWMconfig 001D                      ??_SubBCD 0025                   ??_I2Cconfig 0024  
                    ??_WakeUp 0028                     _ValveTime 0001  __size_ofi2_UpdateCurrentTime 014A  
                 __pbssCOMRAM 0001        __end_of_my_isr_routine 0544                      ?_MCUinit 001D  
           ?_TMR3interruption 001D            ??_TMR3interruption 001D                      ?_Display 0024  
           _Blink_First_Digit 001C                _UpdateTimeFlag 0018                    AddBCD@temp 0027  
                   __pintcode 0008                   ??_MCUconfig 0024                   ??_INTconfig 0024  
             i2AddBCD@Number1 001F               i2AddBCD@Number2 001D               ?_my_isr_routine 001D  
              Display@Minutes 0024                   ??_PWMconfig 0024                 ??_TIMERconfig 0024  
                    _PIE1bits 000F9D                      _PIE2bits 000FA0                      i2u140_40 10D0  
                    i2u140_41 10CC                      i2u141_40 10A4                      i2u141_41 10A0  
                    i2u150_40 0D68                      i2u150_41 0D64                      i2u151_40 0D7E  
                    i2u151_41 0D7A                      i2u152_40 0D90                      i2u144_40 0CFE  
                    i2u152_41 0D8C                      i2u144_41 0CFA                      i2u145_40 0D12  
                    i2u153_40 0E4C                      i2u145_41 0D0E                      i2u153_41 0E48  
                    i2u146_40 0D22                      i2u154_40 0E68                      i2u146_41 0D1E  
                    i2u154_41 0E64                      i2u147_40 0D32                      i2u147_41 0D2E  
                    i2u148_40 0D48                      i2u180_40 0136                      i2u148_41 0D44  
                    i2u180_41 0132                      i2u149_40 0D58                      i2u181_40 0144  
                    i2u149_41 0D54                      i2u181_41 0140                      i2u190_40 034A  
                    i2u182_40 015E                      i2u190_41 0346                      i2u182_41 015A  
                    i2u191_40 0358                      i2u183_40 019C                      i2u191_41 0354  
                    i2u183_41 0198                      i2u192_40 0370                      i2u184_40 01E6  
                    i2u192_41 036C                      i2u184_41 01E2                      i2u193_40 03AC  
                    i2u185_40 0210                      i2u193_41 03A8                      i2u185_41 020C  
                    _PIR1bits 000F9E                      i2u194_40 03F4                      i2u186_40 023A  
                    i2u178_40 002E                      i2u194_41 03F0                      i2u186_41 0236  
                    i2u178_41 002A                      i2u195_40 041C                      i2u187_40 0264  
                    i2u179_40 003C                      i2u195_41 0418                      i2u187_41 0260  
                    i2u179_41 0038                      _PIR2bits 000FA1                      i2u196_40 0444  
                    i2u188_40 028E                      i2u196_41 0440                      i2u188_41 028A  
                    i2u197_40 046C                      i2u189_40 02B8                      i2u197_41 0468  
                    i2u189_41 02B4                      i2u198_40 0494                      i2u198_41 0490  
                    i2u199_40 04BC                      i2u199_41 04B8                      i2_AddBCD 10B0  
   __size_of_TMR0interruption 008E                      i2_SubBCD 1084                      i2_WakeUp 0E2C  
            __size_of_MCUinit 000C                   _INTCON3bits 000FF0                 SubBCD@Number1 0026  
               SubBCD@Number2 0024              __size_of_Display 0118                      __Hrparam 0000  
                    __Lrparam 0000           __end_of_TIMERconfig 117A     __size_of_TMR1interruption 0022  
             _WaterEnableLock 0016                      __ptext10 1156                      __ptext11 1192  
                    __ptext20 0EC6                      __ptext12 111E                      __ptext21 0A8A  
                    __ptext13 0F54                      __ptext22 0CEC                      __ptext23 1186  
                    __ptext15 0E2C                      __ptext16 1084                      __ptext17 10B0  
                    __ptext18 0FB2                      __ptext19 10DC                 __size_of_Buzz 000C  
               __size_of_main 03FC           i2_UpdateCurrentTime 0A8A                      isa$xinst 000000  
                    int$flags 002F          ?i2_UpdateCurrentTime 001D                  _WateringTime 0004  
                  _INTCONbits 000FF2                    _GPIOconfig 111E                  i2SubBCD@temp 0020  
              ChangeTime@Time 001D                      intlevel2 0000          Display@Upper_Minutes 0027  
                 _TIMERconfig 116C                  Display@Hours 0029              _TMR0interruption 0EC6  
   __size_of_TMR3interruption 0042              ??_my_isr_routine 0022         ??i2_UpdateCurrentTime 001D  
                 _SSPCON2bits 000FC5  
