

Microchip MPLAB XC8 Assembler V2.32 build 20210201212658 
                                                                                               Sat Jul 24 20:19:37 2021

Microchip MPLAB XC8 C Compiler v2.32 (Free license) build 20210201212658 Og1 
     1                           	processor	18F2620
     2                           	fnconf	rparam,??,?,0
     3                           	pagewidth 120
     4                           	opt	flic
     5                           	psect	idataCOMRAM,global,class=CODE,delta=1,noexec
     6                           	psect	cinit,global,reloc=2,class=CODE,delta=1
     7                           	psect	bssCOMRAM,global,class=COMRAM,space=1,delta=1,lowdata,noexec
     8                           	psect	dataCOMRAM,global,class=COMRAM,space=1,delta=1,lowdata,noexec
     9                           	psect	cstackCOMRAM,global,class=COMRAM,space=1,delta=1,lowdata,noexec
    10                           	psect	text0,global,reloc=2,class=CODE,delta=1
    11                           	psect	text1,global,reloc=2,class=CODE,delta=1
    12                           	psect	text2,global,reloc=2,class=CODE,delta=1
    13                           	psect	text3,global,reloc=2,class=CODE,delta=1
    14                           	psect	text4,global,reloc=2,class=CODE,delta=1
    15                           	psect	text5,global,reloc=2,class=CODE,delta=1
    16                           	psect	text6,global,reloc=2,class=CODE,delta=1
    17                           	psect	text7,global,reloc=2,class=CODE,delta=1
    18                           	psect	text8,global,reloc=2,class=CODE,delta=1
    19                           	psect	text9,global,reloc=2,class=CODE,delta=1
    20                           	psect	text10,global,reloc=2,class=CODE,delta=1
    21                           	psect	text11,global,reloc=2,class=CODE,delta=1
    22                           	psect	text12,global,reloc=2,class=CODE,delta=1
    23                           	psect	text13,global,reloc=2,class=CODE,delta=1
    24                           	psect	intcode,global,reloc=2,class=CODE,delta=1
    25                           	psect	intcode_body,global,reloc=2,class=CODE,delta=1
    26                           	psect	text15,global,reloc=2,class=CODE,delta=1
    27                           	psect	text16,global,reloc=2,class=CODE,delta=1
    28                           	psect	text17,global,reloc=2,class=CODE,delta=1
    29                           	psect	text18,global,reloc=2,class=CODE,delta=1
    30                           	psect	text19,global,reloc=2,class=CODE,delta=1
    31                           	psect	text20,global,reloc=2,class=CODE,delta=1
    32                           	psect	text21,global,reloc=2,class=CODE,delta=1
    33                           	psect	text22,global,reloc=2,class=CODE,delta=1
    34                           	psect	text23,global,reloc=2,class=CODE,delta=1
    35                           	psect	text24,global,reloc=2,class=CODE,delta=1
    36                           	psect	text25,global,reloc=2,class=CODE,delta=1
    37                           	psect	text26,global,reloc=2,class=CODE,delta=1
    38                           	psect	text27,global,reloc=2,class=CODE,delta=1
    39                           	psect	text28,global,reloc=2,class=CODE,delta=1
    40                           	psect	text29,global,reloc=2,class=CODE,delta=1
    41                           	psect	text30,global,reloc=2,class=CODE,delta=1
    42                           	psect	text31,global,reloc=2,class=CODE,delta=1
    43                           	psect	text32,global,reloc=2,class=CODE,delta=1
    44                           	psect	intsave_regs,global,class=BIGRAM,space=1,delta=1,noexec
    45                           	psect	rparam,global,class=COMRAM,space=1,delta=1,noexec
    46                           	psect	temp,global,ovrld,common,class=COMRAM,space=1,delta=1
    47                           	psect	idloc,global,abs,ovrld,class=IDLOC,space=5,delta=1,noexec
    48                           	psect	config,global,abs,ovrld,class=CONFIG,space=4,delta=1,noexec
    49  0000                     
    50                           ; Version 2.20
    51                           ; Generated 12/02/2020 GMT
    52                           ; 
    53                           ; Copyright © 2020, Microchip Technology Inc. and its subsidiaries ("Microchip")
    54                           ; All rights reserved.
    55                           ; 
    56                           ; This software is developed by Microchip Technology Inc. and its subsidiaries ("Microch
      +                          ip").
    57                           ; 
    58                           ; Redistribution and use in source and binary forms, with or without modification, are
    59                           ; permitted provided that the following conditions are met:
    60                           ; 
    61                           ;     1. Redistributions of source code must retain the above copyright notice, this lis
      +                          t of
    62                           ;        conditions and the following disclaimer.
    63                           ; 
    64                           ;     2. Redistributions in binary form must reproduce the above copyright notice, this 
      +                          list
    65                           ;        of conditions and the following disclaimer in the documentation and/or other
    66                           ;        materials provided with the distribution.
    67                           ; 
    68                           ;     3. Microchip's name may not be used to endorse or promote products derived from th
      +                          is
    69                           ;        software without specific prior written permission.
    70                           ; 
    71                           ; THIS SOFTWARE IS PROVIDED BY MICROCHIP "AS IS" AND ANY EXPRESS OR IMPLIED WARRANTIES,
    72                           ; INCLUDING, BUT NOT LIMITED TO, THE IMPLIED WARRANTIES OF MERCHANTABILITY AND FITNESS F
      +                          OR
    73                           ; PURPOSE ARE DISCLAIMED.  IN NO EVENT SHALL MICROCHIP BE LIABLE FOR ANY DIRECT, INDIREC
      +                          T,
    74                           ; INCIDENTAL, SPECIAL, EXEMPLARY, OR CONSEQUENTIAL DAMAGES (INCLUDING BUT NOT LIMITED TO
    75                           ; PROCUREMENT OF SUBSTITUTE GOODS OR SERVICES; LOSS OF USE, DATA OR PROFITS; OR BUSINESS
    76                           ; INTERRUPTION) HOWSOEVER CAUSED AND ON ANY THEORY OF LIABILITY, WHETHER IN CONTRACT, ST
      +                          RICT
    77                           ; LIABILITY, OR TORT (INCLUDING NEGLIGENCE OR OTHERWISE) ARISING IN ANY WAY OUT OF THE U
      +                          SE OF
    78                           ; THIS SOFTWARE, EVEN IF ADVISED OF THE POSSIBILITY OF SUCH DAMAGE.
    79                           ; 
    80                           ; 
    81                           ; Code-generator required, PIC18F2620 Definitions
    82                           ; 
    83                           ; SFR Addresses
    84  0000                     
    85                           	psect	idataCOMRAM
    86  001156                     __pidataCOMRAM:
    87                           	callstack 0
    88                           
    89                           ;initializer for _TargetTime
    90  001156  00                 	db	0
    91  001157  00                 	db	0
    92  001158  12                 	db	18
    93  0000                     _TMR3	set	4018
    94  0000                     _SSPSTATbits	set	4039
    95  0000                     _SSPBUF	set	4041
    96  0000                     _SSPCON2bits	set	4037
    97  0000                     _LATB	set	3978
    98  0000                     _LATA	set	3977
    99  0000                     _T1CONbits	set	4045
   100  0000                     _T0CONbits	set	4053
   101  0000                     _PIR2bits	set	4001
   102  0000                     _PIR1bits	set	3998
   103  0000                     _OSCCON	set	4051
   104  0000                     _T2CONbits	set	4042
   105  0000                     _T2CON	set	4042
   106  0000                     _CCP1CON	set	4029
   107  0000                     _PR2	set	4043
   108  0000                     _INTCON3	set	4080
   109  0000                     _INTCON2	set	4081
   110  0000                     _PIE1	set	3997
   111  0000                     _PIE2	set	4000
   112  0000                     _INTCON	set	4082
   113  0000                     _T3CON	set	4017
   114  0000                     _T1CON	set	4045
   115  0000                     _T0CON	set	4053
   116  0000                     _SSPCON1	set	4038
   117  0000                     _SSPADD	set	4040
   118  0000                     _TRISCbits	set	3988
   119  0000                     _TRISB	set	3987
   120  0000                     _TRISA	set	3986
   121  0000                     _TRISC	set	3988
   122  0000                     _CCPR1L	set	4030
   123  0000                     _CCP1CONbits	set	4029
   124  0000                     _PORTCbits	set	3970
   125  0000                     _INTCON3bits	set	4080
   126  0000                     _INTCONbits	set	4082
   127  0000                     _PIE1bits	set	3997
   128  0000                     _PIE2bits	set	4000
   129  0000                     _ACKEN	set	32300
   130  0000                     _PEN	set	32298
   131  0000                     _SSPIF	set	31987
   132  0000                     _SEN	set	32296
   133                           
   134                           ; #config settings
   135                           
   136                           	psect	cinit
   137  000F74                     __pcinit:
   138                           	callstack 0
   139  000F74                     start_initialization:
   140                           	callstack 0
   141  000F74                     __initialization:
   142                           	callstack 0
   143                           
   144                           ; Initialize objects allocated to COMRAM (3 bytes)
   145                           ; load TBLPTR registers with __pidataCOMRAM
   146  000F74  0E56               	movlw	low __pidataCOMRAM
   147  000F76  6EF6               	movwf	tblptrl,c
   148  000F78  0E11               	movlw	high __pidataCOMRAM
   149  000F7A  6EF7               	movwf	tblptrh,c
   150  000F7C  0E00               	movlw	low (__pidataCOMRAM shr (0+16))
   151  000F7E  6EF8               	movwf	tblptru,c
   152  000F80  0009               	tblrd		*+	;fetch initializer
   153  000F82  CFF5 F030          	movff	tablat,__pdataCOMRAM
   154  000F86  0009               	tblrd		*+	;fetch initializer
   155  000F88  CFF5 F031          	movff	tablat,__pdataCOMRAM+1
   156  000F8C  0009               	tblrd		*+	;fetch initializer
   157  000F8E  CFF5 F032          	movff	tablat,__pdataCOMRAM+2
   158                           
   159                           ; Clear objects allocated to COMRAM (28 bytes)
   160  000F92  EE00  F001         	lfsr	0,__pbssCOMRAM
   161  000F96  0E1C               	movlw	28
   162  000F98                     clear_0:
   163  000F98  6AEE               	clrf	postinc0,c
   164  000F9A  06E8               	decf	wreg,f,c
   165  000F9C  E1FD               	bnz	clear_0
   166  000F9E                     end_of_initialization:
   167                           	callstack 0
   168  000F9E                     __end_of__initialization:
   169                           	callstack 0
   170  000F9E  9033               	bcf	int$flags,0,c	;clear compiler interrupt flag (level 1)
   171  000FA0  9233               	bcf	int$flags,1,c	;clear compiler interrupt flag (level 2)
   172  000FA2  0E00               	movlw	low (__Lmediumconst shr (0+16))
   173  000FA4  6EF8               	movwf	tblptru,c
   174  000FA6  0100               	movlb	0
   175  000FA8  EF09  F000         	goto	_main	;jump to C main() function
   176                           
   177                           	psect	bssCOMRAM
   178  000001                     __pbssCOMRAM:
   179                           	callstack 0
   180  000001                     _WakeUpTime:
   181                           	callstack 0
   182  000001                     	ds	3
   183  000004                     _CurrentValveTime:
   184                           	callstack 0
   185  000004                     	ds	2
   186  000006                     _CurrentWateringTime:
   187                           	callstack 0
   188  000006                     	ds	2
   189  000008                     _LastSecond:
   190                           	callstack 0
   191  000008                     	ds	1
   192  000009                     _BuzzerFlag:
   193                           	callstack 0
   194  000009                     	ds	1
   195  00000A                     _UpdateTimePrescale:
   196                           	callstack 0
   197  00000A                     	ds	1
   198  00000B                     _ValveEnableLock:
   199                           	callstack 0
   200  00000B                     	ds	1
   201  00000C                     _ValveEnable:
   202                           	callstack 0
   203  00000C                     	ds	1
   204  00000D                     _WaterEnableLock:
   205                           	callstack 0
   206  00000D                     	ds	1
   207  00000E                     _WaterEnable:
   208                           	callstack 0
   209  00000E                     	ds	1
   210  00000F                     _UpdateTimeFlag:
   211                           	callstack 0
   212  00000F                     	ds	1
   213  000010                     _State:
   214                           	callstack 0
   215  000010                     	ds	1
   216  000011                     _Blink:
   217                           	callstack 0
   218  000011                     	ds	1
   219  000012                     _Blink_Second_Digit:
   220                           	callstack 0
   221  000012                     	ds	1
   222  000013                     _Blink_First_Digit:
   223                           	callstack 0
   224  000013                     	ds	1
   225  000014                     _ValveTime:
   226                           	callstack 0
   227  000014                     	ds	3
   228  000017                     _WateringTime:
   229                           	callstack 0
   230  000017                     	ds	3
   231  00001A                     _CurrentTime:
   232                           	callstack 0
   233  00001A                     	ds	3
   234                           
   235                           	psect	dataCOMRAM
   236  000030                     __pdataCOMRAM:
   237                           	callstack 0
   238  000030                     _TargetTime:
   239                           	callstack 0
   240  000030                     	ds	3
   241                           
   242                           	psect	cstackCOMRAM
   243  00001D                     __pcstackCOMRAM:
   244                           	callstack 0
   245  00001D                     ??_TMR0interruption:
   246  00001D                     ChangeTime@Time:
   247                           	callstack 0
   248  00001D                     i2AddBCD@Number2:
   249                           	callstack 0
   250  00001D                     i2SubBCD@Number2:
   251                           	callstack 0
   252                           
   253                           ; 1 bytes @ 0x0
   254  00001D                     	ds	1
   255  00001E                     ??i2_AddBCD:
   256  00001E                     ??i2_SubBCD:
   257  00001E                     ChangeTime@Address:
   258                           	callstack 0
   259                           
   260                           ; 1 bytes @ 0x1
   261  00001E                     	ds	1
   262  00001F                     i2AddBCD@Number1:
   263                           	callstack 0
   264  00001F                     i2SubBCD@Number1:
   265                           	callstack 0
   266                           
   267                           ; 1 bytes @ 0x2
   268  00001F                     	ds	1
   269  000020                     i2AddBCD@temp:
   270                           	callstack 0
   271  000020                     i2SubBCD@temp:
   272                           	callstack 0
   273                           
   274                           ; 1 bytes @ 0x3
   275  000020                     	ds	1
   276  000021                     ??i2_WakeUp:
   277  000021                     IncrementTime@Time:
   278                           	callstack 0
   279  000021                     IncrementTimeHour@Time:
   280                           	callstack 0
   281  000021                     DecrementTime@Time:
   282                           	callstack 0
   283  000021                     DecrementTimeHour@Time:
   284                           	callstack 0
   285                           
   286                           ; 2 bytes @ 0x4
   287  000021                     	ds	1
   288  000022                     ??_INT0interruption:
   289                           
   290                           ; 1 bytes @ 0x5
   291  000022                     	ds	1
   292  000023                     ??_INT2interruption:
   293  000023                     
   294                           ; 1 bytes @ 0x6
   295  000023                     	ds	1
   296  000024                     ??_INT1interruption:
   297                           
   298                           ; 1 bytes @ 0x7
   299  000024                     	ds	2
   300  000026                     ??_my_isr_routine:
   301                           
   302                           ; 1 bytes @ 0x9
   303  000026                     	ds	2
   304  000028                     ??_BlinkDigit:
   305  000028                     AddBCD@Number2:
   306                           	callstack 0
   307  000028                     SubBCD@Number2:
   308                           	callstack 0
   309  000028                     Display@Minutes:
   310                           	callstack 0
   311                           
   312                           ; 1 bytes @ 0xB
   313  000028                     	ds	1
   314  000029                     ??_AddBCD:
   315  000029                     ??_SubBCD:
   316  000029                     Display@Upper_Hours:
   317                           	callstack 0
   318                           
   319                           ; 1 bytes @ 0xC
   320  000029                     	ds	1
   321  00002A                     BlinkDigit@index:
   322                           	callstack 0
   323  00002A                     AddBCD@Number1:
   324                           	callstack 0
   325  00002A                     SubBCD@Number1:
   326                           	callstack 0
   327  00002A                     Display@Lower_Hours:
   328                           	callstack 0
   329                           
   330                           ; 1 bytes @ 0xD
   331  00002A                     	ds	1
   332  00002B                     AddBCD@temp:
   333                           	callstack 0
   334  00002B                     SubBCD@temp:
   335                           	callstack 0
   336  00002B                     Display@Upper_Minutes:
   337                           	callstack 0
   338                           
   339                           ; 1 bytes @ 0xE
   340  00002B                     	ds	1
   341  00002C                     ??_WakeUp:
   342  00002C                     Display@Lower_Minutes:
   343                           	callstack 0
   344                           
   345                           ; 1 bytes @ 0xF
   346  00002C                     	ds	1
   347  00002D                     Display@Hours:
   348                           	callstack 0
   349                           
   350                           ; 1 bytes @ 0x10
   351  00002D                     	ds	1
   352  00002E                     ??_main:
   353                           
   354                           ; 1 bytes @ 0x11
   355  00002E                     	ds	2
   356                           
   357 ;;
   358 ;;Main: autosize = 0, tempsize = 2, incstack = 0, save=0
   359 ;;
   360 ;; *************** function _main *****************
   361 ;; Defined at:
   362 ;;		line 113 in file "main.c"
   363 ;; Parameters:    Size  Location     Type
   364 ;;		None
   365 ;; Auto vars:     Size  Location     Type
   366 ;;		None
   367 ;; Return value:  Size  Location     Type
   368 ;;                  1    wreg      void 
   369 ;; Registers used:
   370 ;;		wreg, status,2, status,0, cstack
   371 ;; Tracked objects:
   372 ;;		On entry : 0/0
   373 ;;		On exit  : 0/0
   374 ;;		Unchanged: 0/0
   375 ;; Data sizes:     COMRAM   BANK0   BANK1   BANK2   BANK3   BANK4   BANK5   BANK6   BANK7   BANK8   BANK9  BANK10  BANK1
      +1  BANK12  BANK13  BANK14  BANK15
   376 ;;      Params:         0       0       0       0       0       0       0       0       0       0       0       0       
      +0       0       0       0       0
   377 ;;      Locals:         0       0       0       0       0       0       0       0       0       0       0       0       
      +0       0       0       0       0
   378 ;;      Temps:          2       0       0       0       0       0       0       0       0       0       0       0       
      +0       0       0       0       0
   379 ;;      Totals:         2       0       0       0       0       0       0       0       0       0       0       0       
      +0       0       0       0       0
   380 ;;Total ram usage:        2 bytes
   381 ;; Hardware stack levels required when called: 6
   382 ;; This function calls:
   383 ;;		_AddBCD
   384 ;;		_BlinkDigit
   385 ;;		_Display
   386 ;;		_MCUconfig
   387 ;;		_MCUinit
   388 ;;		_UpdateCurrentTime
   389 ;;		_WakeUp
   390 ;; This function is called by:
   391 ;;		Startup code after reset
   392 ;; This function uses a non-reentrant model
   393 ;;
   394                           
   395                           	psect	text0
   396  000012                     __ptext0:
   397                           	callstack 0
   398  000012                     _main:
   399                           	callstack 25
   400  000012                     
   401                           ;main.c: 115:     MCUconfig();
   402  000012  EC75  F008         	call	_MCUconfig	;wreg free
   403                           
   404                           ;main.c: 116:     MCUinit();
   405  000016  EC94  F008         	call	_MCUinit	;wreg free
   406  00001A                     l2148:
   407                           
   408                           ;main.c: 120:         _delay((unsigned long)((1)*(4000000/4000.0)));
   409  00001A  0EC8               	movlw	200
   410  00001C                     u1767:
   411  00001C  D000               	nop2	
   412  00001E  2EE8               	decfsz	wreg,f,c
   413  000020  D7FD               	bra	u1767
   414                           
   415                           ;main.c: 122:         switch(State){
   416  000022  EFC6  F001         	goto	l2302
   417  000026                     l2150:
   418                           
   419                           ;main.c: 125:                 Display(CurrentTime[2], CurrentTime[1]);
   420  000026  C01B  F028         	movff	_CurrentTime+1,Display@Minutes
   421  00002A  501C               	movf	(_CurrentTime+2)^0,w,c
   422  00002C  EC97  F004         	call	_Display
   423                           
   424                           ;main.c: 126:                 BlinkDigit(1);
   425  000030  0E01               	movlw	1
   426  000032  ECDC  F006         	call	_BlinkDigit
   427                           
   428                           ;main.c: 128:                 break;
   429  000036  EF0D  F000         	goto	l2148
   430  00003A                     l2152:
   431                           
   432                           ;main.c: 132:                 Display(CurrentTime[2], CurrentTime[1]);
   433  00003A  C01B  F028         	movff	_CurrentTime+1,Display@Minutes
   434  00003E  501C               	movf	(_CurrentTime+2)^0,w,c
   435  000040  EC97  F004         	call	_Display
   436                           
   437                           ;main.c: 133:                 BlinkDigit(2);
   438  000044  0E02               	movlw	2
   439  000046  ECDC  F006         	call	_BlinkDigit
   440                           
   441                           ;main.c: 135:                 break;
   442  00004A  EF0D  F000         	goto	l2148
   443  00004E                     l174:
   444  00004E  0003               	sleep		;# 
   445                           
   446                           ;main.c: 141:                 break;
   447  000050  EF0D  F000         	goto	l2148
   448  000054                     l2154:
   449                           
   450                           ;main.c: 145:                 if(UpdateTimeFlag){
   451  000054  500F               	movf	_UpdateTimeFlag^0,w,c
   452  000056  B4D8               	btfsc	status,2,c
   453  000058  EF30  F000         	goto	u1531
   454  00005C  EF32  F000         	goto	u1530
   455  000060                     u1531:
   456  000060  EF50  F000         	goto	l2166
   457  000064                     u1530:
   458  000064                     
   459                           ;main.c: 147:                     UpdateCurrentTime();
   460  000064  EC07  F002         	call	_UpdateCurrentTime	;wreg free
   461  000068                     
   462                           ;main.c: 149:                     if(CurrentTime[2] == TargetTime[2] && CurrentTime[1] =
      +                          = TargetTime[1]) {
   463  000068  5032               	movf	(_TargetTime+2)^0,w,c
   464  00006A  181C               	xorwf	(_CurrentTime+2)^0,w,c
   465  00006C  A4D8               	btfss	status,2,c
   466  00006E  EF3B  F000         	goto	u1541
   467  000072  EF3D  F000         	goto	u1540
   468  000076                     u1541:
   469  000076  EF4A  F000         	goto	l2164
   470  00007A                     u1540:
   471  00007A  5031               	movf	(_TargetTime+1)^0,w,c
   472  00007C  181B               	xorwf	(_CurrentTime+1)^0,w,c
   473  00007E  A4D8               	btfss	status,2,c
   474  000080  EF44  F000         	goto	u1551
   475  000084  EF46  F000         	goto	u1550
   476  000088                     u1551:
   477  000088  EF4A  F000         	goto	l2164
   478  00008C                     u1550:
   479  00008C                     
   480                           ;main.c: 150:                         WaterEnable = 1;
   481  00008C  0E01               	movlw	1
   482  00008E  6E0E               	movwf	_WaterEnable^0,c
   483                           
   484                           ;main.c: 151:                     }else{
   485  000090  EF4E  F000         	goto	l178
   486  000094                     l2164:
   487                           
   488                           ;main.c: 152:                         WaterEnable = 0;
   489  000094  0E00               	movlw	0
   490  000096  6E0E               	movwf	_WaterEnable^0,c
   491                           
   492                           ;main.c: 153:                         WaterEnableLock = 0;
   493  000098  0E00               	movlw	0
   494  00009A  6E0D               	movwf	_WaterEnableLock^0,c
   495  00009C                     l178:
   496                           
   497                           ;main.c: 156:                     UpdateTimeFlag = 0;
   498  00009C  0E00               	movlw	0
   499  00009E  6E0F               	movwf	_UpdateTimeFlag^0,c
   500  0000A0                     l2166:
   501                           
   502                           ;main.c: 159:                 Display(CurrentTime[2], CurrentTime[1]);
   503  0000A0  C01B  F028         	movff	_CurrentTime+1,Display@Minutes
   504  0000A4  501C               	movf	(_CurrentTime+2)^0,w,c
   505  0000A6  EC97  F004         	call	_Display
   506  0000AA                     
   507                           ;main.c: 161:                 BlinkDigit(0);
   508  0000AA  0E00               	movlw	0
   509  0000AC  ECDC  F006         	call	_BlinkDigit
   510  0000B0                     
   511                           ;main.c: 163:                 if(WaterEnable == 1 && WaterEnableLock == 0) State = 10;
   512  0000B0  040E               	decf	_WaterEnable^0,w,c
   513  0000B2  A4D8               	btfss	status,2,c
   514  0000B4  EF5E  F000         	goto	u1561
   515  0000B8  EF60  F000         	goto	u1560
   516  0000BC                     u1561:
   517  0000BC  EF6C  F000         	goto	l2176
   518  0000C0                     u1560:
   519  0000C0  500D               	movf	_WaterEnableLock^0,w,c
   520  0000C2  A4D8               	btfss	status,2,c
   521  0000C4  EF66  F000         	goto	u1571
   522  0000C8  EF68  F000         	goto	u1570
   523  0000CC                     u1571:
   524  0000CC  EF6C  F000         	goto	l2176
   525  0000D0                     u1570:
   526  0000D0  0E0A               	movlw	10
   527  0000D2  6E10               	movwf	_State^0,c
   528  0000D4  EF0D  F000         	goto	l2148
   529  0000D8                     l2176:
   530  0000D8  501C               	movf	(_CurrentTime+2)^0,w,c
   531  0000DA  1803               	xorwf	(_WakeUpTime+2)^0,w,c
   532  0000DC  A4D8               	btfss	status,2,c
   533  0000DE  EF73  F000         	goto	u1581
   534  0000E2  EF75  F000         	goto	u1580
   535  0000E6                     u1581:
   536  0000E6  EF03  F002         	goto	l172
   537  0000EA                     u1580:
   538  0000EA  501B               	movf	(_CurrentTime+1)^0,w,c
   539  0000EC  1802               	xorwf	(_WakeUpTime+1)^0,w,c
   540  0000EE  A4D8               	btfss	status,2,c
   541  0000F0  EF7C  F000         	goto	u1591
   542  0000F4  EF7E  F000         	goto	u1590
   543  0000F8                     u1591:
   544  0000F8  EF03  F002         	goto	l172
   545  0000FC                     u1590:
   546  0000FC  0E02               	movlw	2
   547  0000FE  6E10               	movwf	_State^0,c
   548  000100  EF0D  F000         	goto	l2148
   549  000104                     l2182:
   550                           
   551                           ;main.c: 169:                 Display(TargetTime[2], TargetTime[1]);
   552  000104  C031  F028         	movff	_TargetTime+1,Display@Minutes
   553  000108  5032               	movf	(_TargetTime+2)^0,w,c
   554  00010A  EC97  F004         	call	_Display
   555                           
   556                           ;main.c: 170:                 BlinkDigit(1);
   557  00010E  0E01               	movlw	1
   558  000110  ECDC  F006         	call	_BlinkDigit
   559                           
   560                           ;main.c: 171:                 break;
   561  000114  EF0D  F000         	goto	l2148
   562  000118                     l2184:
   563                           
   564                           ;main.c: 174:                 Display(TargetTime[2], TargetTime[1]);
   565  000118  C031  F028         	movff	_TargetTime+1,Display@Minutes
   566  00011C  5032               	movf	(_TargetTime+2)^0,w,c
   567  00011E  EC97  F004         	call	_Display
   568                           
   569                           ;main.c: 175:                 BlinkDigit(2);
   570  000122  0E02               	movlw	2
   571  000124  ECDC  F006         	call	_BlinkDigit
   572                           
   573                           ;main.c: 176:                 break;
   574  000128  EF0D  F000         	goto	l2148
   575  00012C                     l2186:
   576                           
   577                           ;main.c: 179:                 Display(WateringTime[1], WateringTime[0]);
   578  00012C  C017  F028         	movff	_WateringTime,Display@Minutes
   579  000130  5018               	movf	(_WateringTime+1)^0,w,c
   580  000132  EC97  F004         	call	_Display
   581                           
   582                           ;main.c: 180:                 BlinkDigit(1);
   583  000136  0E01               	movlw	1
   584  000138  ECDC  F006         	call	_BlinkDigit
   585                           
   586                           ;main.c: 181:                 break;
   587  00013C  EF0D  F000         	goto	l2148
   588  000140                     l2188:
   589                           
   590                           ;main.c: 184:                 Display(WateringTime[1], WateringTime[0]);
   591  000140  C017  F028         	movff	_WateringTime,Display@Minutes
   592  000144  5018               	movf	(_WateringTime+1)^0,w,c
   593  000146  EC97  F004         	call	_Display
   594                           
   595                           ;main.c: 185:                 BlinkDigit(2);
   596  00014A  0E02               	movlw	2
   597  00014C  ECDC  F006         	call	_BlinkDigit
   598                           
   599                           ;main.c: 186:                 break;
   600  000150  EF0D  F000         	goto	l2148
   601  000154                     l2190:
   602                           
   603                           ;main.c: 189:                 Display(ValveTime[1], ValveTime[0]);
   604  000154  C014  F028         	movff	_ValveTime,Display@Minutes
   605  000158  5015               	movf	(_ValveTime+1)^0,w,c
   606  00015A  EC97  F004         	call	_Display
   607                           
   608                           ;main.c: 190:                 BlinkDigit(1);
   609  00015E  0E01               	movlw	1
   610  000160  ECDC  F006         	call	_BlinkDigit
   611                           
   612                           ;main.c: 191:                 break;
   613  000164  EF0D  F000         	goto	l2148
   614  000168                     l2192:
   615                           
   616                           ;main.c: 194:                 Display(ValveTime[1], ValveTime[0]);
   617  000168  C014  F028         	movff	_ValveTime,Display@Minutes
   618  00016C  5015               	movf	(_ValveTime+1)^0,w,c
   619  00016E  EC97  F004         	call	_Display
   620                           
   621                           ;main.c: 195:                 BlinkDigit(2);
   622  000172  0E02               	movlw	2
   623  000174  ECDC  F006         	call	_BlinkDigit
   624                           
   625                           ;main.c: 196:                 break;
   626  000178  EF0D  F000         	goto	l2148
   627  00017C                     l2194:
   628                           
   629                           ;main.c: 199:                 if(UpdateTimeFlag) {
   630  00017C  500F               	movf	_UpdateTimeFlag^0,w,c
   631  00017E  B4D8               	btfsc	status,2,c
   632  000180  EFC4  F000         	goto	u1601
   633  000184  EFC6  F000         	goto	u1600
   634  000188                     u1601:
   635  000188  EFF3  F000         	goto	l2212
   636  00018C                     u1600:
   637  00018C                     
   638                           ;main.c: 200:                     UpdateCurrentTime();
   639  00018C  EC07  F002         	call	_UpdateCurrentTime	;wreg free
   640  000190                     
   641                           ;main.c: 201:                     if(CurrentTime[0] != LastSecond){
   642  000190  5008               	movf	_LastSecond^0,w,c
   643  000192  181A               	xorwf	_CurrentTime^0,w,c
   644  000194  B4D8               	btfsc	status,2,c
   645  000196  EFCF  F000         	goto	u1611
   646  00019A  EFD1  F000         	goto	u1610
   647  00019E                     u1611:
   648  00019E  EFF1  F000         	goto	l2210
   649  0001A2                     u1610:
   650  0001A2                     
   651                           ;main.c: 203:                         if(AddBCD(CurrentWateringTime[0], 0x01) > 0x59){
   652  0001A2  0E01               	movlw	1
   653  0001A4  6E28               	movwf	AddBCD@Number2^0,c
   654  0001A6  5006               	movf	_CurrentWateringTime^0,w,c
   655  0001A8  EC03  F008         	call	_AddBCD
   656  0001AC  6E2E               	movwf	??_main^0,c
   657  0001AE  0E59               	movlw	89
   658  0001B0  642E               	cpfsgt	??_main^0,c
   659  0001B2  EFDD  F000         	goto	u1621
   660  0001B6  EFDF  F000         	goto	u1620
   661  0001BA                     u1621:
   662  0001BA  EFE9  F000         	goto	l2206
   663  0001BE                     u1620:
   664  0001BE                     
   665                           ;main.c: 204:                             CurrentWateringTime[1] = AddBCD(CurrentWaterin
      +                          gTime[1], 0x01);
   666  0001BE  0E01               	movlw	1
   667  0001C0  6E28               	movwf	AddBCD@Number2^0,c
   668  0001C2  5007               	movf	(_CurrentWateringTime+1)^0,w,c
   669  0001C4  EC03  F008         	call	_AddBCD
   670  0001C8  6E07               	movwf	(_CurrentWateringTime+1)^0,c
   671  0001CA                     
   672                           ;main.c: 205:                             CurrentWateringTime[0] = 0x00;
   673  0001CA  0E00               	movlw	0
   674  0001CC  6E06               	movwf	_CurrentWateringTime^0,c
   675                           
   676                           ;main.c: 206:                         }else CurrentWateringTime[0] = AddBCD(CurrentWater
      +                          ingTime[0], 0x01);
   677  0001CE  EFEF  F000         	goto	l2208
   678  0001D2                     l2206:
   679  0001D2  0E01               	movlw	1
   680  0001D4  6E28               	movwf	AddBCD@Number2^0,c
   681  0001D6  5006               	movf	_CurrentWateringTime^0,w,c
   682  0001D8  EC03  F008         	call	_AddBCD
   683  0001DC  6E06               	movwf	_CurrentWateringTime^0,c
   684  0001DE                     l2208:
   685                           
   686                           ;main.c: 208:                         LastSecond = CurrentTime[0];
   687  0001DE  C01A  F008         	movff	_CurrentTime,_LastSecond
   688  0001E2                     l2210:
   689                           
   690                           ;main.c: 211:                     UpdateTimeFlag = 0;
   691  0001E2  0E00               	movlw	0
   692  0001E4  6E0F               	movwf	_UpdateTimeFlag^0,c
   693  0001E6                     l2212:
   694                           
   695                           ;main.c: 213:                 PIE2bits.TMR3IE = 0;
   696  0001E6  92A0               	bcf	160,1,c	;volatile
   697  0001E8                     
   698                           ;main.c: 214:                 PIE1bits.TMR1IE = 0;
   699  0001E8  909D               	bcf	157,0,c	;volatile
   700  0001EA                     
   701                           ;main.c: 215:                 INTCONbits.INT0IE = 0;
   702  0001EA  98F2               	bcf	242,4,c	;volatile
   703  0001EC                     
   704                           ;main.c: 216:                 INTCON3bits.INT1IE = 0;
   705  0001EC  96F0               	bcf	240,3,c	;volatile
   706  0001EE                     
   707                           ;main.c: 217:                 INTCON3bits.INT2IE = 0;
   708  0001EE  98F0               	bcf	240,4,c	;volatile
   709  0001F0                     
   710                           ;main.c: 218:                 PORTCbits.RC0 = 0;
   711  0001F0  9082               	bcf	130,0,c	;volatile
   712  0001F2                     
   713                           ;main.c: 220:                 if(CurrentWateringTime[1] == 0x00 && CurrentWateringTime[0
      +                          ] == 0x01){
   714  0001F2  5007               	movf	(_CurrentWateringTime+1)^0,w,c
   715  0001F4  A4D8               	btfss	status,2,c
   716  0001F6  EFFF  F000         	goto	u1631
   717  0001FA  EF01  F001         	goto	u1630
   718  0001FE                     u1631:
   719  0001FE  EF0F  F001         	goto	l2232
   720  000202                     u1630:
   721  000202  0406               	decf	_CurrentWateringTime^0,w,c
   722  000204  A4D8               	btfss	status,2,c
   723  000206  EF07  F001         	goto	u1641
   724  00020A  EF09  F001         	goto	u1640
   725  00020E                     u1641:
   726  00020E  EF0F  F001         	goto	l2232
   727  000212                     u1640:
   728  000212                     
   729                           ;main.c: 221:                     CCP1CONbits.DC1B0 = 0;
   730  000212  98BD               	bcf	189,4,c	;volatile
   731                           
   732                           ;main.c: 222:                     CCP1CONbits.DC1B1 = 0;
   733  000214  9ABD               	bcf	189,5,c	;volatile
   734  000216                     
   735                           ;main.c: 223:                     CCPR1L = 0x19;
   736  000216  0E19               	movlw	25
   737  000218  6EBE               	movwf	190,c	;volatile
   738                           
   739                           ;main.c: 224:                 }else if(CurrentWateringTime[1] == 0x00 && CurrentWatering
      +                          Time[0] == 0x02){
   740  00021A  EF3A  F001         	goto	l2246
   741  00021E                     l2232:
   742  00021E  5007               	movf	(_CurrentWateringTime+1)^0,w,c
   743  000220  A4D8               	btfss	status,2,c
   744  000222  EF15  F001         	goto	u1651
   745  000226  EF17  F001         	goto	u1650
   746  00022A                     u1651:
   747  00022A  EF26  F001         	goto	l2240
   748  00022E                     u1650:
   749  00022E  0E02               	movlw	2
   750  000230  1806               	xorwf	_CurrentWateringTime^0,w,c
   751  000232  A4D8               	btfss	status,2,c
   752  000234  EF1E  F001         	goto	u1661
   753  000238  EF20  F001         	goto	u1660
   754  00023C                     u1661:
   755  00023C  EF26  F001         	goto	l2240
   756  000240                     u1660:
   757  000240                     
   758                           ;main.c: 225:                     CCP1CONbits.DC1B0 = 0;
   759  000240  98BD               	bcf	189,4,c	;volatile
   760                           
   761                           ;main.c: 226:                     CCP1CONbits.DC1B1 = 1;
   762  000242  8ABD               	bsf	189,5,c	;volatile
   763  000244                     
   764                           ;main.c: 227:                     CCPR1L = 0x25;
   765  000244  0E25               	movlw	37
   766  000246  6EBE               	movwf	190,c	;volatile
   767                           
   768                           ;main.c: 228:                 }else if(CurrentWateringTime[1] > 0x00 || CurrentWateringT
      +                          ime[0] >= 0x03){
   769  000248  EF3A  F001         	goto	l2246
   770  00024C                     l2240:
   771  00024C  5007               	movf	(_CurrentWateringTime+1)^0,w,c
   772  00024E  A4D8               	btfss	status,2,c
   773  000250  EF2C  F001         	goto	u1671
   774  000254  EF2E  F001         	goto	u1670
   775  000258                     u1671:
   776  000258  EF36  F001         	goto	l199
   777  00025C                     u1670:
   778  00025C  0E02               	movlw	2
   779  00025E  6406               	cpfsgt	_CurrentWateringTime^0,c
   780  000260  EF34  F001         	goto	u1681
   781  000264  EF36  F001         	goto	u1680
   782  000268                     u1681:
   783  000268  EF3A  F001         	goto	l2246
   784  00026C                     u1680:
   785  00026C                     l199:
   786                           
   787                           ;main.c: 229:                     CCP1CONbits.DC1B0 = 0;
   788  00026C  98BD               	bcf	189,4,c	;volatile
   789                           
   790                           ;main.c: 230:                     CCP1CONbits.DC1B1 = 0;
   791  00026E  9ABD               	bcf	189,5,c	;volatile
   792  000270                     
   793                           ;main.c: 231:                     CCPR1L = 0x32;
   794  000270  0E32               	movlw	50
   795  000272  6EBE               	movwf	190,c	;volatile
   796  000274                     l2246:
   797                           
   798                           ;main.c: 233:                 BlinkDigit(0);
   799  000274  0E00               	movlw	0
   800  000276  ECDC  F006         	call	_BlinkDigit
   801  00027A                     
   802                           ;main.c: 234:                 Display(CurrentWateringTime[1], CurrentWateringTime[0]);
   803  00027A  C006  F028         	movff	_CurrentWateringTime,Display@Minutes
   804  00027E  5007               	movf	(_CurrentWateringTime+1)^0,w,c
   805  000280  EC97  F004         	call	_Display
   806  000284                     
   807                           ;main.c: 236:                 if(CurrentWateringTime[1] == WateringTime[1] && CurrentWat
      +                          eringTime[0] == WateringTime[0]){
   808  000284  5018               	movf	(_WateringTime+1)^0,w,c
   809  000286  1807               	xorwf	(_CurrentWateringTime+1)^0,w,c
   810  000288  A4D8               	btfss	status,2,c
   811  00028A  EF49  F001         	goto	u1691
   812  00028E  EF4B  F001         	goto	u1690
   813  000292                     u1691:
   814  000292  EF0D  F000         	goto	l2148
   815  000296                     u1690:
   816  000296  5017               	movf	_WateringTime^0,w,c
   817  000298  1806               	xorwf	_CurrentWateringTime^0,w,c
   818  00029A  A4D8               	btfss	status,2,c
   819  00029C  EF52  F001         	goto	u1701
   820  0002A0  EF54  F001         	goto	u1700
   821  0002A4                     u1701:
   822  0002A4  EF0D  F000         	goto	l2148
   823  0002A8                     u1700:
   824  0002A8                     
   825                           ;main.c: 237:                     CCP1CONbits.DC1B0 = 0;
   826  0002A8  98BD               	bcf	189,4,c	;volatile
   827                           
   828                           ;main.c: 238:                     CCP1CONbits.DC1B1 = 0;
   829  0002AA  9ABD               	bcf	189,5,c	;volatile
   830  0002AC                     
   831                           ;main.c: 239:                     CCPR1L = 0x00;
   832  0002AC  0E00               	movlw	0
   833  0002AE  6EBE               	movwf	190,c	;volatile
   834                           
   835                           ;main.c: 240:                     CurrentWateringTime[0] = 0x00;
   836  0002B0  0E00               	movlw	0
   837  0002B2  6E06               	movwf	_CurrentWateringTime^0,c
   838                           
   839                           ;main.c: 241:                     CurrentWateringTime[1] = 0x00;
   840  0002B4  0E00               	movlw	0
   841  0002B6  6E07               	movwf	(_CurrentWateringTime+1)^0,c
   842                           
   843                           ;main.c: 242:                     LastSecond = 0x00;
   844  0002B8  0E00               	movlw	0
   845  0002BA  6E08               	movwf	_LastSecond^0,c
   846                           
   847                           ;main.c: 243:                     State = 11;
   848  0002BC  0E0B               	movlw	11
   849  0002BE  6E10               	movwf	_State^0,c
   850  0002C0  EF0D  F000         	goto	l2148
   851  0002C4                     l2258:
   852                           
   853                           ;main.c: 248:                 if(UpdateTimeFlag) {
   854  0002C4  500F               	movf	_UpdateTimeFlag^0,w,c
   855  0002C6  B4D8               	btfsc	status,2,c
   856  0002C8  EF68  F001         	goto	u1711
   857  0002CC  EF6A  F001         	goto	u1710
   858  0002D0                     u1711:
   859  0002D0  EF97  F001         	goto	l2276
   860  0002D4                     u1710:
   861  0002D4                     
   862                           ;main.c: 249:                     UpdateCurrentTime();
   863  0002D4  EC07  F002         	call	_UpdateCurrentTime	;wreg free
   864  0002D8                     
   865                           ;main.c: 250:                     if(CurrentTime[0] != LastSecond){
   866  0002D8  5008               	movf	_LastSecond^0,w,c
   867  0002DA  181A               	xorwf	_CurrentTime^0,w,c
   868  0002DC  B4D8               	btfsc	status,2,c
   869  0002DE  EF73  F001         	goto	u1721
   870  0002E2  EF75  F001         	goto	u1720
   871  0002E6                     u1721:
   872  0002E6  EF95  F001         	goto	l2274
   873  0002EA                     u1720:
   874  0002EA                     
   875                           ;main.c: 252:                         if(AddBCD(CurrentValveTime[0], 0x01) > 0x59){
   876  0002EA  0E01               	movlw	1
   877  0002EC  6E28               	movwf	AddBCD@Number2^0,c
   878  0002EE  5004               	movf	_CurrentValveTime^0,w,c
   879  0002F0  EC03  F008         	call	_AddBCD
   880  0002F4  6E2E               	movwf	??_main^0,c
   881  0002F6  0E59               	movlw	89
   882  0002F8  642E               	cpfsgt	??_main^0,c
   883  0002FA  EF81  F001         	goto	u1731
   884  0002FE  EF83  F001         	goto	u1730
   885  000302                     u1731:
   886  000302  EF8D  F001         	goto	l2270
   887  000306                     u1730:
   888  000306                     
   889                           ;main.c: 253:                             CurrentValveTime[1] = AddBCD(CurrentValveTime[
      +                          1], 0x01);
   890  000306  0E01               	movlw	1
   891  000308  6E28               	movwf	AddBCD@Number2^0,c
   892  00030A  5005               	movf	(_CurrentValveTime+1)^0,w,c
   893  00030C  EC03  F008         	call	_AddBCD
   894  000310  6E05               	movwf	(_CurrentValveTime+1)^0,c
   895  000312                     
   896                           ;main.c: 254:                             CurrentValveTime[0] = 0x00;
   897  000312  0E00               	movlw	0
   898  000314  6E04               	movwf	_CurrentValveTime^0,c
   899                           
   900                           ;main.c: 255:                         }else CurrentValveTime[0] = AddBCD(CurrentValveTim
      +                          e[0], 0x01);
   901  000316  EF93  F001         	goto	l2272
   902  00031A                     l2270:
   903  00031A  0E01               	movlw	1
   904  00031C  6E28               	movwf	AddBCD@Number2^0,c
   905  00031E  5004               	movf	_CurrentValveTime^0,w,c
   906  000320  EC03  F008         	call	_AddBCD
   907  000324  6E04               	movwf	_CurrentValveTime^0,c
   908  000326                     l2272:
   909                           
   910                           ;main.c: 257:                         LastSecond = CurrentTime[0];
   911  000326  C01A  F008         	movff	_CurrentTime,_LastSecond
   912  00032A                     l2274:
   913                           
   914                           ;main.c: 260:                     UpdateTimeFlag = 0;
   915  00032A  0E00               	movlw	0
   916  00032C  6E0F               	movwf	_UpdateTimeFlag^0,c
   917  00032E                     l2276:
   918                           
   919                           ;main.c: 263:                 PORTCbits.RC0 = 0;
   920  00032E  9082               	bcf	130,0,c	;volatile
   921  000330                     
   922                           ;main.c: 266:                 PORTCbits.RC5 = 1;
   923  000330  8A82               	bsf	130,5,c	;volatile
   924  000332                     
   925                           ;main.c: 268:                 Display(CurrentValveTime[1], CurrentValveTime[0]);
   926  000332  C004  F028         	movff	_CurrentValveTime,Display@Minutes
   927  000336  5005               	movf	(_CurrentValveTime+1)^0,w,c
   928  000338  EC97  F004         	call	_Display
   929  00033C                     
   930                           ;main.c: 270:                 if(CurrentValveTime[1] == ValveTime[1] && CurrentValveTime
      +                          [0] == ValveTime[0]){
   931  00033C  5015               	movf	(_ValveTime+1)^0,w,c
   932  00033E  1805               	xorwf	(_CurrentValveTime+1)^0,w,c
   933  000340  A4D8               	btfss	status,2,c
   934  000342  EFA5  F001         	goto	u1741
   935  000346  EFA7  F001         	goto	u1740
   936  00034A                     u1741:
   937  00034A  EF0D  F000         	goto	l2148
   938  00034E                     u1740:
   939  00034E  5014               	movf	_ValveTime^0,w,c
   940  000350  1804               	xorwf	_CurrentValveTime^0,w,c
   941  000352  A4D8               	btfss	status,2,c
   942  000354  EFAE  F001         	goto	u1751
   943  000358  EFB0  F001         	goto	u1750
   944  00035C                     u1751:
   945  00035C  EF0D  F000         	goto	l2148
   946  000360                     u1750:
   947  000360                     
   948                           ;main.c: 273:                     PORTCbits.RC5 = 0;
   949  000360  9A82               	bcf	130,5,c	;volatile
   950                           
   951                           ;main.c: 274:                     PIE2bits.TMR3IE = 1;
   952  000362  82A0               	bsf	160,1,c	;volatile
   953                           
   954                           ;main.c: 275:                     PIE1bits.TMR1IE = 1;
   955  000364  809D               	bsf	157,0,c	;volatile
   956                           
   957                           ;main.c: 276:                     INTCONbits.INT0IE = 1;
   958  000366  88F2               	bsf	242,4,c	;volatile
   959                           
   960                           ;main.c: 277:                     INTCON3bits.INT1IE = 1;
   961  000368  86F0               	bsf	240,3,c	;volatile
   962                           
   963                           ;main.c: 278:                     INTCON3bits.INT2IE = 1;
   964  00036A  88F0               	bsf	240,4,c	;volatile
   965  00036C                     
   966                           ;main.c: 280:                     WaterEnable = 0;
   967  00036C  0E00               	movlw	0
   968  00036E  6E0E               	movwf	_WaterEnable^0,c
   969                           
   970                           ;main.c: 281:                     WaterEnableLock = 1;
   971  000370  0E01               	movlw	1
   972  000372  6E0D               	movwf	_WaterEnableLock^0,c
   973  000374                     
   974                           ;main.c: 282:                     WakeUp();
   975  000374  ECFB  F005         	call	_WakeUp	;wreg free
   976  000378                     
   977                           ;main.c: 283:                     CurrentValveTime[0] = 0x00;
   978  000378  0E00               	movlw	0
   979  00037A  6E04               	movwf	_CurrentValveTime^0,c
   980  00037C                     
   981                           ;main.c: 284:                     CurrentValveTime[1] = 0x00;
   982  00037C  0E00               	movlw	0
   983  00037E  6E05               	movwf	(_CurrentValveTime+1)^0,c
   984  000380                     
   985                           ;main.c: 285:                     LastSecond = 0x00;
   986  000380  0E00               	movlw	0
   987  000382  6E08               	movwf	_LastSecond^0,c
   988  000384                     
   989                           ;main.c: 286:                     State = 3;
   990  000384  0E03               	movlw	3
   991  000386  6E10               	movwf	_State^0,c
   992  000388  EF0D  F000         	goto	l2148
   993  00038C                     l2302:
   994  00038C  5010               	movf	_State^0,w,c
   995  00038E  6E2E               	movwf	??_main^0,c
   996  000390  6A2F               	clrf	(??_main+1)^0,c
   997                           
   998                           ; Switch on 2 bytes has been partitioned into a top level switch of size 1, and 1 sub-sw
      +                          itches
   999                           ; Switch size 1, requested type "simple"
  1000                           ; Number of cases is 1, Range of values is 0 to 0
  1001                           ; switch strategies available:
  1002                           ; Name         Instructions Cycles
  1003                           ; simple_byte            4     3 (average)
  1004                           ;	Chosen strategy is simple_byte
  1005  000392  502F               	movf	(??_main+1)^0,w,c
  1006  000394  0A00               	xorlw	0	; case 0
  1007  000396  B4D8               	btfsc	status,2,c
  1008  000398  EFD0  F001         	goto	l2344
  1009  00039C  EF0D  F000         	goto	l2148
  1010  0003A0                     l2344:
  1011                           
  1012                           ; Switch size 1, requested type "simple"
  1013                           ; Number of cases is 12, Range of values is 0 to 11
  1014                           ; switch strategies available:
  1015                           ; Name         Instructions Cycles
  1016                           ; simple_byte           37    19 (average)
  1017                           ;	Chosen strategy is simple_byte
  1018  0003A0  502E               	movf	??_main^0,w,c
  1019  0003A2  0A00               	xorlw	0	; case 0
  1020  0003A4  B4D8               	btfsc	status,2,c
  1021  0003A6  EF13  F000         	goto	l2150
  1022  0003AA  0A01               	xorlw	1	; case 1
  1023  0003AC  B4D8               	btfsc	status,2,c
  1024  0003AE  EF1D  F000         	goto	l2152
  1025  0003B2  0A03               	xorlw	3	; case 2
  1026  0003B4  B4D8               	btfsc	status,2,c
  1027  0003B6  EF27  F000         	goto	l174
  1028  0003BA  0A01               	xorlw	1	; case 3
  1029  0003BC  B4D8               	btfsc	status,2,c
  1030  0003BE  EF2A  F000         	goto	l2154
  1031  0003C2  0A07               	xorlw	7	; case 4
  1032  0003C4  B4D8               	btfsc	status,2,c
  1033  0003C6  EF82  F000         	goto	l2182
  1034  0003CA  0A01               	xorlw	1	; case 5
  1035  0003CC  B4D8               	btfsc	status,2,c
  1036  0003CE  EF8C  F000         	goto	l2184
  1037  0003D2  0A03               	xorlw	3	; case 6
  1038  0003D4  B4D8               	btfsc	status,2,c
  1039  0003D6  EF96  F000         	goto	l2186
  1040  0003DA  0A01               	xorlw	1	; case 7
  1041  0003DC  B4D8               	btfsc	status,2,c
  1042  0003DE  EFA0  F000         	goto	l2188
  1043  0003E2  0A0F               	xorlw	15	; case 8
  1044  0003E4  B4D8               	btfsc	status,2,c
  1045  0003E6  EFAA  F000         	goto	l2190
  1046  0003EA  0A01               	xorlw	1	; case 9
  1047  0003EC  B4D8               	btfsc	status,2,c
  1048  0003EE  EFB4  F000         	goto	l2192
  1049  0003F2  0A03               	xorlw	3	; case 10
  1050  0003F4  B4D8               	btfsc	status,2,c
  1051  0003F6  EFBE  F000         	goto	l2194
  1052  0003FA  0A01               	xorlw	1	; case 11
  1053  0003FC  B4D8               	btfsc	status,2,c
  1054  0003FE  EF62  F001         	goto	l2258
  1055  000402  EF0D  F000         	goto	l2148
  1056  000406                     l172:
  1057  000406  EF0D  F000         	goto	l2148
  1058  00040A  EF07  F000         	goto	start
  1059  00040E                     __end_of_main:
  1060                           	callstack 0
  1061                           
  1062 ;; *************** function _WakeUp *****************
  1063 ;; Defined at:
  1064 ;;		line 652 in file "main.c"
  1065 ;; Parameters:    Size  Location     Type
  1066 ;;		None
  1067 ;; Auto vars:     Size  Location     Type
  1068 ;;		None
  1069 ;; Return value:  Size  Location     Type
  1070 ;;                  1    wreg      void 
  1071 ;; Registers used:
  1072 ;;		wreg, status,2, status,0, cstack
  1073 ;; Tracked objects:
  1074 ;;		On entry : 0/0
  1075 ;;		On exit  : 0/0
  1076 ;;		Unchanged: 0/0
  1077 ;; Data sizes:     COMRAM   BANK0   BANK1   BANK2   BANK3   BANK4   BANK5   BANK6   BANK7   BANK8   BANK9  BANK10  BANK1
      +1  BANK12  BANK13  BANK14  BANK15
  1078 ;;      Params:         0       0       0       0       0       0       0       0       0       0       0       0       
      +0       0       0       0       0
  1079 ;;      Locals:         0       0       0       0       0       0       0       0       0       0       0       0       
      +0       0       0       0       0
  1080 ;;      Temps:          1       0       0       0       0       0       0       0       0       0       0       0       
      +0       0       0       0       0
  1081 ;;      Totals:         1       0       0       0       0       0       0       0       0       0       0       0       
      +0       0       0       0       0
  1082 ;;Total ram usage:        1 bytes
  1083 ;; Hardware stack levels used: 1
  1084 ;; Hardware stack levels required when called: 5
  1085 ;; This function calls:
  1086 ;;		_AddBCD
  1087 ;;		_SubBCD
  1088 ;;		_UpdateCurrentTime
  1089 ;; This function is called by:
  1090 ;;		_main
  1091 ;; This function uses a non-reentrant model
  1092 ;;
  1093                           
  1094                           	psect	text1
  1095  000BF6                     __ptext1:
  1096                           	callstack 0
  1097  000BF6                     _WakeUp:
  1098                           	callstack 25
  1099  000BF6                     
  1100                           ;main.c: 653:     UpdateCurrentTime();
  1101  000BF6  EC07  F002         	call	_UpdateCurrentTime	;wreg free
  1102  000BFA                     
  1103                           ;main.c: 655:     if (AddBCD(CurrentTime[1], 0x02) > 0x59) {
  1104  000BFA  0E02               	movlw	2
  1105  000BFC  6E28               	movwf	AddBCD@Number2^0,c
  1106  000BFE  501B               	movf	(_CurrentTime+1)^0,w,c
  1107  000C00  EC03  F008         	call	_AddBCD
  1108  000C04  6E2C               	movwf	??_WakeUp^0,c
  1109  000C06  0E59               	movlw	89
  1110  000C08  642C               	cpfsgt	??_WakeUp^0,c
  1111  000C0A  EF09  F006         	goto	u1451
  1112  000C0E  EF0B  F006         	goto	u1450
  1113  000C12                     u1451:
  1114  000C12  EF3D  F006         	goto	l306
  1115  000C16                     u1450:
  1116  000C16                     
  1117                           ;main.c: 656:         if(AddBCD(CurrentTime[1], 0x01) > 0x23){
  1118  000C16  0E01               	movlw	1
  1119  000C18  6E28               	movwf	AddBCD@Number2^0,c
  1120  000C1A  501B               	movf	(_CurrentTime+1)^0,w,c
  1121  000C1C  EC03  F008         	call	_AddBCD
  1122  000C20  6E2C               	movwf	??_WakeUp^0,c
  1123  000C22  0E23               	movlw	35
  1124  000C24  642C               	cpfsgt	??_WakeUp^0,c
  1125  000C26  EF17  F006         	goto	u1461
  1126  000C2A  EF19  F006         	goto	u1460
  1127  000C2E                     u1461:
  1128  000C2E  EF29  F006         	goto	l1998
  1129  000C32                     u1460:
  1130  000C32                     
  1131                           ;main.c: 657:             WakeUpTime[2] = 0x00;
  1132  000C32  0E00               	movlw	0
  1133  000C34  6E03               	movwf	(_WakeUpTime+2)^0,c
  1134  000C36                     
  1135                           ;main.c: 658:             WakeUpTime[1] = AddBCD(CurrentTime[1], 0x02);
  1136  000C36  0E02               	movlw	2
  1137  000C38  6E28               	movwf	AddBCD@Number2^0,c
  1138  000C3A  501B               	movf	(_CurrentTime+1)^0,w,c
  1139  000C3C  EC03  F008         	call	_AddBCD
  1140  000C40  6E02               	movwf	(_WakeUpTime+1)^0,c
  1141  000C42                     
  1142                           ;main.c: 659:             WakeUpTime[1] = SubBCD(CurrentTime[1], 0x60);
  1143  000C42  0E60               	movlw	96
  1144  000C44  6E28               	movwf	SubBCD@Number2^0,c
  1145  000C46  501B               	movf	(_CurrentTime+1)^0,w,c
  1146  000C48  ECED  F007         	call	_SubBCD
  1147  000C4C  6E02               	movwf	(_WakeUpTime+1)^0,c
  1148                           
  1149                           ;main.c: 660:         }else{
  1150  000C4E  EF45  F006         	goto	l2002
  1151  000C52                     l1998:
  1152                           
  1153                           ;main.c: 661:             WakeUpTime[2] = AddBCD(CurrentTime[2], 0x01);
  1154  000C52  0E01               	movlw	1
  1155  000C54  6E28               	movwf	AddBCD@Number2^0,c
  1156  000C56  501C               	movf	(_CurrentTime+2)^0,w,c
  1157  000C58  EC03  F008         	call	_AddBCD
  1158  000C5C  6E03               	movwf	(_WakeUpTime+2)^0,c
  1159                           
  1160                           ;main.c: 662:             WakeUpTime[1] = AddBCD(CurrentTime[1], 0x02);
  1161  000C5E  0E02               	movlw	2
  1162  000C60  6E28               	movwf	AddBCD@Number2^0,c
  1163  000C62  501B               	movf	(_CurrentTime+1)^0,w,c
  1164  000C64  EC03  F008         	call	_AddBCD
  1165  000C68  6E02               	movwf	(_WakeUpTime+1)^0,c
  1166                           
  1167                           ;main.c: 663:             WakeUpTime[1] = SubBCD(CurrentTime[1], 0x60);
  1168  000C6A  0E60               	movlw	96
  1169  000C6C  6E28               	movwf	SubBCD@Number2^0,c
  1170  000C6E  501B               	movf	(_CurrentTime+1)^0,w,c
  1171  000C70  ECED  F007         	call	_SubBCD
  1172  000C74  6E02               	movwf	(_WakeUpTime+1)^0,c
  1173  000C76  EF45  F006         	goto	l2002
  1174  000C7A                     l306:
  1175                           
  1176                           ;main.c: 666:         WakeUpTime[2] = CurrentTime[2];
  1177  000C7A  C01C  F003         	movff	_CurrentTime+2,_WakeUpTime+2
  1178  000C7E                     
  1179                           ;main.c: 667:         WakeUpTime[1] = AddBCD(CurrentTime[1], 0x02);
  1180  000C7E  0E02               	movlw	2
  1181  000C80  6E28               	movwf	AddBCD@Number2^0,c
  1182  000C82  501B               	movf	(_CurrentTime+1)^0,w,c
  1183  000C84  EC03  F008         	call	_AddBCD
  1184  000C88  6E02               	movwf	(_WakeUpTime+1)^0,c
  1185  000C8A                     l2002:
  1186                           
  1187                           ;main.c: 669:     UpdateTimeFlag = 1;
  1188  000C8A  0E01               	movlw	1
  1189  000C8C  6E0F               	movwf	_UpdateTimeFlag^0,c
  1190  000C8E  0012               	return		;funcret
  1191  000C90                     __end_of_WakeUp:
  1192                           	callstack 0
  1193                           
  1194 ;; *************** function _UpdateCurrentTime *****************
  1195 ;; Defined at:
  1196 ;;		line 868 in file "main.c"
  1197 ;; Parameters:    Size  Location     Type
  1198 ;;		None
  1199 ;; Auto vars:     Size  Location     Type
  1200 ;;		None
  1201 ;; Return value:  Size  Location     Type
  1202 ;;                  1    wreg      void 
  1203 ;; Registers used:
  1204 ;;		wreg, status,2
  1205 ;; Tracked objects:
  1206 ;;		On entry : 0/0
  1207 ;;		On exit  : 0/0
  1208 ;;		Unchanged: 0/0
  1209 ;; Data sizes:     COMRAM   BANK0   BANK1   BANK2   BANK3   BANK4   BANK5   BANK6   BANK7   BANK8   BANK9  BANK10  BANK1
      +1  BANK12  BANK13  BANK14  BANK15
  1210 ;;      Params:         0       0       0       0       0       0       0       0       0       0       0       0       
      +0       0       0       0       0
  1211 ;;      Locals:         0       0       0       0       0       0       0       0       0       0       0       0       
      +0       0       0       0       0
  1212 ;;      Temps:          0       0       0       0       0       0       0       0       0       0       0       0       
      +0       0       0       0       0
  1213 ;;      Totals:         0       0       0       0       0       0       0       0       0       0       0       0       
      +0       0       0       0       0
  1214 ;;Total ram usage:        0 bytes
  1215 ;; Hardware stack levels used: 1
  1216 ;; Hardware stack levels required when called: 4
  1217 ;; This function calls:
  1218 ;;		Nothing
  1219 ;; This function is called by:
  1220 ;;		_main
  1221 ;;		_WakeUp
  1222 ;; This function uses a non-reentrant model
  1223 ;;
  1224                           
  1225                           	psect	text2
  1226  00040E                     __ptext2:
  1227                           	callstack 0
  1228  00040E                     _UpdateCurrentTime:
  1229                           	callstack 25
  1230  00040E                     
  1231                           ;main.c: 869:     SSPCON2bits.SEN = 1;
  1232  00040E  80C5               	bsf	197,0,c	;volatile
  1233  000410                     l436:
  1234  000410  B0C5               	btfsc	4037,0,c	;volatile
  1235  000412  EF0D  F002         	goto	u291
  1236  000416  EF0F  F002         	goto	u290
  1237  00041A                     u291:
  1238  00041A  EF08  F002         	goto	l436
  1239  00041E                     u290:
  1240  00041E                     
  1241                           ;main.c: 871:     PIR1bits.SSPIF = 0;
  1242  00041E  969E               	bcf	158,3,c	;volatile
  1243  000420                     
  1244                           ;main.c: 873:     SSPBUF = 0xD0;
  1245  000420  0ED0               	movlw	208
  1246  000422  6EC9               	movwf	201,c	;volatile
  1247  000424                     l439:
  1248  000424  A69E               	btfss	3998,3,c	;volatile
  1249  000426  EF17  F002         	goto	u301
  1250  00042A  EF19  F002         	goto	u300
  1251  00042E                     u301:
  1252  00042E  EF12  F002         	goto	l439
  1253  000432                     u300:
  1254  000432                     
  1255                           ;main.c: 875:     PIR1bits.SSPIF = 0;
  1256  000432  969E               	bcf	158,3,c	;volatile
  1257                           
  1258                           ;main.c: 876:     if (SSPCON2bits.ACKSTAT){
  1259  000434  ACC5               	btfss	197,6,c	;volatile
  1260  000436  EF1F  F002         	goto	u311
  1261  00043A  EF21  F002         	goto	u310
  1262  00043E                     u311:
  1263  00043E  EF2B  F002         	goto	l1254
  1264  000442                     u310:
  1265  000442                     
  1266                           ;main.c: 877:         SSPCON2bits.PEN = 1;
  1267  000442  84C5               	bsf	197,2,c	;volatile
  1268  000444                     l443:
  1269  000444  B4C5               	btfsc	4037,2,c	;volatile
  1270  000446  EF27  F002         	goto	u321
  1271  00044A  EF29  F002         	goto	u320
  1272  00044E                     u321:
  1273  00044E  EF22  F002         	goto	l443
  1274  000452                     u320:
  1275  000452  EFAB  F002         	goto	l446
  1276  000456                     l1254:
  1277                           
  1278                           ;main.c: 882:     SSPBUF = 0;
  1279  000456  0E00               	movlw	0
  1280  000458  6EC9               	movwf	201,c	;volatile
  1281  00045A                     l447:
  1282  00045A  A69E               	btfss	3998,3,c	;volatile
  1283  00045C  EF32  F002         	goto	u331
  1284  000460  EF34  F002         	goto	u330
  1285  000464                     u331:
  1286  000464  EF2D  F002         	goto	l447
  1287  000468                     u330:
  1288  000468                     
  1289                           ;main.c: 884:     PIR1bits.SSPIF = 0;
  1290  000468  969E               	bcf	158,3,c	;volatile
  1291                           
  1292                           ;main.c: 885:     if (SSPCON2bits.ACKSTAT){
  1293  00046A  ACC5               	btfss	197,6,c	;volatile
  1294  00046C  EF3A  F002         	goto	u341
  1295  000470  EF3C  F002         	goto	u340
  1296  000474                     u341:
  1297  000474  EF46  F002         	goto	l450
  1298  000478                     u340:
  1299  000478                     
  1300                           ;main.c: 886:         SSPCON2bits.PEN = 1;
  1301  000478  84C5               	bsf	197,2,c	;volatile
  1302  00047A                     l451:
  1303  00047A  B4C5               	btfsc	4037,2,c	;volatile
  1304  00047C  EF42  F002         	goto	u351
  1305  000480  EF44  F002         	goto	u350
  1306  000484                     u351:
  1307  000484  EF3D  F002         	goto	l451
  1308  000488                     u350:
  1309  000488  EFAB  F002         	goto	l446
  1310  00048C                     l450:
  1311                           
  1312                           ;main.c: 891:     SSPCON2bits.RSEN = 1;
  1313  00048C  82C5               	bsf	197,1,c	;volatile
  1314  00048E                     l454:
  1315  00048E  B2C5               	btfsc	197,1,c	;volatile
  1316  000490  EF4C  F002         	goto	u361
  1317  000494  EF4E  F002         	goto	u360
  1318  000498                     u361:
  1319  000498  EF47  F002         	goto	l454
  1320  00049C                     u360:
  1321  00049C                     
  1322                           ;main.c: 893:     PIR1bits.SSPIF = 0;
  1323  00049C  969E               	bcf	158,3,c	;volatile
  1324  00049E                     
  1325                           ;main.c: 895:     SSPBUF = 0xD1;
  1326  00049E  0ED1               	movlw	209
  1327  0004A0  6EC9               	movwf	201,c	;volatile
  1328  0004A2                     l457:
  1329  0004A2  A69E               	btfss	3998,3,c	;volatile
  1330  0004A4  EF56  F002         	goto	u371
  1331  0004A8  EF58  F002         	goto	u370
  1332  0004AC                     u371:
  1333  0004AC  EF51  F002         	goto	l457
  1334  0004B0                     u370:
  1335  0004B0                     
  1336                           ;main.c: 897:     PIR1bits.SSPIF = 0;
  1337  0004B0  969E               	bcf	158,3,c	;volatile
  1338                           
  1339                           ;main.c: 898:     if (SSPCON2bits.ACKSTAT){
  1340  0004B2  ACC5               	btfss	197,6,c	;volatile
  1341  0004B4  EF5E  F002         	goto	u381
  1342  0004B8  EF60  F002         	goto	u380
  1343  0004BC                     u381:
  1344  0004BC  EF6A  F002         	goto	l460
  1345  0004C0                     u380:
  1346  0004C0                     
  1347                           ;main.c: 899:         SSPCON2bits.PEN = 1;
  1348  0004C0  84C5               	bsf	197,2,c	;volatile
  1349  0004C2                     l461:
  1350  0004C2  B4C5               	btfsc	4037,2,c	;volatile
  1351  0004C4  EF66  F002         	goto	u391
  1352  0004C8  EF68  F002         	goto	u390
  1353  0004CC                     u391:
  1354  0004CC  EF61  F002         	goto	l461
  1355  0004D0                     u390:
  1356  0004D0  EFAB  F002         	goto	l446
  1357  0004D4                     l460:
  1358                           
  1359                           ;main.c: 904:     SSPCON2bits.RCEN = 1;
  1360  0004D4  86C5               	bsf	197,3,c	;volatile
  1361  0004D6                     l464:
  1362  0004D6  A0C7               	btfss	199,0,c	;volatile
  1363  0004D8  EF70  F002         	goto	u401
  1364  0004DC  EF72  F002         	goto	u400
  1365  0004E0                     u401:
  1366  0004E0  EF6B  F002         	goto	l464
  1367  0004E4                     u400:
  1368  0004E4                     
  1369                           ;main.c: 906:     CurrentTime[0] = SSPBUF;
  1370  0004E4  CFC9 F01A          	movff	4041,_CurrentTime	;volatile
  1371                           
  1372                           ;main.c: 908:     SSPCON2bits.ACKDT = 0;
  1373  0004E8  9AC5               	bcf	197,5,c	;volatile
  1374                           
  1375                           ;main.c: 909:     SSPCON2bits.ACKEN = 1;
  1376  0004EA  88C5               	bsf	197,4,c	;volatile
  1377  0004EC                     l467:
  1378  0004EC  B8C5               	btfsc	4037,4,c	;volatile
  1379  0004EE  EF7B  F002         	goto	u411
  1380  0004F2  EF7D  F002         	goto	u410
  1381  0004F6                     u411:
  1382  0004F6  EF76  F002         	goto	l467
  1383  0004FA                     u410:
  1384  0004FA                     
  1385                           ;main.c: 912:     SSPCON2bits.RCEN = 1;
  1386  0004FA  86C5               	bsf	197,3,c	;volatile
  1387  0004FC                     l470:
  1388  0004FC  A0C7               	btfss	199,0,c	;volatile
  1389  0004FE  EF83  F002         	goto	u421
  1390  000502  EF85  F002         	goto	u420
  1391  000506                     u421:
  1392  000506  EF7E  F002         	goto	l470
  1393  00050A                     u420:
  1394  00050A                     
  1395                           ;main.c: 914:     CurrentTime[1] = SSPBUF;
  1396  00050A  CFC9 F01B          	movff	4041,_CurrentTime+1	;volatile
  1397                           
  1398                           ;main.c: 916:     SSPCON2bits.ACKDT = 0;
  1399  00050E  9AC5               	bcf	197,5,c	;volatile
  1400                           
  1401                           ;main.c: 917:     SSPCON2bits.ACKEN = 1;
  1402  000510  88C5               	bsf	197,4,c	;volatile
  1403  000512                     l473:
  1404  000512  B8C5               	btfsc	4037,4,c	;volatile
  1405  000514  EF8E  F002         	goto	u431
  1406  000518  EF90  F002         	goto	u430
  1407  00051C                     u431:
  1408  00051C  EF89  F002         	goto	l473
  1409  000520                     u430:
  1410  000520                     
  1411                           ;main.c: 920:     SSPCON2bits.RCEN = 1;
  1412  000520  86C5               	bsf	197,3,c	;volatile
  1413  000522                     l476:
  1414  000522  A0C7               	btfss	199,0,c	;volatile
  1415  000524  EF96  F002         	goto	u441
  1416  000528  EF98  F002         	goto	u440
  1417  00052C                     u441:
  1418  00052C  EF91  F002         	goto	l476
  1419  000530                     u440:
  1420  000530                     
  1421                           ;main.c: 922:     CurrentTime[2] = SSPBUF;
  1422  000530  CFC9 F01C          	movff	4041,_CurrentTime+2	;volatile
  1423                           
  1424                           ;main.c: 924:     SSPCON2bits.ACKDT = 1;
  1425  000534  8AC5               	bsf	197,5,c	;volatile
  1426                           
  1427                           ;main.c: 925:     SSPCON2bits.ACKEN = 1;
  1428  000536  88C5               	bsf	197,4,c	;volatile
  1429  000538                     l479:
  1430  000538  B8C5               	btfsc	4037,4,c	;volatile
  1431  00053A  EFA1  F002         	goto	u451
  1432  00053E  EFA3  F002         	goto	u450
  1433  000542                     u451:
  1434  000542  EF9C  F002         	goto	l479
  1435  000546                     u450:
  1436  000546                     
  1437                           ;main.c: 928:     SSPCON2bits.PEN = 1;
  1438  000546  84C5               	bsf	197,2,c	;volatile
  1439  000548                     l482:
  1440  000548  B4C5               	btfsc	4037,2,c	;volatile
  1441  00054A  EFA9  F002         	goto	u461
  1442  00054E  EFAB  F002         	goto	u460
  1443  000552                     u461:
  1444  000552  EFA4  F002         	goto	l482
  1445  000556                     u460:
  1446  000556                     l446:
  1447  000556  0012               	return		;funcret
  1448  000558                     __end_of_UpdateCurrentTime:
  1449                           	callstack 0
  1450                           
  1451 ;; *************** function _SubBCD *****************
  1452 ;; Defined at:
  1453 ;;		line 723 in file "main.c"
  1454 ;; Parameters:    Size  Location     Type
  1455 ;;  Number1         1    wreg     unsigned char 
  1456 ;;  Number2         1   11[COMRAM] unsigned char 
  1457 ;; Auto vars:     Size  Location     Type
  1458 ;;  Number1         1   13[COMRAM] unsigned char 
  1459 ;;  temp            1   14[COMRAM] unsigned char 
  1460 ;; Return value:  Size  Location     Type
  1461 ;;                  1    wreg      unsigned char 
  1462 ;; Registers used:
  1463 ;;		wreg, status,2, status,0
  1464 ;; Tracked objects:
  1465 ;;		On entry : 0/0
  1466 ;;		On exit  : 0/0
  1467 ;;		Unchanged: 0/0
  1468 ;; Data sizes:     COMRAM   BANK0   BANK1   BANK2   BANK3   BANK4   BANK5   BANK6   BANK7   BANK8   BANK9  BANK10  BANK1
      +1  BANK12  BANK13  BANK14  BANK15
  1469 ;;      Params:         1       0       0       0       0       0       0       0       0       0       0       0       
      +0       0       0       0       0
  1470 ;;      Locals:         2       0       0       0       0       0       0       0       0       0       0       0       
      +0       0       0       0       0
  1471 ;;      Temps:          1       0       0       0       0       0       0       0       0       0       0       0       
      +0       0       0       0       0
  1472 ;;      Totals:         4       0       0       0       0       0       0       0       0       0       0       0       
      +0       0       0       0       0
  1473 ;;Total ram usage:        4 bytes
  1474 ;; Hardware stack levels used: 1
  1475 ;; Hardware stack levels required when called: 4
  1476 ;; This function calls:
  1477 ;;		Nothing
  1478 ;; This function is called by:
  1479 ;;		_WakeUp
  1480 ;; This function uses a non-reentrant model
  1481 ;;
  1482                           
  1483                           	psect	text3
  1484  000FDA                     __ptext3:
  1485                           	callstack 0
  1486  000FDA                     _SubBCD:
  1487                           	callstack 25
  1488                           
  1489                           ;incstack = 0
  1490                           ;SubBCD@Number1 stored from wreg
  1491  000FDA  6E2A               	movwf	SubBCD@Number1^0,c
  1492  000FDC                     
  1493                           ;main.c: 724:     char temp = Number1 - Number2;
  1494  000FDC  5028               	movf	SubBCD@Number2^0,w,c
  1495  000FDE  5C2A               	subwf	SubBCD@Number1^0,w,c
  1496  000FE0  6E2B               	movwf	SubBCD@temp^0,c
  1497                           
  1498                           ;main.c: 726:     if ((temp & 0x0F) > 9) return temp - 0x06;
  1499  000FE2  C02B  F029         	movff	SubBCD@temp,??_SubBCD
  1500  000FE6  0E0F               	movlw	15
  1501  000FE8  1629               	andwf	??_SubBCD^0,f,c
  1502  000FEA  0E09               	movlw	9
  1503  000FEC  6429               	cpfsgt	??_SubBCD^0,c
  1504  000FEE  EFFB  F007         	goto	u1421
  1505  000FF2  EFFD  F007         	goto	u1420
  1506  000FF6                     u1421:
  1507  000FF6  EF01  F008         	goto	l1962
  1508  000FFA                     u1420:
  1509  000FFA  502B               	movf	SubBCD@temp^0,w,c
  1510  000FFC  0FFA               	addlw	250
  1511  000FFE  EF02  F008         	goto	l353
  1512  001002                     l1962:
  1513  001002  502B               	movf	SubBCD@temp^0,w,c
  1514  001004                     l353:
  1515  001004  0012               	return		;funcret
  1516  001006                     __end_of_SubBCD:
  1517                           	callstack 0
  1518                           
  1519 ;; *************** function _AddBCD *****************
  1520 ;; Defined at:
  1521 ;;		line 717 in file "main.c"
  1522 ;; Parameters:    Size  Location     Type
  1523 ;;  Number1         1    wreg     unsigned char 
  1524 ;;  Number2         1   11[COMRAM] unsigned char 
  1525 ;; Auto vars:     Size  Location     Type
  1526 ;;  Number1         1   13[COMRAM] unsigned char 
  1527 ;;  temp            1   14[COMRAM] unsigned char 
  1528 ;; Return value:  Size  Location     Type
  1529 ;;                  1    wreg      unsigned char 
  1530 ;; Registers used:
  1531 ;;		wreg, status,2, status,0
  1532 ;; Tracked objects:
  1533 ;;		On entry : 0/0
  1534 ;;		On exit  : 0/0
  1535 ;;		Unchanged: 0/0
  1536 ;; Data sizes:     COMRAM   BANK0   BANK1   BANK2   BANK3   BANK4   BANK5   BANK6   BANK7   BANK8   BANK9  BANK10  BANK1
      +1  BANK12  BANK13  BANK14  BANK15
  1537 ;;      Params:         1       0       0       0       0       0       0       0       0       0       0       0       
      +0       0       0       0       0
  1538 ;;      Locals:         2       0       0       0       0       0       0       0       0       0       0       0       
      +0       0       0       0       0
  1539 ;;      Temps:          1       0       0       0       0       0       0       0       0       0       0       0       
      +0       0       0       0       0
  1540 ;;      Totals:         4       0       0       0       0       0       0       0       0       0       0       0       
      +0       0       0       0       0
  1541 ;;Total ram usage:        4 bytes
  1542 ;; Hardware stack levels used: 1
  1543 ;; Hardware stack levels required when called: 4
  1544 ;; This function calls:
  1545 ;;		Nothing
  1546 ;; This function is called by:
  1547 ;;		_main
  1548 ;;		_WakeUp
  1549 ;; This function uses a non-reentrant model
  1550 ;;
  1551                           
  1552                           	psect	text4
  1553  001006                     __ptext4:
  1554                           	callstack 0
  1555  001006                     _AddBCD:
  1556                           	callstack 25
  1557                           
  1558                           ;incstack = 0
  1559                           ;AddBCD@Number1 stored from wreg
  1560  001006  6E2A               	movwf	AddBCD@Number1^0,c
  1561  001008                     
  1562                           ;main.c: 718:     char temp = Number1 + Number2;
  1563  001008  502A               	movf	AddBCD@Number1^0,w,c
  1564  00100A  2428               	addwf	AddBCD@Number2^0,w,c
  1565  00100C  6E2B               	movwf	AddBCD@temp^0,c
  1566                           
  1567                           ;main.c: 720:     if ((temp & 0x0F) > 9) return temp + 0x06;
  1568  00100E  C02B  F029         	movff	AddBCD@temp,??_AddBCD
  1569  001012  0E0F               	movlw	15
  1570  001014  1629               	andwf	??_AddBCD^0,f,c
  1571  001016  0E09               	movlw	9
  1572  001018  6429               	cpfsgt	??_AddBCD^0,c
  1573  00101A  EF11  F008         	goto	u1281
  1574  00101E  EF13  F008         	goto	u1280
  1575  001022                     u1281:
  1576  001022  EF17  F008         	goto	l1916
  1577  001026                     u1280:
  1578  001026  502B               	movf	AddBCD@temp^0,w,c
  1579  001028  0F06               	addlw	6
  1580  00102A  EF18  F008         	goto	l348
  1581  00102E                     l1916:
  1582  00102E  502B               	movf	AddBCD@temp^0,w,c
  1583  001030                     l348:
  1584  001030  0012               	return		;funcret
  1585  001032                     __end_of_AddBCD:
  1586                           	callstack 0
  1587                           
  1588 ;; *************** function _MCUinit *****************
  1589 ;; Defined at:
  1590 ;;		line 647 in file "main.c"
  1591 ;; Parameters:    Size  Location     Type
  1592 ;;		None
  1593 ;; Auto vars:     Size  Location     Type
  1594 ;;		None
  1595 ;; Return value:  Size  Location     Type
  1596 ;;                  1    wreg      void 
  1597 ;; Registers used:
  1598 ;;		wreg, status,2, status,0, cstack
  1599 ;; Tracked objects:
  1600 ;;		On entry : 0/0
  1601 ;;		On exit  : 0/0
  1602 ;;		Unchanged: 0/0
  1603 ;; Data sizes:     COMRAM   BANK0   BANK1   BANK2   BANK3   BANK4   BANK5   BANK6   BANK7   BANK8   BANK9  BANK10  BANK1
      +1  BANK12  BANK13  BANK14  BANK15
  1604 ;;      Params:         0       0       0       0       0       0       0       0       0       0       0       0       
      +0       0       0       0       0
  1605 ;;      Locals:         0       0       0       0       0       0       0       0       0       0       0       0       
      +0       0       0       0       0
  1606 ;;      Temps:          0       0       0       0       0       0       0       0       0       0       0       0       
      +0       0       0       0       0
  1607 ;;      Totals:         0       0       0       0       0       0       0       0       0       0       0       0       
      +0       0       0       0       0
  1608 ;;Total ram usage:        0 bytes
  1609 ;; Hardware stack levels used: 1
  1610 ;; Hardware stack levels required when called: 5
  1611 ;; This function calls:
  1612 ;;		_Display
  1613 ;; This function is called by:
  1614 ;;		_main
  1615 ;; This function uses a non-reentrant model
  1616 ;;
  1617                           
  1618                           	psect	text5
  1619  001128                     __ptext5:
  1620                           	callstack 0
  1621  001128                     _MCUinit:
  1622                           	callstack 25
  1623  001128                     
  1624                           ;main.c: 648:     Display(0x88, 0x88);
  1625  001128  0E88               	movlw	136
  1626  00112A  6E28               	movwf	Display@Minutes^0,c
  1627  00112C  0E88               	movlw	136
  1628  00112E  EC97  F004         	call	_Display
  1629  001132  0012               	return		;funcret
  1630  001134                     __end_of_MCUinit:
  1631                           	callstack 0
  1632                           
  1633 ;; *************** function _Display *****************
  1634 ;; Defined at:
  1635 ;;		line 729 in file "main.c"
  1636 ;; Parameters:    Size  Location     Type
  1637 ;;  Hours           1    wreg     unsigned char 
  1638 ;;  Minutes         1   11[COMRAM] unsigned char 
  1639 ;; Auto vars:     Size  Location     Type
  1640 ;;  Hours           1   16[COMRAM] unsigned char 
  1641 ;;  Lower_Minute    1   15[COMRAM] unsigned char 
  1642 ;;  Upper_Minute    1   14[COMRAM] unsigned char 
  1643 ;;  Lower_Hours     1   13[COMRAM] unsigned char 
  1644 ;;  Upper_Hours     1   12[COMRAM] unsigned char 
  1645 ;; Return value:  Size  Location     Type
  1646 ;;                  1    wreg      void 
  1647 ;; Registers used:
  1648 ;;		wreg, status,2, status,0
  1649 ;; Tracked objects:
  1650 ;;		On entry : 0/0
  1651 ;;		On exit  : 0/0
  1652 ;;		Unchanged: 0/0
  1653 ;; Data sizes:     COMRAM   BANK0   BANK1   BANK2   BANK3   BANK4   BANK5   BANK6   BANK7   BANK8   BANK9  BANK10  BANK1
      +1  BANK12  BANK13  BANK14  BANK15
  1654 ;;      Params:         1       0       0       0       0       0       0       0       0       0       0       0       
      +0       0       0       0       0
  1655 ;;      Locals:         5       0       0       0       0       0       0       0       0       0       0       0       
      +0       0       0       0       0
  1656 ;;      Temps:          0       0       0       0       0       0       0       0       0       0       0       0       
      +0       0       0       0       0
  1657 ;;      Totals:         6       0       0       0       0       0       0       0       0       0       0       0       
      +0       0       0       0       0
  1658 ;;Total ram usage:        6 bytes
  1659 ;; Hardware stack levels used: 1
  1660 ;; Hardware stack levels required when called: 4
  1661 ;; This function calls:
  1662 ;;		Nothing
  1663 ;; This function is called by:
  1664 ;;		_main
  1665 ;;		_MCUinit
  1666 ;; This function uses a non-reentrant model
  1667 ;;
  1668                           
  1669                           	psect	text6
  1670  00092E                     __ptext6:
  1671                           	callstack 0
  1672  00092E                     _Display:
  1673                           	callstack 25
  1674                           
  1675                           ;incstack = 0
  1676                           ;Display@Hours stored from wreg
  1677  00092E  6E2D               	movwf	Display@Hours^0,c
  1678  000930                     
  1679                           ;main.c: 730:     char Upper_Hours = ((Hours & 0xF0) >> 4);
  1680  000930  382D               	swapf	Display@Hours^0,w,c
  1681  000932  0B0F               	andlw	15
  1682  000934  0B0F               	andlw	15
  1683  000936  6E29               	movwf	Display@Upper_Hours^0,c
  1684                           
  1685                           ;main.c: 731:     char Lower_Hours = Hours & 0x0F;
  1686  000938  502D               	movf	Display@Hours^0,w,c
  1687  00093A  0B0F               	andlw	15
  1688  00093C  6E2A               	movwf	Display@Lower_Hours^0,c
  1689                           
  1690                           ;main.c: 733:     char Upper_Minutes = ((Minutes & 0xF0) >> 4);
  1691  00093E  3828               	swapf	Display@Minutes^0,w,c
  1692  000940  0B0F               	andlw	15
  1693  000942  0B0F               	andlw	15
  1694  000944  6E2B               	movwf	Display@Upper_Minutes^0,c
  1695                           
  1696                           ;main.c: 734:     char Lower_Minutes = Minutes & 0x0F;
  1697  000946  5028               	movf	Display@Minutes^0,w,c
  1698  000948  0B0F               	andlw	15
  1699  00094A  6E2C               	movwf	Display@Lower_Minutes^0,c
  1700  00094C                     
  1701                           ;main.c: 736:     if(Blink_First_Digit && Blink) {
  1702  00094C  5013               	movf	_Blink_First_Digit^0,w,c
  1703  00094E  B4D8               	btfsc	status,2,c
  1704  000950  EFAC  F004         	goto	u1201
  1705  000954  EFAE  F004         	goto	u1200
  1706  000958                     u1201:
  1707  000958  EFBD  F004         	goto	l357
  1708  00095C                     u1200:
  1709  00095C  5011               	movf	_Blink^0,w,c
  1710  00095E  B4D8               	btfsc	status,2,c
  1711  000960  EFB4  F004         	goto	u1211
  1712  000964  EFB6  F004         	goto	u1210
  1713  000968                     u1211:
  1714  000968  EFBD  F004         	goto	l357
  1715  00096C                     u1210:
  1716  00096C                     
  1717                           ;main.c: 737:         LATA |= 0x00;
  1718  00096C  5089               	movf	137,w,c	;volatile
  1719                           
  1720                           ;main.c: 738:         _delay((unsigned long)((800)*(4000000/4000000.0)));
  1721  00096E  0EA0               	movlw	160
  1722  000970                     u1777:
  1723  000970  D000               	nop2	
  1724  000972  2EE8               	decfsz	wreg,f,c
  1725  000974  D7FD               	bra	u1777
  1726                           
  1727                           ;main.c: 739:     }
  1728  000976  EFC5  F004         	goto	l1872
  1729  00097A                     l357:
  1730                           
  1731                           ;main.c: 741:         LATA = Upper_Hours;
  1732  00097A  C029  FF89         	movff	Display@Upper_Hours,3977	;volatile
  1733  00097E                     
  1734                           ;main.c: 742:         LATB |= 0x10;
  1735  00097E  888A               	bsf	138,4,c	;volatile
  1736  000980                     
  1737                           ;main.c: 743:         _delay((unsigned long)((800)*(4000000/4000000.0)));
  1738  000980  0EA0               	movlw	160
  1739  000982                     u1787:
  1740  000982  D000               	nop2	
  1741  000984  2EE8               	decfsz	wreg,f,c
  1742  000986  D7FD               	bra	u1787
  1743  000988                     
  1744                           ;main.c: 744:         LATB &= ~(0x10);
  1745  000988  988A               	bcf	138,4,c	;volatile
  1746  00098A                     l1872:
  1747                           
  1748                           ;main.c: 747:     if(Blink_First_Digit && Blink) {
  1749  00098A  5013               	movf	_Blink_First_Digit^0,w,c
  1750  00098C  B4D8               	btfsc	status,2,c
  1751  00098E  EFCB  F004         	goto	u1221
  1752  000992  EFCD  F004         	goto	u1220
  1753  000996                     u1221:
  1754  000996  EFDC  F004         	goto	l359
  1755  00099A                     u1220:
  1756  00099A  5011               	movf	_Blink^0,w,c
  1757  00099C  B4D8               	btfsc	status,2,c
  1758  00099E  EFD3  F004         	goto	u1231
  1759  0009A2  EFD5  F004         	goto	u1230
  1760  0009A6                     u1231:
  1761  0009A6  EFDC  F004         	goto	l359
  1762  0009AA                     u1230:
  1763  0009AA                     
  1764                           ;main.c: 748:         LATA |= 0x00;
  1765  0009AA  5089               	movf	137,w,c	;volatile
  1766                           
  1767                           ;main.c: 749:         _delay((unsigned long)((800)*(4000000/4000000.0)));
  1768  0009AC  0EA0               	movlw	160
  1769  0009AE                     u1797:
  1770  0009AE  D000               	nop2	
  1771  0009B0  2EE8               	decfsz	wreg,f,c
  1772  0009B2  D7FD               	bra	u1797
  1773                           
  1774                           ;main.c: 750:     }
  1775  0009B4  EFE4  F004         	goto	l1884
  1776  0009B8                     l359:
  1777                           
  1778                           ;main.c: 752:         LATA = Lower_Hours;
  1779  0009B8  C02A  FF89         	movff	Display@Lower_Hours,3977	;volatile
  1780  0009BC                     
  1781                           ;main.c: 753:         LATB |= 0x20;
  1782  0009BC  8A8A               	bsf	138,5,c	;volatile
  1783  0009BE                     
  1784                           ;main.c: 754:         _delay((unsigned long)((800)*(4000000/4000000.0)));
  1785  0009BE  0EA0               	movlw	160
  1786  0009C0                     u1807:
  1787  0009C0  D000               	nop2	
  1788  0009C2  2EE8               	decfsz	wreg,f,c
  1789  0009C4  D7FD               	bra	u1807
  1790  0009C6                     
  1791                           ;main.c: 755:         LATB &= ~(0x20);
  1792  0009C6  9A8A               	bcf	138,5,c	;volatile
  1793  0009C8                     l1884:
  1794                           
  1795                           ;main.c: 758:     if(Blink_Second_Digit && Blink) {
  1796  0009C8  5012               	movf	_Blink_Second_Digit^0,w,c
  1797  0009CA  B4D8               	btfsc	status,2,c
  1798  0009CC  EFEA  F004         	goto	u1241
  1799  0009D0  EFEC  F004         	goto	u1240
  1800  0009D4                     u1241:
  1801  0009D4  EFFB  F004         	goto	l361
  1802  0009D8                     u1240:
  1803  0009D8  5011               	movf	_Blink^0,w,c
  1804  0009DA  B4D8               	btfsc	status,2,c
  1805  0009DC  EFF2  F004         	goto	u1251
  1806  0009E0  EFF4  F004         	goto	u1250
  1807  0009E4                     u1251:
  1808  0009E4  EFFB  F004         	goto	l361
  1809  0009E8                     u1250:
  1810  0009E8                     
  1811                           ;main.c: 759:         LATA |= 0x00;
  1812  0009E8  5089               	movf	137,w,c	;volatile
  1813                           
  1814                           ;main.c: 760:         _delay((unsigned long)((800)*(4000000/4000000.0)));
  1815  0009EA  0EA0               	movlw	160
  1816  0009EC                     u1817:
  1817  0009EC  D000               	nop2	
  1818  0009EE  2EE8               	decfsz	wreg,f,c
  1819  0009F0  D7FD               	bra	u1817
  1820                           
  1821                           ;main.c: 761:     }
  1822  0009F2  EF03  F005         	goto	l1896
  1823  0009F6                     l361:
  1824                           
  1825                           ;main.c: 763:         LATA = Upper_Minutes;
  1826  0009F6  C02B  FF89         	movff	Display@Upper_Minutes,3977	;volatile
  1827  0009FA                     
  1828                           ;main.c: 764:         LATB |= 0x40;
  1829  0009FA  8C8A               	bsf	138,6,c	;volatile
  1830  0009FC                     
  1831                           ;main.c: 765:         _delay((unsigned long)((800)*(4000000/4000000.0)));
  1832  0009FC  0EA0               	movlw	160
  1833  0009FE                     u1827:
  1834  0009FE  D000               	nop2	
  1835  000A00  2EE8               	decfsz	wreg,f,c
  1836  000A02  D7FD               	bra	u1827
  1837  000A04                     
  1838                           ;main.c: 766:         LATB &= ~(0x40);
  1839  000A04  9C8A               	bcf	138,6,c	;volatile
  1840  000A06                     l1896:
  1841                           
  1842                           ;main.c: 769:     if(Blink_Second_Digit && Blink) {
  1843  000A06  5012               	movf	_Blink_Second_Digit^0,w,c
  1844  000A08  B4D8               	btfsc	status,2,c
  1845  000A0A  EF09  F005         	goto	u1261
  1846  000A0E  EF0B  F005         	goto	u1260
  1847  000A12                     u1261:
  1848  000A12  EF1A  F005         	goto	l363
  1849  000A16                     u1260:
  1850  000A16  5011               	movf	_Blink^0,w,c
  1851  000A18  B4D8               	btfsc	status,2,c
  1852  000A1A  EF11  F005         	goto	u1271
  1853  000A1E  EF13  F005         	goto	u1270
  1854  000A22                     u1271:
  1855  000A22  EF1A  F005         	goto	l363
  1856  000A26                     u1270:
  1857  000A26                     
  1858                           ;main.c: 770:         LATA |= 0x00;
  1859  000A26  5089               	movf	137,w,c	;volatile
  1860                           
  1861                           ;main.c: 771:         _delay((unsigned long)((800)*(4000000/4000000.0)));
  1862  000A28  0EA0               	movlw	160
  1863  000A2A                     u1837:
  1864  000A2A  D000               	nop2	
  1865  000A2C  2EE8               	decfsz	wreg,f,c
  1866  000A2E  D7FD               	bra	u1837
  1867                           
  1868                           ;main.c: 772:     }else {
  1869  000A30  EF22  F005         	goto	l365
  1870  000A34                     l363:
  1871                           
  1872                           ;main.c: 773:         LATA = Lower_Minutes;
  1873  000A34  C02C  FF89         	movff	Display@Lower_Minutes,3977	;volatile
  1874  000A38                     
  1875                           ;main.c: 774:         LATB |= 0x80;
  1876  000A38  8E8A               	bsf	138,7,c	;volatile
  1877  000A3A                     
  1878                           ;main.c: 775:         _delay((unsigned long)((800)*(4000000/4000000.0)));
  1879  000A3A  0EA0               	movlw	160
  1880  000A3C                     u1847:
  1881  000A3C  D000               	nop2	
  1882  000A3E  2EE8               	decfsz	wreg,f,c
  1883  000A40  D7FD               	bra	u1847
  1884  000A42                     
  1885                           ;main.c: 776:         LATB &= ~(0x80);
  1886  000A42  9E8A               	bcf	138,7,c	;volatile
  1887  000A44                     l365:
  1888  000A44  0012               	return		;funcret
  1889  000A46                     __end_of_Display:
  1890                           	callstack 0
  1891                           
  1892 ;; *************** function _MCUconfig *****************
  1893 ;; Defined at:
  1894 ;;		line 397 in file "main.c"
  1895 ;; Parameters:    Size  Location     Type
  1896 ;;		None
  1897 ;; Auto vars:     Size  Location     Type
  1898 ;;		None
  1899 ;; Return value:  Size  Location     Type
  1900 ;;                  1    wreg      void 
  1901 ;; Registers used:
  1902 ;;		wreg, status,2, status,0, cstack
  1903 ;; Tracked objects:
  1904 ;;		On entry : 0/0
  1905 ;;		On exit  : 0/0
  1906 ;;		Unchanged: 0/0
  1907 ;; Data sizes:     COMRAM   BANK0   BANK1   BANK2   BANK3   BANK4   BANK5   BANK6   BANK7   BANK8   BANK9  BANK10  BANK1
      +1  BANK12  BANK13  BANK14  BANK15
  1908 ;;      Params:         0       0       0       0       0       0       0       0       0       0       0       0       
      +0       0       0       0       0
  1909 ;;      Locals:         0       0       0       0       0       0       0       0       0       0       0       0       
      +0       0       0       0       0
  1910 ;;      Temps:          0       0       0       0       0       0       0       0       0       0       0       0       
      +0       0       0       0       0
  1911 ;;      Totals:         0       0       0       0       0       0       0       0       0       0       0       0       
      +0       0       0       0       0
  1912 ;;Total ram usage:        0 bytes
  1913 ;; Hardware stack levels used: 1
  1914 ;; Hardware stack levels required when called: 5
  1915 ;; This function calls:
  1916 ;;		_GPIOconfig
  1917 ;;		_I2Cconfig
  1918 ;;		_INTconfig
  1919 ;;		_PWMconfig
  1920 ;;		_TIMERconfig
  1921 ;; This function is called by:
  1922 ;;		_main
  1923 ;; This function uses a non-reentrant model
  1924 ;;
  1925                           
  1926                           	psect	text7
  1927  0010EA                     __ptext7:
  1928                           	callstack 0
  1929  0010EA                     _MCUconfig:
  1930                           	callstack 25
  1931  0010EA                     
  1932                           ;main.c: 398:     OSCCON |= 0xE2;
  1933  0010EA  0EE2               	movlw	226
  1934  0010EC  12D3               	iorwf	211,f,c	;volatile
  1935  0010EE                     
  1936                           ;main.c: 400:     GPIOconfig();
  1937  0010EE  EC66  F008         	call	_GPIOconfig	;wreg free
  1938  0010F2                     
  1939                           ;main.c: 403:     I2Cconfig();
  1940  0010F2  ECA0  F008         	call	_I2Cconfig	;wreg free
  1941  0010F6                     
  1942                           ;main.c: 405:     TIMERconfig();
  1943  0010F6  EC8D  F008         	call	_TIMERconfig	;wreg free
  1944  0010FA                     
  1945                           ;main.c: 407:     INTconfig();
  1946  0010FA  EC82  F008         	call	_INTconfig	;wreg free
  1947  0010FE                     
  1948                           ;main.c: 409:     PWMconfig();
  1949  0010FE  EC56  F008         	call	_PWMconfig	;wreg free
  1950  001102  0012               	return		;funcret
  1951  001104                     __end_of_MCUconfig:
  1952                           	callstack 0
  1953                           
  1954 ;; *************** function _TIMERconfig *****************
  1955 ;; Defined at:
  1956 ;;		line 337 in file "main.c"
  1957 ;; Parameters:    Size  Location     Type
  1958 ;;		None
  1959 ;; Auto vars:     Size  Location     Type
  1960 ;;		None
  1961 ;; Return value:  Size  Location     Type
  1962 ;;                  1    wreg      void 
  1963 ;; Registers used:
  1964 ;;		wreg, status,2
  1965 ;; Tracked objects:
  1966 ;;		On entry : 0/0
  1967 ;;		On exit  : 0/0
  1968 ;;		Unchanged: 0/0
  1969 ;; Data sizes:     COMRAM   BANK0   BANK1   BANK2   BANK3   BANK4   BANK5   BANK6   BANK7   BANK8   BANK9  BANK10  BANK1
      +1  BANK12  BANK13  BANK14  BANK15
  1970 ;;      Params:         0       0       0       0       0       0       0       0       0       0       0       0       
      +0       0       0       0       0
  1971 ;;      Locals:         0       0       0       0       0       0       0       0       0       0       0       0       
      +0       0       0       0       0
  1972 ;;      Temps:          0       0       0       0       0       0       0       0       0       0       0       0       
      +0       0       0       0       0
  1973 ;;      Totals:         0       0       0       0       0       0       0       0       0       0       0       0       
      +0       0       0       0       0
  1974 ;;Total ram usage:        0 bytes
  1975 ;; Hardware stack levels used: 1
  1976 ;; Hardware stack levels required when called: 4
  1977 ;; This function calls:
  1978 ;;		Nothing
  1979 ;; This function is called by:
  1980 ;;		_MCUconfig
  1981 ;; This function uses a non-reentrant model
  1982 ;;
  1983                           
  1984                           	psect	text8
  1985  00111A                     __ptext8:
  1986                           	callstack 0
  1987  00111A                     _TIMERconfig:
  1988                           	callstack 25
  1989  00111A                     
  1990                           ;main.c: 338:     T0CON = 0x83;
  1991  00111A  0E83               	movlw	131
  1992  00111C  6ED5               	movwf	213,c	;volatile
  1993                           
  1994                           ;main.c: 343:     T1CON = 0xB1;
  1995  00111E  0EB1               	movlw	177
  1996  001120  6ECD               	movwf	205,c	;volatile
  1997                           
  1998                           ;main.c: 347:     T3CON = 0x91;
  1999  001122  0E91               	movlw	145
  2000  001124  6EB1               	movwf	177,c	;volatile
  2001  001126  0012               	return		;funcret
  2002  001128                     __end_of_TIMERconfig:
  2003                           	callstack 0
  2004                           
  2005 ;; *************** function _PWMconfig *****************
  2006 ;; Defined at:
  2007 ;;		line 369 in file "main.c"
  2008 ;; Parameters:    Size  Location     Type
  2009 ;;		None
  2010 ;; Auto vars:     Size  Location     Type
  2011 ;;		None
  2012 ;; Return value:  Size  Location     Type
  2013 ;;                  1    wreg      void 
  2014 ;; Registers used:
  2015 ;;		wreg, status,2
  2016 ;; Tracked objects:
  2017 ;;		On entry : 0/0
  2018 ;;		On exit  : 0/0
  2019 ;;		Unchanged: 0/0
  2020 ;; Data sizes:     COMRAM   BANK0   BANK1   BANK2   BANK3   BANK4   BANK5   BANK6   BANK7   BANK8   BANK9  BANK10  BANK1
      +1  BANK12  BANK13  BANK14  BANK15
  2021 ;;      Params:         0       0       0       0       0       0       0       0       0       0       0       0       
      +0       0       0       0       0
  2022 ;;      Locals:         0       0       0       0       0       0       0       0       0       0       0       0       
      +0       0       0       0       0
  2023 ;;      Temps:          0       0       0       0       0       0       0       0       0       0       0       0       
      +0       0       0       0       0
  2024 ;;      Totals:         0       0       0       0       0       0       0       0       0       0       0       0       
      +0       0       0       0       0
  2025 ;;Total ram usage:        0 bytes
  2026 ;; Hardware stack levels used: 1
  2027 ;; Hardware stack levels required when called: 4
  2028 ;; This function calls:
  2029 ;;		Nothing
  2030 ;; This function is called by:
  2031 ;;		_MCUconfig
  2032 ;; This function uses a non-reentrant model
  2033 ;;
  2034                           
  2035                           	psect	text9
  2036  0010AC                     __ptext9:
  2037                           	callstack 0
  2038  0010AC                     _PWMconfig:
  2039                           	callstack 25
  2040  0010AC                     
  2041                           ;main.c: 371:     PR2 = 49;
  2042  0010AC  0E31               	movlw	49
  2043  0010AE  6ECB               	movwf	203,c	;volatile
  2044                           
  2045                           ;main.c: 377:     CCP1CON = 0x00;
  2046  0010B0  0E00               	movlw	0
  2047  0010B2  6EBD               	movwf	189,c	;volatile
  2048                           
  2049                           ;main.c: 378:     CCPR1L = 0x19;
  2050  0010B4  0E19               	movlw	25
  2051  0010B6  6EBE               	movwf	190,c	;volatile
  2052  0010B8                     
  2053                           ;main.c: 383:     TRISCbits.RC2 = 0;
  2054  0010B8  9494               	bcf	148,2,c	;volatile
  2055                           
  2056                           ;main.c: 386:     T2CON = 0x01;
  2057  0010BA  0E01               	movlw	1
  2058  0010BC  6ECA               	movwf	202,c	;volatile
  2059  0010BE                     
  2060                           ;main.c: 388:     T2CONbits.TMR2ON = 1;
  2061  0010BE  84CA               	bsf	202,2,c	;volatile
  2062                           
  2063                           ;main.c: 391:     CCP1CON = 0x0C;
  2064  0010C0  0E0C               	movlw	12
  2065  0010C2  6EBD               	movwf	189,c	;volatile
  2066  0010C4                     
  2067                           ;main.c: 393:     _delay((unsigned long)((1)*(4000000/4000000.0)));
  2068  0010C4  F000               	nop	
  2069                           
  2070                           ;main.c: 395:     CCPR1L = 0x00;
  2071  0010C6  0E00               	movlw	0
  2072  0010C8  6EBE               	movwf	190,c	;volatile
  2073  0010CA  0012               	return		;funcret
  2074  0010CC                     __end_of_PWMconfig:
  2075                           	callstack 0
  2076                           
  2077 ;; *************** function _INTconfig *****************
  2078 ;; Defined at:
  2079 ;;		line 351 in file "main.c"
  2080 ;; Parameters:    Size  Location     Type
  2081 ;;		None
  2082 ;; Auto vars:     Size  Location     Type
  2083 ;;		None
  2084 ;; Return value:  Size  Location     Type
  2085 ;;                  1    wreg      void 
  2086 ;; Registers used:
  2087 ;;		wreg, status,2, status,0
  2088 ;; Tracked objects:
  2089 ;;		On entry : 0/0
  2090 ;;		On exit  : 0/0
  2091 ;;		Unchanged: 0/0
  2092 ;; Data sizes:     COMRAM   BANK0   BANK1   BANK2   BANK3   BANK4   BANK5   BANK6   BANK7   BANK8   BANK9  BANK10  BANK1
      +1  BANK12  BANK13  BANK14  BANK15
  2093 ;;      Params:         0       0       0       0       0       0       0       0       0       0       0       0       
      +0       0       0       0       0
  2094 ;;      Locals:         0       0       0       0       0       0       0       0       0       0       0       0       
      +0       0       0       0       0
  2095 ;;      Temps:          0       0       0       0       0       0       0       0       0       0       0       0       
      +0       0       0       0       0
  2096 ;;      Totals:         0       0       0       0       0       0       0       0       0       0       0       0       
      +0       0       0       0       0
  2097 ;;Total ram usage:        0 bytes
  2098 ;; Hardware stack levels used: 1
  2099 ;; Hardware stack levels required when called: 4
  2100 ;; This function calls:
  2101 ;;		Nothing
  2102 ;; This function is called by:
  2103 ;;		_MCUconfig
  2104 ;; This function uses a non-reentrant model
  2105 ;;
  2106                           
  2107                           	psect	text10
  2108  001104                     __ptext10:
  2109                           	callstack 0
  2110  001104                     _INTconfig:
  2111                           	callstack 25
  2112  001104                     
  2113                           ;main.c: 352:     INTCON = 0xF0;
  2114  001104  0EF0               	movlw	240
  2115  001106  6EF2               	movwf	242,c	;volatile
  2116                           
  2117                           ;main.c: 359:     PIE2 = 0x02;
  2118  001108  0E02               	movlw	2
  2119  00110A  6EA0               	movwf	160,c	;volatile
  2120                           
  2121                           ;main.c: 362:     PIE1 = 0x01;
  2122  00110C  0E01               	movlw	1
  2123  00110E  6E9D               	movwf	157,c	;volatile
  2124  001110                     
  2125                           ;main.c: 364:     INTCON2 &= ~(0xF0);
  2126  001110  0E0F               	movlw	15
  2127  001112  16F1               	andwf	241,f,c	;volatile
  2128  001114                     
  2129                           ;main.c: 366:     INTCON3 = 0x18;
  2130  001114  0E18               	movlw	24
  2131  001116  6EF0               	movwf	240,c	;volatile
  2132  001118  0012               	return		;funcret
  2133  00111A                     __end_of_INTconfig:
  2134                           	callstack 0
  2135                           
  2136 ;; *************** function _I2Cconfig *****************
  2137 ;; Defined at:
  2138 ;;		line 331 in file "main.c"
  2139 ;; Parameters:    Size  Location     Type
  2140 ;;		None
  2141 ;; Auto vars:     Size  Location     Type
  2142 ;;		None
  2143 ;; Return value:  Size  Location     Type
  2144 ;;                  1    wreg      void 
  2145 ;; Registers used:
  2146 ;;		wreg, status,2
  2147 ;; Tracked objects:
  2148 ;;		On entry : 0/0
  2149 ;;		On exit  : 0/0
  2150 ;;		Unchanged: 0/0
  2151 ;; Data sizes:     COMRAM   BANK0   BANK1   BANK2   BANK3   BANK4   BANK5   BANK6   BANK7   BANK8   BANK9  BANK10  BANK1
      +1  BANK12  BANK13  BANK14  BANK15
  2152 ;;      Params:         0       0       0       0       0       0       0       0       0       0       0       0       
      +0       0       0       0       0
  2153 ;;      Locals:         0       0       0       0       0       0       0       0       0       0       0       0       
      +0       0       0       0       0
  2154 ;;      Temps:          0       0       0       0       0       0       0       0       0       0       0       0       
      +0       0       0       0       0
  2155 ;;      Totals:         0       0       0       0       0       0       0       0       0       0       0       0       
      +0       0       0       0       0
  2156 ;;Total ram usage:        0 bytes
  2157 ;; Hardware stack levels used: 1
  2158 ;; Hardware stack levels required when called: 4
  2159 ;; This function calls:
  2160 ;;		Nothing
  2161 ;; This function is called by:
  2162 ;;		_MCUconfig
  2163 ;; This function uses a non-reentrant model
  2164 ;;
  2165                           
  2166                           	psect	text11
  2167  001140                     __ptext11:
  2168                           	callstack 0
  2169  001140                     _I2Cconfig:
  2170                           	callstack 25
  2171  001140                     
  2172                           ;main.c: 333:     SSPADD = 9;
  2173  001140  0E09               	movlw	9
  2174  001142  6EC8               	movwf	200,c	;volatile
  2175                           
  2176                           ;main.c: 335:     SSPCON1 = 0x28;
  2177  001144  0E28               	movlw	40
  2178  001146  6EC6               	movwf	198,c	;volatile
  2179  001148  0012               	return		;funcret
  2180  00114A                     __end_of_I2Cconfig:
  2181                           	callstack 0
  2182                           
  2183 ;; *************** function _GPIOconfig *****************
  2184 ;; Defined at:
  2185 ;;		line 312 in file "main.c"
  2186 ;; Parameters:    Size  Location     Type
  2187 ;;		None
  2188 ;; Auto vars:     Size  Location     Type
  2189 ;;		None
  2190 ;; Return value:  Size  Location     Type
  2191 ;;                  1    wreg      void 
  2192 ;; Registers used:
  2193 ;;		wreg, status,2, status,0
  2194 ;; Tracked objects:
  2195 ;;		On entry : 0/0
  2196 ;;		On exit  : 0/0
  2197 ;;		Unchanged: 0/0
  2198 ;; Data sizes:     COMRAM   BANK0   BANK1   BANK2   BANK3   BANK4   BANK5   BANK6   BANK7   BANK8   BANK9  BANK10  BANK1
      +1  BANK12  BANK13  BANK14  BANK15
  2199 ;;      Params:         0       0       0       0       0       0       0       0       0       0       0       0       
      +0       0       0       0       0
  2200 ;;      Locals:         0       0       0       0       0       0       0       0       0       0       0       0       
      +0       0       0       0       0
  2201 ;;      Temps:          0       0       0       0       0       0       0       0       0       0       0       0       
      +0       0       0       0       0
  2202 ;;      Totals:         0       0       0       0       0       0       0       0       0       0       0       0       
      +0       0       0       0       0
  2203 ;;Total ram usage:        0 bytes
  2204 ;; Hardware stack levels used: 1
  2205 ;; Hardware stack levels required when called: 4
  2206 ;; This function calls:
  2207 ;;		Nothing
  2208 ;; This function is called by:
  2209 ;;		_MCUconfig
  2210 ;; This function uses a non-reentrant model
  2211 ;;
  2212                           
  2213                           	psect	text12
  2214  0010CC                     __ptext12:
  2215                           	callstack 0
  2216  0010CC                     _GPIOconfig:
  2217                           	callstack 25
  2218  0010CC                     
  2219                           ;main.c: 314:     TRISC = 0;
  2220  0010CC  0E00               	movlw	0
  2221  0010CE  6E94               	movwf	148,c	;volatile
  2222  0010D0                     
  2223                           ;main.c: 316:     TRISC |= 0x18;
  2224  0010D0  0E18               	movlw	24
  2225  0010D2  1294               	iorwf	148,f,c	;volatile
  2226  0010D4                     
  2227                           ;main.c: 318:     TRISA = 0;
  2228  0010D4  0E00               	movlw	0
  2229  0010D6  6E92               	movwf	146,c	;volatile
  2230  0010D8                     
  2231                           ;main.c: 320:     TRISB = 0x07;
  2232  0010D8  0E07               	movlw	7
  2233  0010DA  6E93               	movwf	147,c	;volatile
  2234  0010DC                     
  2235                           ;main.c: 322:     TRISCbits.RC0 = 0;
  2236  0010DC  9094               	bcf	148,0,c	;volatile
  2237  0010DE                     
  2238                           ;main.c: 323:     PORTCbits.RC0 = 1;
  2239  0010DE  8082               	bsf	130,0,c	;volatile
  2240  0010E0                     
  2241                           ;main.c: 325:     TRISCbits.RC2 = 0;
  2242  0010E0  9494               	bcf	148,2,c	;volatile
  2243  0010E2                     
  2244                           ;main.c: 326:     PORTCbits.RC2 = 1;
  2245  0010E2  8482               	bsf	130,2,c	;volatile
  2246  0010E4                     
  2247                           ;main.c: 328:     TRISCbits.RC5 = 0;
  2248  0010E4  9A94               	bcf	148,5,c	;volatile
  2249  0010E6                     
  2250                           ;main.c: 329:     PORTCbits.RC5 = 0;
  2251  0010E6  9A82               	bcf	130,5,c	;volatile
  2252  0010E8  0012               	return		;funcret
  2253  0010EA                     __end_of_GPIOconfig:
  2254                           	callstack 0
  2255                           
  2256 ;; *************** function _BlinkDigit *****************
  2257 ;; Defined at:
  2258 ;;		line 671 in file "main.c"
  2259 ;; Parameters:    Size  Location     Type
  2260 ;;  index           1    wreg     unsigned char 
  2261 ;; Auto vars:     Size  Location     Type
  2262 ;;  index           1   13[COMRAM] unsigned char 
  2263 ;; Return value:  Size  Location     Type
  2264 ;;                  1    wreg      void 
  2265 ;; Registers used:
  2266 ;;		wreg, status,2, status,0
  2267 ;; Tracked objects:
  2268 ;;		On entry : 0/0
  2269 ;;		On exit  : 0/0
  2270 ;;		Unchanged: 0/0
  2271 ;; Data sizes:     COMRAM   BANK0   BANK1   BANK2   BANK3   BANK4   BANK5   BANK6   BANK7   BANK8   BANK9  BANK10  BANK1
      +1  BANK12  BANK13  BANK14  BANK15
  2272 ;;      Params:         0       0       0       0       0       0       0       0       0       0       0       0       
      +0       0       0       0       0
  2273 ;;      Locals:         1       0       0       0       0       0       0       0       0       0       0       0       
      +0       0       0       0       0
  2274 ;;      Temps:          2       0       0       0       0       0       0       0       0       0       0       0       
      +0       0       0       0       0
  2275 ;;      Totals:         3       0       0       0       0       0       0       0       0       0       0       0       
      +0       0       0       0       0
  2276 ;;Total ram usage:        3 bytes
  2277 ;; Hardware stack levels used: 1
  2278 ;; Hardware stack levels required when called: 4
  2279 ;; This function calls:
  2280 ;;		Nothing
  2281 ;; This function is called by:
  2282 ;;		_main
  2283 ;; This function uses a non-reentrant model
  2284 ;;
  2285                           
  2286                           	psect	text13
  2287  000DB8                     __ptext13:
  2288                           	callstack 0
  2289  000DB8                     _BlinkDigit:
  2290                           	callstack 26
  2291                           
  2292                           ;incstack = 0
  2293                           ;BlinkDigit@index stored from wreg
  2294  000DB8  6E2A               	movwf	BlinkDigit@index^0,c
  2295  000DBA                     
  2296                           ;main.c: 672:     switch(index){
  2297  000DBA  EFF1  F006         	goto	l1408
  2298  000DBE                     l1400:
  2299                           
  2300                           ;main.c: 674:             Blink_First_Digit = 0;
  2301  000DBE  0E00               	movlw	0
  2302  000DC0  6E13               	movwf	_Blink_First_Digit^0,c
  2303                           
  2304                           ;main.c: 675:             Blink_Second_Digit = 0;
  2305  000DC2  0E00               	movlw	0
  2306  000DC4  6E12               	movwf	_Blink_Second_Digit^0,c
  2307                           
  2308                           ;main.c: 676:         break;
  2309  000DC6  EF0A  F007         	goto	l318
  2310  000DCA                     l1402:
  2311                           
  2312                           ;main.c: 679:             Blink_First_Digit = 0;
  2313  000DCA  0E00               	movlw	0
  2314  000DCC  6E13               	movwf	_Blink_First_Digit^0,c
  2315                           
  2316                           ;main.c: 680:             Blink_Second_Digit = 1;
  2317  000DCE  0E01               	movlw	1
  2318  000DD0  6E12               	movwf	_Blink_Second_Digit^0,c
  2319                           
  2320                           ;main.c: 681:         break;
  2321  000DD2  EF0A  F007         	goto	l318
  2322  000DD6                     l1404:
  2323                           
  2324                           ;main.c: 684:             Blink_First_Digit = 1;
  2325  000DD6  0E01               	movlw	1
  2326  000DD8  6E13               	movwf	_Blink_First_Digit^0,c
  2327                           
  2328                           ;main.c: 685:             Blink_Second_Digit = 0;
  2329  000DDA  0E00               	movlw	0
  2330  000DDC  6E12               	movwf	_Blink_Second_Digit^0,c
  2331                           
  2332                           ;main.c: 686:         break;
  2333  000DDE  EF0A  F007         	goto	l318
  2334  000DE2                     l1408:
  2335  000DE2  502A               	movf	BlinkDigit@index^0,w,c
  2336  000DE4  6E28               	movwf	??_BlinkDigit^0,c
  2337  000DE6  6A29               	clrf	(??_BlinkDigit+1)^0,c
  2338                           
  2339                           ; Switch on 2 bytes has been partitioned into a top level switch of size 1, and 1 sub-sw
      +                          itches
  2340                           ; Switch size 1, requested type "simple"
  2341                           ; Number of cases is 1, Range of values is 0 to 0
  2342                           ; switch strategies available:
  2343                           ; Name         Instructions Cycles
  2344                           ; simple_byte            4     3 (average)
  2345                           ;	Chosen strategy is simple_byte
  2346  000DE8  5029               	movf	(??_BlinkDigit+1)^0,w,c
  2347  000DEA  0A00               	xorlw	0	; case 0
  2348  000DEC  B4D8               	btfsc	status,2,c
  2349  000DEE  EFFB  F006         	goto	l2346
  2350  000DF2  EF0A  F007         	goto	l318
  2351  000DF6                     l2346:
  2352                           
  2353                           ; Switch size 1, requested type "simple"
  2354                           ; Number of cases is 3, Range of values is 0 to 2
  2355                           ; switch strategies available:
  2356                           ; Name         Instructions Cycles
  2357                           ; simple_byte           10     6 (average)
  2358                           ;	Chosen strategy is simple_byte
  2359  000DF6  5028               	movf	??_BlinkDigit^0,w,c
  2360  000DF8  0A00               	xorlw	0	; case 0
  2361  000DFA  B4D8               	btfsc	status,2,c
  2362  000DFC  EFDF  F006         	goto	l1400
  2363  000E00  0A01               	xorlw	1	; case 1
  2364  000E02  B4D8               	btfsc	status,2,c
  2365  000E04  EFE5  F006         	goto	l1402
  2366  000E08  0A03               	xorlw	3	; case 2
  2367  000E0A  B4D8               	btfsc	status,2,c
  2368  000E0C  EFEB  F006         	goto	l1404
  2369  000E10  EF0A  F007         	goto	l318
  2370  000E14                     l318:
  2371  000E14  0012               	return		;funcret
  2372  000E16                     __end_of_BlinkDigit:
  2373                           	callstack 0
  2374                           
  2375 ;; *************** function _my_isr_routine *****************
  2376 ;; Defined at:
  2377 ;;		line 300 in file "main.c"
  2378 ;; Parameters:    Size  Location     Type
  2379 ;;		None
  2380 ;; Auto vars:     Size  Location     Type
  2381 ;;		None
  2382 ;; Return value:  Size  Location     Type
  2383 ;;                  1    wreg      void 
  2384 ;; Registers used:
  2385 ;;		wreg, fsr2l, fsr2h, status,2, status,0, cstack
  2386 ;; Tracked objects:
  2387 ;;		On entry : 0/0
  2388 ;;		On exit  : 0/0
  2389 ;;		Unchanged: 0/0
  2390 ;; Data sizes:     COMRAM   BANK0   BANK1   BANK2   BANK3   BANK4   BANK5   BANK6   BANK7   BANK8   BANK9  BANK10  BANK1
      +1  BANK12  BANK13  BANK14  BANK15
  2391 ;;      Params:         0       0       0       0       0       0       0       0       0       0       0       0       
      +0       0       0       0       0
  2392 ;;      Locals:         0       0       0       0       0       0       0       0       0       0       0       0       
      +0       0       0       0       0
  2393 ;;      Temps:          2       0       0       0       0       0       0       0       0       0       0       0       
      +0       0       0       0       0
  2394 ;;      Totals:         2       0       0       0       0       0       0       0       0       0       0       0       
      +0       0       0       0       0
  2395 ;;Total ram usage:        2 bytes
  2396 ;; Hardware stack levels used: 1
  2397 ;; Hardware stack levels required when called: 3
  2398 ;; This function calls:
  2399 ;;		_INT0interruption
  2400 ;;		_INT1interruption
  2401 ;;		_INT2interruption
  2402 ;;		_TMR0interruption
  2403 ;;		_TMR1interruption
  2404 ;;		_TMR3interruption
  2405 ;; This function is called by:
  2406 ;;		Interrupt level 2
  2407 ;; This function uses a non-reentrant model
  2408 ;;
  2409                           
  2410                           	psect	intcode
  2411  000008                     __pintcode:
  2412                           	callstack 0
  2413  000008                     _my_isr_routine:
  2414                           	callstack 25
  2415                           
  2416                           ;incstack = 0
  2417  000008  8233               	bsf	int$flags,1,c	;set compiler interrupt flag (level 2)
  2418  00000A  EDD6  F007         	call	int_func,f	;refresh shadow registers
  2419                           
  2420                           	psect	intcode_body
  2421  000FAC                     __pintcode_body:
  2422                           	callstack 25
  2423  000FAC                     int_func:
  2424                           	callstack 25
  2425  000FAC  0006               	pop		; remove dummy address from shadow register refresh
  2426  000FAE  CFD9 F026          	movff	fsr2l,??_my_isr_routine
  2427  000FB2  CFDA F027          	movff	fsr2h,??_my_isr_routine+1
  2428  000FB6                     
  2429                           ;main.c: 302:     TMR0interruption();
  2430  000FB6  EC95  F006         	call	_TMR0interruption	;wreg free
  2431  000FBA                     
  2432                           ;main.c: 303:     TMR1interruption();
  2433  000FBA  EC45  F008         	call	_TMR1interruption	;wreg free
  2434  000FBE                     
  2435                           ;main.c: 304:     TMR3interruption();
  2436  000FBE  EC99  F007         	call	_TMR3interruption	;wreg free
  2437  000FC2                     
  2438                           ;main.c: 307:     INT0interruption();
  2439  000FC2  EC23  F005         	call	_INT0interruption	;wreg free
  2440  000FC6                     
  2441                           ;main.c: 308:     INT1interruption();
  2442  000FC6  ECF4  F003         	call	_INT1interruption	;wreg free
  2443  000FCA                     
  2444                           ;main.c: 309:     INT2interruption();
  2445  000FCA  EC51  F003         	call	_INT2interruption	;wreg free
  2446  000FCE  C027  FFDA         	movff	??_my_isr_routine+1,fsr2h
  2447  000FD2  C026  FFD9         	movff	??_my_isr_routine,fsr2l
  2448  000FD6  9233               	bcf	int$flags,1,c	;clear compiler interrupt flag (level 2)
  2449  000FD8  0011               	retfie		f
  2450  000FDA                     __end_of_my_isr_routine:
  2451                           	callstack 0
  2452                           
  2453 ;; *************** function _TMR3interruption *****************
  2454 ;; Defined at:
  2455 ;;		line 444 in file "main.c"
  2456 ;; Parameters:    Size  Location     Type
  2457 ;;		None
  2458 ;; Auto vars:     Size  Location     Type
  2459 ;;		None
  2460 ;; Return value:  Size  Location     Type
  2461 ;;                  1    wreg      void 
  2462 ;; Registers used:
  2463 ;;		wreg, status,2
  2464 ;; Tracked objects:
  2465 ;;		On entry : 0/0
  2466 ;;		On exit  : 0/0
  2467 ;;		Unchanged: 0/0
  2468 ;; Data sizes:     COMRAM   BANK0   BANK1   BANK2   BANK3   BANK4   BANK5   BANK6   BANK7   BANK8   BANK9  BANK10  BANK1
      +1  BANK12  BANK13  BANK14  BANK15
  2469 ;;      Params:         0       0       0       0       0       0       0       0       0       0       0       0       
      +0       0       0       0       0
  2470 ;;      Locals:         0       0       0       0       0       0       0       0       0       0       0       0       
      +0       0       0       0       0
  2471 ;;      Temps:          0       0       0       0       0       0       0       0       0       0       0       0       
      +0       0       0       0       0
  2472 ;;      Totals:         0       0       0       0       0       0       0       0       0       0       0       0       
      +0       0       0       0       0
  2473 ;;Total ram usage:        0 bytes
  2474 ;; Hardware stack levels used: 1
  2475 ;; This function calls:
  2476 ;;		Nothing
  2477 ;; This function is called by:
  2478 ;;		_my_isr_routine
  2479 ;; This function uses a non-reentrant model
  2480 ;;
  2481                           
  2482                           	psect	text15
  2483  000F32                     __ptext15:
  2484                           	callstack 0
  2485  000F32                     _TMR3interruption:
  2486                           	callstack 27
  2487  000F32                     
  2488                           ;main.c: 446:     if(PIE2bits.TMR3IE == 1 && PIR2bits.TMR3IF == 1){
  2489  000F32  A2A0               	btfss	160,1,c	;volatile
  2490  000F34  EF9E  F007         	goto	i2u72_41
  2491  000F38  EFA0  F007         	goto	i2u72_40
  2492  000F3C                     i2u72_41:
  2493  000F3C  EFB9  F007         	goto	i2l252
  2494  000F40                     i2u72_40:
  2495  000F40  A2A1               	btfss	161,1,c	;volatile
  2496  000F42  EFA5  F007         	goto	i2u73_41
  2497  000F46  EFA7  F007         	goto	i2u73_40
  2498  000F4A                     i2u73_41:
  2499  000F4A  EFB9  F007         	goto	i2l252
  2500  000F4E                     i2u73_40:
  2501  000F4E                     
  2502                           ;main.c: 448:         if(BuzzerFlag){
  2503  000F4E  5009               	movf	_BuzzerFlag^0,w,c
  2504  000F50  B4D8               	btfsc	status,2,c
  2505  000F52  EFAD  F007         	goto	i2u74_41
  2506  000F56  EFAF  F007         	goto	i2u74_40
  2507  000F5A                     i2u74_41:
  2508  000F5A  EFB5  F007         	goto	i2l250
  2509  000F5E                     i2u74_40:
  2510  000F5E                     
  2511                           ;main.c: 449:             PORTCbits.RC0 = 0;
  2512  000F5E  9082               	bcf	130,0,c	;volatile
  2513                           
  2514                           ;main.c: 450:             PIE2bits.TMR3IE = 0;
  2515  000F60  92A0               	bcf	160,1,c	;volatile
  2516  000F62                     
  2517                           ;main.c: 451:             BuzzerFlag = 0;
  2518  000F62  0E00               	movlw	0
  2519  000F64  6E09               	movwf	_BuzzerFlag^0,c
  2520                           
  2521                           ;main.c: 452:         }else{
  2522  000F66  EFB8  F007         	goto	i2l1478
  2523  000F6A                     i2l250:
  2524                           
  2525                           ;main.c: 453:             PORTCbits.RC0 = 1;
  2526  000F6A  8082               	bsf	130,0,c	;volatile
  2527  000F6C                     
  2528                           ;main.c: 454:             BuzzerFlag = 1;
  2529  000F6C  0E01               	movlw	1
  2530  000F6E  6E09               	movwf	_BuzzerFlag^0,c
  2531  000F70                     i2l1478:
  2532                           
  2533                           ;main.c: 458:         PIR2bits.TMR3IF = 0;
  2534  000F70  92A1               	bcf	161,1,c	;volatile
  2535  000F72                     i2l252:
  2536  000F72  0012               	return		;funcret
  2537  000F74                     __end_of_TMR3interruption:
  2538                           	callstack 0
  2539                           
  2540 ;; *************** function _TMR1interruption *****************
  2541 ;; Defined at:
  2542 ;;		line 435 in file "main.c"
  2543 ;; Parameters:    Size  Location     Type
  2544 ;;		None
  2545 ;; Auto vars:     Size  Location     Type
  2546 ;;		None
  2547 ;; Return value:  Size  Location     Type
  2548 ;;                  1    wreg      void 
  2549 ;; Registers used:
  2550 ;;		status,2, status,0
  2551 ;; Tracked objects:
  2552 ;;		On entry : 0/0
  2553 ;;		On exit  : 0/0
  2554 ;;		Unchanged: 0/0
  2555 ;; Data sizes:     COMRAM   BANK0   BANK1   BANK2   BANK3   BANK4   BANK5   BANK6   BANK7   BANK8   BANK9  BANK10  BANK1
      +1  BANK12  BANK13  BANK14  BANK15
  2556 ;;      Params:         0       0       0       0       0       0       0       0       0       0       0       0       
      +0       0       0       0       0
  2557 ;;      Locals:         0       0       0       0       0       0       0       0       0       0       0       0       
      +0       0       0       0       0
  2558 ;;      Temps:          0       0       0       0       0       0       0       0       0       0       0       0       
      +0       0       0       0       0
  2559 ;;      Totals:         0       0       0       0       0       0       0       0       0       0       0       0       
      +0       0       0       0       0
  2560 ;;Total ram usage:        0 bytes
  2561 ;; Hardware stack levels used: 1
  2562 ;; This function calls:
  2563 ;;		Nothing
  2564 ;; This function is called by:
  2565 ;;		_my_isr_routine
  2566 ;; This function uses a non-reentrant model
  2567 ;;
  2568                           
  2569                           	psect	text16
  2570  00108A                     __ptext16:
  2571                           	callstack 0
  2572  00108A                     _TMR1interruption:
  2573                           	callstack 27
  2574  00108A                     
  2575                           ;main.c: 437:     if(PIE1bits.TMR1IE == 1 && PIR1bits.TMR1IF == 1){
  2576  00108A  A09D               	btfss	157,0,c	;volatile
  2577  00108C  EF4A  F008         	goto	i2u70_41
  2578  001090  EF4C  F008         	goto	i2u70_40
  2579  001094                     i2u70_41:
  2580  001094  EF55  F008         	goto	i2l246
  2581  001098                     i2u70_40:
  2582  001098  A09E               	btfss	158,0,c	;volatile
  2583  00109A  EF51  F008         	goto	i2u71_41
  2584  00109E  EF53  F008         	goto	i2u71_40
  2585  0010A2                     i2u71_41:
  2586  0010A2  EF55  F008         	goto	i2l246
  2587  0010A6                     i2u71_40:
  2588  0010A6                     
  2589                           ;main.c: 439:         Blink = ~Blink;
  2590  0010A6  1E11               	comf	_Blink^0,f,c
  2591  0010A8                     
  2592                           ;main.c: 441:         PIR1bits.TMR1IF = 0;
  2593  0010A8  909E               	bcf	158,0,c	;volatile
  2594  0010AA                     i2l246:
  2595  0010AA  0012               	return		;funcret
  2596  0010AC                     __end_of_TMR1interruption:
  2597                           	callstack 0
  2598                           
  2599 ;; *************** function _TMR0interruption *****************
  2600 ;; Defined at:
  2601 ;;		line 411 in file "main.c"
  2602 ;; Parameters:    Size  Location     Type
  2603 ;;		None
  2604 ;; Auto vars:     Size  Location     Type
  2605 ;;		None
  2606 ;; Return value:  Size  Location     Type
  2607 ;;                  1    wreg      void 
  2608 ;; Registers used:
  2609 ;;		wreg, status,2, status,0, cstack
  2610 ;; Tracked objects:
  2611 ;;		On entry : 0/0
  2612 ;;		On exit  : 0/0
  2613 ;;		Unchanged: 0/0
  2614 ;; Data sizes:     COMRAM   BANK0   BANK1   BANK2   BANK3   BANK4   BANK5   BANK6   BANK7   BANK8   BANK9  BANK10  BANK1
      +1  BANK12  BANK13  BANK14  BANK15
  2615 ;;      Params:         0       0       0       0       0       0       0       0       0       0       0       0       
      +0       0       0       0       0
  2616 ;;      Locals:         0       0       0       0       0       0       0       0       0       0       0       0       
      +0       0       0       0       0
  2617 ;;      Temps:          2       0       0       0       0       0       0       0       0       0       0       0       
      +0       0       0       0       0
  2618 ;;      Totals:         2       0       0       0       0       0       0       0       0       0       0       0       
      +0       0       0       0       0
  2619 ;;Total ram usage:        2 bytes
  2620 ;; Hardware stack levels used: 1
  2621 ;; Hardware stack levels required when called: 1
  2622 ;; This function calls:
  2623 ;;		i2_UpdateCurrentTime
  2624 ;; This function is called by:
  2625 ;;		_my_isr_routine
  2626 ;; This function uses a non-reentrant model
  2627 ;;
  2628                           
  2629                           	psect	text17
  2630  000D2A                     __ptext17:
  2631                           	callstack 0
  2632  000D2A                     _TMR0interruption:
  2633                           	callstack 26
  2634  000D2A                     
  2635                           ;main.c: 413:     if(INTCONbits.TMR0IE && INTCONbits.TMR0IF){
  2636  000D2A  AAF2               	btfss	242,5,c	;volatile
  2637  000D2C  EF9A  F006         	goto	i2u66_41
  2638  000D30  EF9C  F006         	goto	i2u66_40
  2639  000D34                     i2u66_41:
  2640  000D34  EFDB  F006         	goto	i2l242
  2641  000D38                     i2u66_40:
  2642  000D38  A4F2               	btfss	242,2,c	;volatile
  2643  000D3A  EFA1  F006         	goto	i2u67_41
  2644  000D3E  EFA3  F006         	goto	i2u67_40
  2645  000D42                     i2u67_41:
  2646  000D42  EFDB  F006         	goto	i2l242
  2647  000D46                     i2u67_40:
  2648  000D46  EFC9  F006         	goto	i2l1452
  2649  000D4A                     i2l1438:
  2650                           
  2651                           ;main.c: 417:                 UpdateCurrentTime();
  2652  000D4A  ECAC  F002         	call	i2_UpdateCurrentTime	;wreg free
  2653  000D4E                     
  2654                           ;main.c: 419:                 if(CurrentTime[2] == TargetTime[2] && CurrentTime[1] == Ta
      +                          rgetTime[1]) {
  2655  000D4E  5032               	movf	(_TargetTime+2)^0,w,c
  2656  000D50  181C               	xorwf	(_CurrentTime+2)^0,w,c
  2657  000D52  A4D8               	btfss	status,2,c
  2658  000D54  EFAE  F006         	goto	i2u68_41
  2659  000D58  EFB0  F006         	goto	i2u68_40
  2660  000D5C                     i2u68_41:
  2661  000D5C  EFBF  F006         	goto	i2l1446
  2662  000D60                     i2u68_40:
  2663  000D60  5031               	movf	(_TargetTime+1)^0,w,c
  2664  000D62  181B               	xorwf	(_CurrentTime+1)^0,w,c
  2665  000D64  A4D8               	btfss	status,2,c
  2666  000D66  EFB7  F006         	goto	i2u69_41
  2667  000D6A  EFB9  F006         	goto	i2u69_40
  2668  000D6E                     i2u69_41:
  2669  000D6E  EFBF  F006         	goto	i2l1446
  2670  000D72                     i2u69_40:
  2671  000D72                     
  2672                           ;main.c: 420:                     WaterEnable = 1;
  2673  000D72  0E01               	movlw	1
  2674  000D74  6E0E               	movwf	_WaterEnable^0,c
  2675                           
  2676                           ;main.c: 422:                     State = 3;
  2677  000D76  0E03               	movlw	3
  2678  000D78  6E10               	movwf	_State^0,c
  2679                           
  2680                           ;main.c: 423:                 }else{
  2681  000D7A  EFDA  F006         	goto	i2l240
  2682  000D7E                     i2l1446:
  2683                           
  2684                           ;main.c: 424:                     WaterEnable = 0;
  2685  000D7E  0E00               	movlw	0
  2686  000D80  6E0E               	movwf	_WaterEnable^0,c
  2687                           
  2688                           ;main.c: 425:                     WaterEnableLock = 0;
  2689  000D82  0E00               	movlw	0
  2690  000D84  6E0D               	movwf	_WaterEnableLock^0,c
  2691  000D86  EFDA  F006         	goto	i2l240
  2692  000D8A                     i2l1448:
  2693                           
  2694                           ;main.c: 429:                 UpdateTimeFlag = 1;
  2695  000D8A  0E01               	movlw	1
  2696  000D8C  6E0F               	movwf	_UpdateTimeFlag^0,c
  2697                           
  2698                           ;main.c: 430:                 break;
  2699  000D8E  EFDA  F006         	goto	i2l240
  2700  000D92                     i2l1452:
  2701  000D92  5010               	movf	_State^0,w,c
  2702  000D94  6E1D               	movwf	??_TMR0interruption^0,c
  2703  000D96  6A1E               	clrf	(??_TMR0interruption+1)^0,c
  2704                           
  2705                           ; Switch on 2 bytes has been partitioned into a top level switch of size 1, and 1 sub-sw
      +                          itches
  2706                           ; Switch size 1, requested type "simple"
  2707                           ; Number of cases is 1, Range of values is 0 to 0
  2708                           ; switch strategies available:
  2709                           ; Name         Instructions Cycles
  2710                           ; simple_byte            4     3 (average)
  2711                           ;	Chosen strategy is simple_byte
  2712  000D98  501E               	movf	(??_TMR0interruption+1)^0,w,c
  2713  000D9A  0A00               	xorlw	0	; case 0
  2714  000D9C  B4D8               	btfsc	status,2,c
  2715  000D9E  EFD3  F006         	goto	i2l2348
  2716  000DA2  EFC5  F006         	goto	i2l1448
  2717  000DA6                     i2l2348:
  2718                           
  2719                           ; Switch size 1, requested type "simple"
  2720                           ; Number of cases is 1, Range of values is 2 to 2
  2721                           ; switch strategies available:
  2722                           ; Name         Instructions Cycles
  2723                           ; simple_byte            4     3 (average)
  2724                           ;	Chosen strategy is simple_byte
  2725  000DA6  501D               	movf	??_TMR0interruption^0,w,c
  2726  000DA8  0A02               	xorlw	2	; case 2
  2727  000DAA  B4D8               	btfsc	status,2,c
  2728  000DAC  EFA5  F006         	goto	i2l1438
  2729  000DB0  EFC5  F006         	goto	i2l1448
  2730  000DB4                     i2l240:
  2731                           
  2732                           ;main.c: 432:         INTCONbits.TMR0IF = 0;
  2733  000DB4  94F2               	bcf	242,2,c	;volatile
  2734  000DB6                     i2l242:
  2735  000DB6  0012               	return		;funcret
  2736  000DB8                     __end_of_TMR0interruption:
  2737                           	callstack 0
  2738                           
  2739 ;; *************** function _INT2interruption *****************
  2740 ;; Defined at:
  2741 ;;		line 585 in file "main.c"
  2742 ;; Parameters:    Size  Location     Type
  2743 ;;		None
  2744 ;; Auto vars:     Size  Location     Type
  2745 ;;		None
  2746 ;; Return value:  Size  Location     Type
  2747 ;;                  1    wreg      void 
  2748 ;; Registers used:
  2749 ;;		wreg, fsr2l, fsr2h, status,2, status,0, cstack
  2750 ;; Tracked objects:
  2751 ;;		On entry : 0/0
  2752 ;;		On exit  : 0/0
  2753 ;;		Unchanged: 0/0
  2754 ;; Data sizes:     COMRAM   BANK0   BANK1   BANK2   BANK3   BANK4   BANK5   BANK6   BANK7   BANK8   BANK9  BANK10  BANK1
      +1  BANK12  BANK13  BANK14  BANK15
  2755 ;;      Params:         0       0       0       0       0       0       0       0       0       0       0       0       
      +0       0       0       0       0
  2756 ;;      Locals:         0       0       0       0       0       0       0       0       0       0       0       0       
      +0       0       0       0       0
  2757 ;;      Temps:          2       0       0       0       0       0       0       0       0       0       0       0       
      +0       0       0       0       0
  2758 ;;      Totals:         2       0       0       0       0       0       0       0       0       0       0       0       
      +0       0       0       0       0
  2759 ;;Total ram usage:        2 bytes
  2760 ;; Hardware stack levels used: 1
  2761 ;; Hardware stack levels required when called: 2
  2762 ;; This function calls:
  2763 ;;		_Buzz
  2764 ;;		_ChangeTime
  2765 ;;		_DecrementTime
  2766 ;;		_DecrementTimeHour
  2767 ;;		i2_WakeUp
  2768 ;; This function is called by:
  2769 ;;		_my_isr_routine
  2770 ;; This function uses a non-reentrant model
  2771 ;;
  2772                           
  2773                           	psect	text18
  2774  0006A2                     __ptext18:
  2775                           	callstack 0
  2776  0006A2                     _INT2interruption:
  2777                           	callstack 25
  2778  0006A2                     
  2779                           ;main.c: 587:     if(INTCON3bits.INT2IE == 1 && INTCON3bits.INT2IF == 1){
  2780  0006A2  A8F0               	btfss	240,4,c	;volatile
  2781  0006A4  EF56  F003         	goto	i2u151_41
  2782  0006A8  EF58  F003         	goto	i2u151_40
  2783  0006AC                     i2u151_41:
  2784  0006AC  EFF3  F003         	goto	i2l300
  2785  0006B0                     i2u151_40:
  2786  0006B0  A2F0               	btfss	240,1,c	;volatile
  2787  0006B2  EF5D  F003         	goto	i2u152_41
  2788  0006B6  EF5F  F003         	goto	i2u152_40
  2789  0006BA                     i2u152_41:
  2790  0006BA  EFF3  F003         	goto	i2l300
  2791  0006BE                     i2u152_40:
  2792  0006BE                     
  2793                           ;main.c: 589:         Buzz();
  2794  0006BE  EC9A  F008         	call	_Buzz	;wreg free
  2795                           
  2796                           ;main.c: 592:         switch(State){
  2797  0006C2  EFBD  F003         	goto	i2l2140
  2798  0006C6                     i2l2110:
  2799                           
  2800                           ;main.c: 595:                 DecrementTime(&CurrentTime[1]);
  2801  0006C6  0E1B               	movlw	low (_CurrentTime+1)
  2802  0006C8  6E21               	movwf	DecrementTime@Time^0,c
  2803  0006CA  0E00               	movlw	high (_CurrentTime+1)
  2804  0006CC  6E22               	movwf	(DecrementTime@Time+1)^0,c
  2805  0006CE  EC76  F007         	call	_DecrementTime	;wreg free
  2806  0006D2                     
  2807                           ;main.c: 596:                 ChangeTime(0x00, 0x00);
  2808  0006D2  0E00               	movlw	0
  2809  0006D4  6E1D               	movwf	ChangeTime@Time^0,c
  2810  0006D6  0E00               	movlw	0
  2811  0006D8  ECA8  F005         	call	_ChangeTime
  2812  0006DC                     
  2813                           ;main.c: 597:                 ChangeTime(0x01, CurrentTime[1]);
  2814  0006DC  C01B  F01D         	movff	_CurrentTime+1,ChangeTime@Time
  2815  0006E0  0E01               	movlw	1
  2816  0006E2  ECA8  F005         	call	_ChangeTime
  2817                           
  2818                           ;main.c: 598:                 break;
  2819  0006E6  EFF2  F003         	goto	i2l290
  2820  0006EA                     i2l2116:
  2821                           
  2822                           ;main.c: 601:                 DecrementTimeHour(&CurrentTime[2]);
  2823  0006EA  0E1C               	movlw	low (_CurrentTime+2)
  2824  0006EC  6E21               	movwf	DecrementTimeHour@Time^0,c
  2825  0006EE  0E00               	movlw	high (_CurrentTime+2)
  2826  0006F0  6E22               	movwf	(DecrementTimeHour@Time+1)^0,c
  2827  0006F2  EC53  F007         	call	_DecrementTimeHour	;wreg free
  2828  0006F6                     
  2829                           ;main.c: 602:                 ChangeTime(0x00, 0x00);
  2830  0006F6  0E00               	movlw	0
  2831  0006F8  6E1D               	movwf	ChangeTime@Time^0,c
  2832  0006FA  0E00               	movlw	0
  2833  0006FC  ECA8  F005         	call	_ChangeTime
  2834  000700                     
  2835                           ;main.c: 603:                 ChangeTime(0x02, CurrentTime[2]);
  2836  000700  C01C  F01D         	movff	_CurrentTime+2,ChangeTime@Time
  2837  000704  0E02               	movlw	2
  2838  000706  ECA8  F005         	call	_ChangeTime
  2839                           
  2840                           ;main.c: 604:                 break;
  2841  00070A  EFF2  F003         	goto	i2l290
  2842  00070E                     i2l2122:
  2843                           
  2844                           ;main.c: 608:                 WakeUp();
  2845  00070E  EC48  F006         	call	i2_WakeUp	;wreg free
  2846  000712                     
  2847                           ;main.c: 610:                 State = 3;
  2848  000712  0E03               	movlw	3
  2849  000714  6E10               	movwf	_State^0,c
  2850                           
  2851                           ;main.c: 612:                 break;
  2852  000716  EFF2  F003         	goto	i2l290
  2853  00071A                     i2l2126:
  2854                           
  2855                           ;main.c: 619:                 DecrementTime(&TargetTime[1]);
  2856  00071A  0E31               	movlw	low (_TargetTime+1)
  2857  00071C  6E21               	movwf	DecrementTime@Time^0,c
  2858  00071E  0E00               	movlw	high (_TargetTime+1)
  2859  000720  6E22               	movwf	(DecrementTime@Time+1)^0,c
  2860  000722  EC76  F007         	call	_DecrementTime	;wreg free
  2861                           
  2862                           ;main.c: 620:                 break;
  2863  000726  EFF2  F003         	goto	i2l290
  2864  00072A                     i2l2128:
  2865                           
  2866                           ;main.c: 623:                 DecrementTimeHour(&TargetTime[2]);
  2867  00072A  0E32               	movlw	low (_TargetTime+2)
  2868  00072C  6E21               	movwf	DecrementTimeHour@Time^0,c
  2869  00072E  0E00               	movlw	high (_TargetTime+2)
  2870  000730  6E22               	movwf	(DecrementTimeHour@Time+1)^0,c
  2871  000732  EC53  F007         	call	_DecrementTimeHour	;wreg free
  2872                           
  2873                           ;main.c: 624:                 break;
  2874  000736  EFF2  F003         	goto	i2l290
  2875  00073A                     i2l2130:
  2876                           
  2877                           ;main.c: 627:                 DecrementTime(&WateringTime[0]);
  2878  00073A  0E17               	movlw	low _WateringTime
  2879  00073C  6E21               	movwf	DecrementTime@Time^0,c
  2880  00073E  0E00               	movlw	high _WateringTime
  2881  000740  6E22               	movwf	(DecrementTime@Time+1)^0,c
  2882  000742  EC76  F007         	call	_DecrementTime	;wreg free
  2883                           
  2884                           ;main.c: 628:                 break;
  2885  000746  EFF2  F003         	goto	i2l290
  2886  00074A                     i2l2132:
  2887                           
  2888                           ;main.c: 631:                 DecrementTime(&WateringTime[1]);
  2889  00074A  0E18               	movlw	low (_WateringTime+1)
  2890  00074C  6E21               	movwf	DecrementTime@Time^0,c
  2891  00074E  0E00               	movlw	high (_WateringTime+1)
  2892  000750  6E22               	movwf	(DecrementTime@Time+1)^0,c
  2893  000752  EC76  F007         	call	_DecrementTime	;wreg free
  2894                           
  2895                           ;main.c: 632:                 break;
  2896  000756  EFF2  F003         	goto	i2l290
  2897  00075A                     i2l2134:
  2898                           
  2899                           ;main.c: 635:                 DecrementTime(&ValveTime[0]);
  2900  00075A  0E14               	movlw	low _ValveTime
  2901  00075C  6E21               	movwf	DecrementTime@Time^0,c
  2902  00075E  0E00               	movlw	high _ValveTime
  2903  000760  6E22               	movwf	(DecrementTime@Time+1)^0,c
  2904  000762  EC76  F007         	call	_DecrementTime	;wreg free
  2905                           
  2906                           ;main.c: 636:                 break;
  2907  000766  EFF2  F003         	goto	i2l290
  2908  00076A                     i2l2136:
  2909                           
  2910                           ;main.c: 639:                 DecrementTime(&ValveTime[1]);
  2911  00076A  0E15               	movlw	low (_ValveTime+1)
  2912  00076C  6E21               	movwf	DecrementTime@Time^0,c
  2913  00076E  0E00               	movlw	high (_ValveTime+1)
  2914  000770  6E22               	movwf	(DecrementTime@Time+1)^0,c
  2915  000772  EC76  F007         	call	_DecrementTime	;wreg free
  2916                           
  2917                           ;main.c: 640:                 break;
  2918  000776  EFF2  F003         	goto	i2l290
  2919  00077A                     i2l2140:
  2920  00077A  5010               	movf	_State^0,w,c
  2921  00077C  6E23               	movwf	??_INT2interruption^0,c
  2922  00077E  6A24               	clrf	(??_INT2interruption+1)^0,c
  2923                           
  2924                           ; Switch on 2 bytes has been partitioned into a top level switch of size 1, and 1 sub-sw
      +                          itches
  2925                           ; Switch size 1, requested type "simple"
  2926                           ; Number of cases is 1, Range of values is 0 to 0
  2927                           ; switch strategies available:
  2928                           ; Name         Instructions Cycles
  2929                           ; simple_byte            4     3 (average)
  2930                           ;	Chosen strategy is simple_byte
  2931  000780  5024               	movf	(??_INT2interruption+1)^0,w,c
  2932  000782  0A00               	xorlw	0	; case 0
  2933  000784  B4D8               	btfsc	status,2,c
  2934  000786  EFC7  F003         	goto	i2l2350
  2935  00078A  EFF2  F003         	goto	i2l290
  2936  00078E                     i2l2350:
  2937                           
  2938                           ; Switch size 1, requested type "simple"
  2939                           ; Number of cases is 10, Range of values is 0 to 9
  2940                           ; switch strategies available:
  2941                           ; Name         Instructions Cycles
  2942                           ; simple_byte           31    16 (average)
  2943                           ;	Chosen strategy is simple_byte
  2944  00078E  5023               	movf	??_INT2interruption^0,w,c
  2945  000790  0A00               	xorlw	0	; case 0
  2946  000792  B4D8               	btfsc	status,2,c
  2947  000794  EF63  F003         	goto	i2l2110
  2948  000798  0A01               	xorlw	1	; case 1
  2949  00079A  B4D8               	btfsc	status,2,c
  2950  00079C  EF75  F003         	goto	i2l2116
  2951  0007A0  0A03               	xorlw	3	; case 2
  2952  0007A2  B4D8               	btfsc	status,2,c
  2953  0007A4  EF87  F003         	goto	i2l2122
  2954  0007A8  0A01               	xorlw	1	; case 3
  2955  0007AA  B4D8               	btfsc	status,2,c
  2956  0007AC  EFF2  F003         	goto	i2l290
  2957  0007B0  0A07               	xorlw	7	; case 4
  2958  0007B2  B4D8               	btfsc	status,2,c
  2959  0007B4  EF8D  F003         	goto	i2l2126
  2960  0007B8  0A01               	xorlw	1	; case 5
  2961  0007BA  B4D8               	btfsc	status,2,c
  2962  0007BC  EF95  F003         	goto	i2l2128
  2963  0007C0  0A03               	xorlw	3	; case 6
  2964  0007C2  B4D8               	btfsc	status,2,c
  2965  0007C4  EF9D  F003         	goto	i2l2130
  2966  0007C8  0A01               	xorlw	1	; case 7
  2967  0007CA  B4D8               	btfsc	status,2,c
  2968  0007CC  EFA5  F003         	goto	i2l2132
  2969  0007D0  0A0F               	xorlw	15	; case 8
  2970  0007D2  B4D8               	btfsc	status,2,c
  2971  0007D4  EFAD  F003         	goto	i2l2134
  2972  0007D8  0A01               	xorlw	1	; case 9
  2973  0007DA  B4D8               	btfsc	status,2,c
  2974  0007DC  EFB5  F003         	goto	i2l2136
  2975  0007E0  EFF2  F003         	goto	i2l290
  2976  0007E4                     i2l290:
  2977                           
  2978                           ;main.c: 643:         INTCON3bits.INT2IF = 0;
  2979  0007E4  92F0               	bcf	240,1,c	;volatile
  2980  0007E6                     i2l300:
  2981  0007E6  0012               	return		;funcret
  2982  0007E8                     __end_of_INT2interruption:
  2983                           	callstack 0
  2984                           
  2985 ;; *************** function _DecrementTimeHour *****************
  2986 ;; Defined at:
  2987 ;;		line 712 in file "main.c"
  2988 ;; Parameters:    Size  Location     Type
  2989 ;;  Time            2    4[COMRAM] PTR unsigned char 
  2990 ;;		 -> TargetTime(3), CurrentTime(3), 
  2991 ;; Auto vars:     Size  Location     Type
  2992 ;;		None
  2993 ;; Return value:  Size  Location     Type
  2994 ;;                  1    wreg      void 
  2995 ;; Registers used:
  2996 ;;		wreg, fsr2l, fsr2h, status,2, status,0, cstack
  2997 ;; Tracked objects:
  2998 ;;		On entry : 0/0
  2999 ;;		On exit  : 0/0
  3000 ;;		Unchanged: 0/0
  3001 ;; Data sizes:     COMRAM   BANK0   BANK1   BANK2   BANK3   BANK4   BANK5   BANK6   BANK7   BANK8   BANK9  BANK10  BANK1
      +1  BANK12  BANK13  BANK14  BANK15
  3002 ;;      Params:         2       0       0       0       0       0       0       0       0       0       0       0       
      +0       0       0       0       0
  3003 ;;      Locals:         0       0       0       0       0       0       0       0       0       0       0       0       
      +0       0       0       0       0
  3004 ;;      Temps:          0       0       0       0       0       0       0       0       0       0       0       0       
      +0       0       0       0       0
  3005 ;;      Totals:         2       0       0       0       0       0       0       0       0       0       0       0       
      +0       0       0       0       0
  3006 ;;Total ram usage:        2 bytes
  3007 ;; Hardware stack levels used: 1
  3008 ;; Hardware stack levels required when called: 1
  3009 ;; This function calls:
  3010 ;;		i2_SubBCD
  3011 ;; This function is called by:
  3012 ;;		_INT2interruption
  3013 ;; This function uses a non-reentrant model
  3014 ;;
  3015                           
  3016                           	psect	text19
  3017  000EA6                     __ptext19:
  3018                           	callstack 0
  3019  000EA6                     _DecrementTimeHour:
  3020                           	callstack 25
  3021  000EA6                     
  3022                           ;main.c: 713:     if(*Time == 0x00) *Time = 0x23;
  3023  000EA6  C021  FFD9         	movff	DecrementTimeHour@Time,fsr2l
  3024  000EAA  C022  FFDA         	movff	DecrementTimeHour@Time+1,fsr2h
  3025  000EAE  50DF               	movf	indf2,w,c
  3026  000EB0  A4D8               	btfss	status,2,c
  3027  000EB2  EF5D  F007         	goto	i2u141_41
  3028  000EB6  EF5F  F007         	goto	i2u141_40
  3029  000EBA                     i2u141_41:
  3030  000EBA  EF67  F007         	goto	i2l1952
  3031  000EBE                     i2u141_40:
  3032  000EBE  C021  FFD9         	movff	DecrementTimeHour@Time,fsr2l
  3033  000EC2  C022  FFDA         	movff	DecrementTimeHour@Time+1,fsr2h
  3034  000EC6  0E23               	movlw	35
  3035  000EC8  6EDF               	movwf	indf2,c
  3036  000ECA  EF75  F007         	goto	i2l344
  3037  000ECE                     i2l1952:
  3038  000ECE  0E01               	movlw	1
  3039  000ED0  6E1D               	movwf	i2SubBCD@Number2^0,c
  3040  000ED2  C021  FFD9         	movff	DecrementTimeHour@Time,fsr2l
  3041  000ED6  C022  FFDA         	movff	DecrementTimeHour@Time+1,fsr2h
  3042  000EDA  50DF               	movf	indf2,w,c
  3043  000EDC  EC19  F008         	call	i2_SubBCD
  3044  000EE0  C021  FFD9         	movff	DecrementTimeHour@Time,fsr2l
  3045  000EE4  C022  FFDA         	movff	DecrementTimeHour@Time+1,fsr2h
  3046  000EE8  6EDF               	movwf	indf2,c
  3047  000EEA                     i2l344:
  3048  000EEA  0012               	return		;funcret
  3049  000EEC                     __end_of_DecrementTimeHour:
  3050                           	callstack 0
  3051                           
  3052 ;; *************** function _DecrementTime *****************
  3053 ;; Defined at:
  3054 ;;		line 708 in file "main.c"
  3055 ;; Parameters:    Size  Location     Type
  3056 ;;  Time            2    4[COMRAM] PTR unsigned char 
  3057 ;;		 -> ValveTime(3), WateringTime(3), TargetTime(3), CurrentTime(3), 
  3058 ;; Auto vars:     Size  Location     Type
  3059 ;;		None
  3060 ;; Return value:  Size  Location     Type
  3061 ;;                  1    wreg      void 
  3062 ;; Registers used:
  3063 ;;		wreg, fsr2l, fsr2h, status,2, status,0, cstack
  3064 ;; Tracked objects:
  3065 ;;		On entry : 0/0
  3066 ;;		On exit  : 0/0
  3067 ;;		Unchanged: 0/0
  3068 ;; Data sizes:     COMRAM   BANK0   BANK1   BANK2   BANK3   BANK4   BANK5   BANK6   BANK7   BANK8   BANK9  BANK10  BANK1
      +1  BANK12  BANK13  BANK14  BANK15
  3069 ;;      Params:         2       0       0       0       0       0       0       0       0       0       0       0       
      +0       0       0       0       0
  3070 ;;      Locals:         0       0       0       0       0       0       0       0       0       0       0       0       
      +0       0       0       0       0
  3071 ;;      Temps:          0       0       0       0       0       0       0       0       0       0       0       0       
      +0       0       0       0       0
  3072 ;;      Totals:         2       0       0       0       0       0       0       0       0       0       0       0       
      +0       0       0       0       0
  3073 ;;Total ram usage:        2 bytes
  3074 ;; Hardware stack levels used: 1
  3075 ;; Hardware stack levels required when called: 1
  3076 ;; This function calls:
  3077 ;;		i2_SubBCD
  3078 ;; This function is called by:
  3079 ;;		_INT2interruption
  3080 ;; This function uses a non-reentrant model
  3081 ;;
  3082                           
  3083                           	psect	text20
  3084  000EEC                     __ptext20:
  3085                           	callstack 0
  3086  000EEC                     _DecrementTime:
  3087                           	callstack 25
  3088  000EEC                     
  3089                           ;main.c: 709:     if(*Time == 0x00) *Time = 0x59;
  3090  000EEC  C021  FFD9         	movff	DecrementTime@Time,fsr2l
  3091  000EF0  C022  FFDA         	movff	DecrementTime@Time+1,fsr2h
  3092  000EF4  50DF               	movf	indf2,w,c
  3093  000EF6  A4D8               	btfss	status,2,c
  3094  000EF8  EF80  F007         	goto	i2u140_41
  3095  000EFC  EF82  F007         	goto	i2u140_40
  3096  000F00                     i2u140_41:
  3097  000F00  EF8A  F007         	goto	i2l1946
  3098  000F04                     i2u140_40:
  3099  000F04  C021  FFD9         	movff	DecrementTime@Time,fsr2l
  3100  000F08  C022  FFDA         	movff	DecrementTime@Time+1,fsr2h
  3101  000F0C  0E59               	movlw	89
  3102  000F0E  6EDF               	movwf	indf2,c
  3103  000F10  EF98  F007         	goto	i2l339
  3104  000F14                     i2l1946:
  3105  000F14  0E01               	movlw	1
  3106  000F16  6E1D               	movwf	i2SubBCD@Number2^0,c
  3107  000F18  C021  FFD9         	movff	DecrementTime@Time,fsr2l
  3108  000F1C  C022  FFDA         	movff	DecrementTime@Time+1,fsr2h
  3109  000F20  50DF               	movf	indf2,w,c
  3110  000F22  EC19  F008         	call	i2_SubBCD
  3111  000F26  C021  FFD9         	movff	DecrementTime@Time,fsr2l
  3112  000F2A  C022  FFDA         	movff	DecrementTime@Time+1,fsr2h
  3113  000F2E  6EDF               	movwf	indf2,c
  3114  000F30                     i2l339:
  3115  000F30  0012               	return		;funcret
  3116  000F32                     __end_of_DecrementTime:
  3117                           	callstack 0
  3118                           
  3119 ;; *************** function _INT1interruption *****************
  3120 ;; Defined at:
  3121 ;;		line 528 in file "main.c"
  3122 ;; Parameters:    Size  Location     Type
  3123 ;;		None
  3124 ;; Auto vars:     Size  Location     Type
  3125 ;;		None
  3126 ;; Return value:  Size  Location     Type
  3127 ;;                  1    wreg      void 
  3128 ;; Registers used:
  3129 ;;		wreg, fsr2l, fsr2h, status,2, status,0, cstack
  3130 ;; Tracked objects:
  3131 ;;		On entry : 0/0
  3132 ;;		On exit  : 0/0
  3133 ;;		Unchanged: 0/0
  3134 ;; Data sizes:     COMRAM   BANK0   BANK1   BANK2   BANK3   BANK4   BANK5   BANK6   BANK7   BANK8   BANK9  BANK10  BANK1
      +1  BANK12  BANK13  BANK14  BANK15
  3135 ;;      Params:         0       0       0       0       0       0       0       0       0       0       0       0       
      +0       0       0       0       0
  3136 ;;      Locals:         0       0       0       0       0       0       0       0       0       0       0       0       
      +0       0       0       0       0
  3137 ;;      Temps:          2       0       0       0       0       0       0       0       0       0       0       0       
      +0       0       0       0       0
  3138 ;;      Totals:         2       0       0       0       0       0       0       0       0       0       0       0       
      +0       0       0       0       0
  3139 ;;Total ram usage:        2 bytes
  3140 ;; Hardware stack levels used: 1
  3141 ;; Hardware stack levels required when called: 2
  3142 ;; This function calls:
  3143 ;;		_Buzz
  3144 ;;		_ChangeTime
  3145 ;;		_IncrementTime
  3146 ;;		_IncrementTimeHour
  3147 ;;		i2_WakeUp
  3148 ;; This function is called by:
  3149 ;;		_my_isr_routine
  3150 ;; This function uses a non-reentrant model
  3151 ;;
  3152                           
  3153                           	psect	text21
  3154  0007E8                     __ptext21:
  3155                           	callstack 0
  3156  0007E8                     _INT1interruption:
  3157                           	callstack 25
  3158  0007E8                     
  3159                           ;main.c: 530:     if(INTCON3bits.INT1IE == 1 && INTCON3bits.INT1IF == 1){
  3160  0007E8  A6F0               	btfss	240,3,c	;volatile
  3161  0007EA  EFF9  F003         	goto	i2u149_41
  3162  0007EE  EFFB  F003         	goto	i2u149_40
  3163  0007F2                     i2u149_41:
  3164  0007F2  EF96  F004         	goto	i2l284
  3165  0007F6                     i2u149_40:
  3166  0007F6  A0F0               	btfss	240,0,c	;volatile
  3167  0007F8  EF00  F004         	goto	i2u150_41
  3168  0007FC  EF02  F004         	goto	i2u150_40
  3169  000800                     i2u150_41:
  3170  000800  EF96  F004         	goto	i2l284
  3171  000804                     i2u150_40:
  3172  000804                     
  3173                           ;main.c: 532:         Buzz();
  3174  000804  EC9A  F008         	call	_Buzz	;wreg free
  3175                           
  3176                           ;main.c: 535:         switch(State){
  3177  000808  EF60  F004         	goto	i2l2098
  3178  00080C                     i2l2068:
  3179                           
  3180                           ;main.c: 537:                 IncrementTime(&CurrentTime[1]);
  3181  00080C  0E1B               	movlw	low (_CurrentTime+1)
  3182  00080E  6E21               	movwf	IncrementTime@Time^0,c
  3183  000810  0E00               	movlw	high (_CurrentTime+1)
  3184  000812  6E22               	movwf	(IncrementTime@Time+1)^0,c
  3185  000814  EC2F  F007         	call	_IncrementTime	;wreg free
  3186  000818                     
  3187                           ;main.c: 538:                 ChangeTime(0x00, 0x00);
  3188  000818  0E00               	movlw	0
  3189  00081A  6E1D               	movwf	ChangeTime@Time^0,c
  3190  00081C  0E00               	movlw	0
  3191  00081E  ECA8  F005         	call	_ChangeTime
  3192  000822                     
  3193                           ;main.c: 539:                 ChangeTime(0x01, CurrentTime[1]);
  3194  000822  C01B  F01D         	movff	_CurrentTime+1,ChangeTime@Time
  3195  000826  0E01               	movlw	1
  3196  000828  ECA8  F005         	call	_ChangeTime
  3197                           
  3198                           ;main.c: 540:                 break;
  3199  00082C  EF95  F004         	goto	i2l274
  3200  000830                     i2l2074:
  3201                           
  3202                           ;main.c: 543:                 IncrementTimeHour(&CurrentTime[2]);
  3203  000830  0E1C               	movlw	low (_CurrentTime+2)
  3204  000832  6E21               	movwf	IncrementTimeHour@Time^0,c
  3205  000834  0E00               	movlw	high (_CurrentTime+2)
  3206  000836  6E22               	movwf	(IncrementTimeHour@Time+1)^0,c
  3207  000838  EC0B  F007         	call	_IncrementTimeHour	;wreg free
  3208  00083C                     
  3209                           ;main.c: 544:                 ChangeTime(0x00, 0x00);
  3210  00083C  0E00               	movlw	0
  3211  00083E  6E1D               	movwf	ChangeTime@Time^0,c
  3212  000840  0E00               	movlw	0
  3213  000842  ECA8  F005         	call	_ChangeTime
  3214  000846                     
  3215                           ;main.c: 545:                 ChangeTime(0x02, CurrentTime[2]);
  3216  000846  C01C  F01D         	movff	_CurrentTime+2,ChangeTime@Time
  3217  00084A  0E02               	movlw	2
  3218  00084C  ECA8  F005         	call	_ChangeTime
  3219                           
  3220                           ;main.c: 546:                 break;
  3221  000850  EF95  F004         	goto	i2l274
  3222  000854                     i2l2080:
  3223                           
  3224                           ;main.c: 549:                 WakeUp();
  3225  000854  EC48  F006         	call	i2_WakeUp	;wreg free
  3226  000858                     
  3227                           ;main.c: 550:                 State = 3;
  3228  000858  0E03               	movlw	3
  3229  00085A  6E10               	movwf	_State^0,c
  3230                           
  3231                           ;main.c: 551:                 break;
  3232  00085C  EF95  F004         	goto	i2l274
  3233  000860                     i2l2084:
  3234                           
  3235                           ;main.c: 558:                 IncrementTime(&TargetTime[1]);
  3236  000860  0E31               	movlw	low (_TargetTime+1)
  3237  000862  6E21               	movwf	IncrementTime@Time^0,c
  3238  000864  0E00               	movlw	high (_TargetTime+1)
  3239  000866  6E22               	movwf	(IncrementTime@Time+1)^0,c
  3240  000868  EC2F  F007         	call	_IncrementTime	;wreg free
  3241                           
  3242                           ;main.c: 559:                 break;
  3243  00086C  EF95  F004         	goto	i2l274
  3244  000870                     i2l2086:
  3245                           
  3246                           ;main.c: 562:                 IncrementTimeHour(&TargetTime[2]);
  3247  000870  0E32               	movlw	low (_TargetTime+2)
  3248  000872  6E21               	movwf	IncrementTimeHour@Time^0,c
  3249  000874  0E00               	movlw	high (_TargetTime+2)
  3250  000876  6E22               	movwf	(IncrementTimeHour@Time+1)^0,c
  3251  000878  EC0B  F007         	call	_IncrementTimeHour	;wreg free
  3252                           
  3253                           ;main.c: 563:                 break;
  3254  00087C  EF95  F004         	goto	i2l274
  3255  000880                     i2l2088:
  3256                           
  3257                           ;main.c: 566:                 IncrementTime(&WateringTime[0]);
  3258  000880  0E17               	movlw	low _WateringTime
  3259  000882  6E21               	movwf	IncrementTime@Time^0,c
  3260  000884  0E00               	movlw	high _WateringTime
  3261  000886  6E22               	movwf	(IncrementTime@Time+1)^0,c
  3262  000888  EC2F  F007         	call	_IncrementTime	;wreg free
  3263                           
  3264                           ;main.c: 567:                 break;
  3265  00088C  EF95  F004         	goto	i2l274
  3266  000890                     i2l2090:
  3267                           
  3268                           ;main.c: 570:                 IncrementTime(&WateringTime[1]);
  3269  000890  0E18               	movlw	low (_WateringTime+1)
  3270  000892  6E21               	movwf	IncrementTime@Time^0,c
  3271  000894  0E00               	movlw	high (_WateringTime+1)
  3272  000896  6E22               	movwf	(IncrementTime@Time+1)^0,c
  3273  000898  EC2F  F007         	call	_IncrementTime	;wreg free
  3274                           
  3275                           ;main.c: 571:                 break;
  3276  00089C  EF95  F004         	goto	i2l274
  3277  0008A0                     i2l2092:
  3278                           
  3279                           ;main.c: 574:                 IncrementTime(&ValveTime[0]);
  3280  0008A0  0E14               	movlw	low _ValveTime
  3281  0008A2  6E21               	movwf	IncrementTime@Time^0,c
  3282  0008A4  0E00               	movlw	high _ValveTime
  3283  0008A6  6E22               	movwf	(IncrementTime@Time+1)^0,c
  3284  0008A8  EC2F  F007         	call	_IncrementTime	;wreg free
  3285                           
  3286                           ;main.c: 575:                 break;
  3287  0008AC  EF95  F004         	goto	i2l274
  3288  0008B0                     i2l2094:
  3289                           
  3290                           ;main.c: 578:                 IncrementTime(&ValveTime[1]);
  3291  0008B0  0E15               	movlw	low (_ValveTime+1)
  3292  0008B2  6E21               	movwf	IncrementTime@Time^0,c
  3293  0008B4  0E00               	movlw	high (_ValveTime+1)
  3294  0008B6  6E22               	movwf	(IncrementTime@Time+1)^0,c
  3295  0008B8  EC2F  F007         	call	_IncrementTime	;wreg free
  3296                           
  3297                           ;main.c: 579:                 break;
  3298  0008BC  EF95  F004         	goto	i2l274
  3299  0008C0                     i2l2098:
  3300  0008C0  5010               	movf	_State^0,w,c
  3301  0008C2  6E24               	movwf	??_INT1interruption^0,c
  3302  0008C4  6A25               	clrf	(??_INT1interruption+1)^0,c
  3303                           
  3304                           ; Switch on 2 bytes has been partitioned into a top level switch of size 1, and 1 sub-sw
      +                          itches
  3305                           ; Switch size 1, requested type "simple"
  3306                           ; Number of cases is 1, Range of values is 0 to 0
  3307                           ; switch strategies available:
  3308                           ; Name         Instructions Cycles
  3309                           ; simple_byte            4     3 (average)
  3310                           ;	Chosen strategy is simple_byte
  3311  0008C6  5025               	movf	(??_INT1interruption+1)^0,w,c
  3312  0008C8  0A00               	xorlw	0	; case 0
  3313  0008CA  B4D8               	btfsc	status,2,c
  3314  0008CC  EF6A  F004         	goto	i2l2352
  3315  0008D0  EF95  F004         	goto	i2l274
  3316  0008D4                     i2l2352:
  3317                           
  3318                           ; Switch size 1, requested type "simple"
  3319                           ; Number of cases is 10, Range of values is 0 to 9
  3320                           ; switch strategies available:
  3321                           ; Name         Instructions Cycles
  3322                           ; simple_byte           31    16 (average)
  3323                           ;	Chosen strategy is simple_byte
  3324  0008D4  5024               	movf	??_INT1interruption^0,w,c
  3325  0008D6  0A00               	xorlw	0	; case 0
  3326  0008D8  B4D8               	btfsc	status,2,c
  3327  0008DA  EF06  F004         	goto	i2l2068
  3328  0008DE  0A01               	xorlw	1	; case 1
  3329  0008E0  B4D8               	btfsc	status,2,c
  3330  0008E2  EF18  F004         	goto	i2l2074
  3331  0008E6  0A03               	xorlw	3	; case 2
  3332  0008E8  B4D8               	btfsc	status,2,c
  3333  0008EA  EF2A  F004         	goto	i2l2080
  3334  0008EE  0A01               	xorlw	1	; case 3
  3335  0008F0  B4D8               	btfsc	status,2,c
  3336  0008F2  EF95  F004         	goto	i2l274
  3337  0008F6  0A07               	xorlw	7	; case 4
  3338  0008F8  B4D8               	btfsc	status,2,c
  3339  0008FA  EF30  F004         	goto	i2l2084
  3340  0008FE  0A01               	xorlw	1	; case 5
  3341  000900  B4D8               	btfsc	status,2,c
  3342  000902  EF38  F004         	goto	i2l2086
  3343  000906  0A03               	xorlw	3	; case 6
  3344  000908  B4D8               	btfsc	status,2,c
  3345  00090A  EF40  F004         	goto	i2l2088
  3346  00090E  0A01               	xorlw	1	; case 7
  3347  000910  B4D8               	btfsc	status,2,c
  3348  000912  EF48  F004         	goto	i2l2090
  3349  000916  0A0F               	xorlw	15	; case 8
  3350  000918  B4D8               	btfsc	status,2,c
  3351  00091A  EF50  F004         	goto	i2l2092
  3352  00091E  0A01               	xorlw	1	; case 9
  3353  000920  B4D8               	btfsc	status,2,c
  3354  000922  EF58  F004         	goto	i2l2094
  3355  000926  EF95  F004         	goto	i2l274
  3356  00092A                     i2l274:
  3357                           
  3358                           ;main.c: 582:         INTCON3bits.INT1IF = 0;
  3359  00092A  90F0               	bcf	240,0,c	;volatile
  3360  00092C                     i2l284:
  3361  00092C  0012               	return		;funcret
  3362  00092E                     __end_of_INT1interruption:
  3363                           	callstack 0
  3364                           
  3365 ;; *************** function _IncrementTimeHour *****************
  3366 ;; Defined at:
  3367 ;;		line 703 in file "main.c"
  3368 ;; Parameters:    Size  Location     Type
  3369 ;;  Time            2    4[COMRAM] PTR unsigned char 
  3370 ;;		 -> TargetTime(3), CurrentTime(3), 
  3371 ;; Auto vars:     Size  Location     Type
  3372 ;;		None
  3373 ;; Return value:  Size  Location     Type
  3374 ;;                  1    wreg      void 
  3375 ;; Registers used:
  3376 ;;		wreg, fsr2l, fsr2h, status,2, status,0, cstack
  3377 ;; Tracked objects:
  3378 ;;		On entry : 0/0
  3379 ;;		On exit  : 0/0
  3380 ;;		Unchanged: 0/0
  3381 ;; Data sizes:     COMRAM   BANK0   BANK1   BANK2   BANK3   BANK4   BANK5   BANK6   BANK7   BANK8   BANK9  BANK10  BANK1
      +1  BANK12  BANK13  BANK14  BANK15
  3382 ;;      Params:         2       0       0       0       0       0       0       0       0       0       0       0       
      +0       0       0       0       0
  3383 ;;      Locals:         0       0       0       0       0       0       0       0       0       0       0       0       
      +0       0       0       0       0
  3384 ;;      Temps:          1       0       0       0       0       0       0       0       0       0       0       0       
      +0       0       0       0       0
  3385 ;;      Totals:         3       0       0       0       0       0       0       0       0       0       0       0       
      +0       0       0       0       0
  3386 ;;Total ram usage:        3 bytes
  3387 ;; Hardware stack levels used: 1
  3388 ;; Hardware stack levels required when called: 1
  3389 ;; This function calls:
  3390 ;;		i2_AddBCD
  3391 ;; This function is called by:
  3392 ;;		_INT1interruption
  3393 ;; This function uses a non-reentrant model
  3394 ;;
  3395                           
  3396                           	psect	text22
  3397  000E16                     __ptext22:
  3398                           	callstack 0
  3399  000E16                     _IncrementTimeHour:
  3400                           	callstack 25
  3401  000E16                     
  3402                           ;main.c: 704:     if(*Time == 0x23) *Time = 0x00;
  3403  000E16  C021  FFD9         	movff	IncrementTimeHour@Time,fsr2l
  3404  000E1A  C022  FFDA         	movff	IncrementTimeHour@Time+1,fsr2h
  3405  000E1E  0E23               	movlw	35
  3406  000E20  18DE               	xorwf	postinc2,w,c
  3407  000E22  A4D8               	btfss	status,2,c
  3408  000E24  EF16  F007         	goto	i2u139_41
  3409  000E28  EF18  F007         	goto	i2u139_40
  3410  000E2C                     i2u139_41:
  3411  000E2C  EF20  F007         	goto	i2l1940
  3412  000E30                     i2u139_40:
  3413  000E30  C021  FFD9         	movff	IncrementTimeHour@Time,fsr2l
  3414  000E34  C022  FFDA         	movff	IncrementTimeHour@Time+1,fsr2h
  3415  000E38  0E00               	movlw	0
  3416  000E3A  6EDF               	movwf	indf2,c
  3417  000E3C  EF2E  F007         	goto	i2l334
  3418  000E40                     i2l1940:
  3419  000E40  0E01               	movlw	1
  3420  000E42  6E1D               	movwf	i2AddBCD@Number2^0,c
  3421  000E44  C021  FFD9         	movff	IncrementTimeHour@Time,fsr2l
  3422  000E48  C022  FFDA         	movff	IncrementTimeHour@Time+1,fsr2h
  3423  000E4C  50DF               	movf	indf2,w,c
  3424  000E4E  EC2F  F008         	call	i2_AddBCD
  3425  000E52  C021  FFD9         	movff	IncrementTimeHour@Time,fsr2l
  3426  000E56  C022  FFDA         	movff	IncrementTimeHour@Time+1,fsr2h
  3427  000E5A  6EDF               	movwf	indf2,c
  3428  000E5C                     i2l334:
  3429  000E5C  0012               	return		;funcret
  3430  000E5E                     __end_of_IncrementTimeHour:
  3431                           	callstack 0
  3432                           
  3433 ;; *************** function _IncrementTime *****************
  3434 ;; Defined at:
  3435 ;;		line 699 in file "main.c"
  3436 ;; Parameters:    Size  Location     Type
  3437 ;;  Time            2    4[COMRAM] PTR unsigned char 
  3438 ;;		 -> ValveTime(3), WateringTime(3), TargetTime(3), CurrentTime(3), 
  3439 ;; Auto vars:     Size  Location     Type
  3440 ;;		None
  3441 ;; Return value:  Size  Location     Type
  3442 ;;                  1    wreg      void 
  3443 ;; Registers used:
  3444 ;;		wreg, fsr2l, fsr2h, status,2, status,0, cstack
  3445 ;; Tracked objects:
  3446 ;;		On entry : 0/0
  3447 ;;		On exit  : 0/0
  3448 ;;		Unchanged: 0/0
  3449 ;; Data sizes:     COMRAM   BANK0   BANK1   BANK2   BANK3   BANK4   BANK5   BANK6   BANK7   BANK8   BANK9  BANK10  BANK1
      +1  BANK12  BANK13  BANK14  BANK15
  3450 ;;      Params:         2       0       0       0       0       0       0       0       0       0       0       0       
      +0       0       0       0       0
  3451 ;;      Locals:         0       0       0       0       0       0       0       0       0       0       0       0       
      +0       0       0       0       0
  3452 ;;      Temps:          1       0       0       0       0       0       0       0       0       0       0       0       
      +0       0       0       0       0
  3453 ;;      Totals:         3       0       0       0       0       0       0       0       0       0       0       0       
      +0       0       0       0       0
  3454 ;;Total ram usage:        3 bytes
  3455 ;; Hardware stack levels used: 1
  3456 ;; Hardware stack levels required when called: 1
  3457 ;; This function calls:
  3458 ;;		i2_AddBCD
  3459 ;; This function is called by:
  3460 ;;		_INT1interruption
  3461 ;; This function uses a non-reentrant model
  3462 ;;
  3463                           
  3464                           	psect	text23
  3465  000E5E                     __ptext23:
  3466                           	callstack 0
  3467  000E5E                     _IncrementTime:
  3468                           	callstack 25
  3469  000E5E                     
  3470                           ;main.c: 700:     if(*Time == 0x59) *Time = 0x00;
  3471  000E5E  C021  FFD9         	movff	IncrementTime@Time,fsr2l
  3472  000E62  C022  FFDA         	movff	IncrementTime@Time+1,fsr2h
  3473  000E66  0E59               	movlw	89
  3474  000E68  18DE               	xorwf	postinc2,w,c
  3475  000E6A  A4D8               	btfss	status,2,c
  3476  000E6C  EF3A  F007         	goto	i2u129_41
  3477  000E70  EF3C  F007         	goto	i2u129_40
  3478  000E74                     i2u129_41:
  3479  000E74  EF44  F007         	goto	i2l1924
  3480  000E78                     i2u129_40:
  3481  000E78  C021  FFD9         	movff	IncrementTime@Time,fsr2l
  3482  000E7C  C022  FFDA         	movff	IncrementTime@Time+1,fsr2h
  3483  000E80  0E00               	movlw	0
  3484  000E82  6EDF               	movwf	indf2,c
  3485  000E84  EF52  F007         	goto	i2l329
  3486  000E88                     i2l1924:
  3487  000E88  0E01               	movlw	1
  3488  000E8A  6E1D               	movwf	i2AddBCD@Number2^0,c
  3489  000E8C  C021  FFD9         	movff	IncrementTime@Time,fsr2l
  3490  000E90  C022  FFDA         	movff	IncrementTime@Time+1,fsr2h
  3491  000E94  50DF               	movf	indf2,w,c
  3492  000E96  EC2F  F008         	call	i2_AddBCD
  3493  000E9A  C021  FFD9         	movff	IncrementTime@Time,fsr2l
  3494  000E9E  C022  FFDA         	movff	IncrementTime@Time+1,fsr2h
  3495  000EA2  6EDF               	movwf	indf2,c
  3496  000EA4                     i2l329:
  3497  000EA4  0012               	return		;funcret
  3498  000EA6                     __end_of_IncrementTime:
  3499                           	callstack 0
  3500                           
  3501 ;; *************** function _ChangeTime *****************
  3502 ;; Defined at:
  3503 ;;		line 784 in file "main.c"
  3504 ;; Parameters:    Size  Location     Type
  3505 ;;  Address         1    wreg     unsigned char 
  3506 ;;  Time            1    0[COMRAM] unsigned char 
  3507 ;; Auto vars:     Size  Location     Type
  3508 ;;  Address         1    1[COMRAM] unsigned char 
  3509 ;; Return value:  Size  Location     Type
  3510 ;;                  1    wreg      void 
  3511 ;; Registers used:
  3512 ;;		wreg, status,2
  3513 ;; Tracked objects:
  3514 ;;		On entry : 0/0
  3515 ;;		On exit  : 0/0
  3516 ;;		Unchanged: 0/0
  3517 ;; Data sizes:     COMRAM   BANK0   BANK1   BANK2   BANK3   BANK4   BANK5   BANK6   BANK7   BANK8   BANK9  BANK10  BANK1
      +1  BANK12  BANK13  BANK14  BANK15
  3518 ;;      Params:         1       0       0       0       0       0       0       0       0       0       0       0       
      +0       0       0       0       0
  3519 ;;      Locals:         1       0       0       0       0       0       0       0       0       0       0       0       
      +0       0       0       0       0
  3520 ;;      Temps:          0       0       0       0       0       0       0       0       0       0       0       0       
      +0       0       0       0       0
  3521 ;;      Totals:         2       0       0       0       0       0       0       0       0       0       0       0       
      +0       0       0       0       0
  3522 ;;Total ram usage:        2 bytes
  3523 ;; Hardware stack levels used: 1
  3524 ;; This function calls:
  3525 ;;		Nothing
  3526 ;; This function is called by:
  3527 ;;		_INT1interruption
  3528 ;;		_INT2interruption
  3529 ;; This function uses a non-reentrant model
  3530 ;;
  3531                           
  3532                           	psect	text24
  3533  000B50                     __ptext24:
  3534                           	callstack 0
  3535  000B50                     _ChangeTime:
  3536                           	callstack 26
  3537                           
  3538                           ;incstack = 0
  3539                           ;ChangeTime@Address stored from wreg
  3540  000B50  6E1E               	movwf	ChangeTime@Address^0,c
  3541  000B52                     
  3542                           ;main.c: 786:     SSPCON2bits.SEN = 1;
  3543  000B52  80C5               	bsf	197,0,c	;volatile
  3544  000B54                     i2l371:
  3545  000B54  B0C5               	btfsc	4037,0,c	;volatile
  3546  000B56  EFAF  F005         	goto	i2u130_41
  3547  000B5A  EFB1  F005         	goto	i2u130_40
  3548  000B5E                     i2u130_41:
  3549  000B5E  EFAA  F005         	goto	i2l371
  3550  000B62                     i2u130_40:
  3551  000B62                     
  3552                           ;main.c: 788:     PIR1bits.SSPIF = 0;
  3553  000B62  969E               	bcf	158,3,c	;volatile
  3554  000B64                     
  3555                           ;main.c: 790:     SSPBUF = 0xD0;
  3556  000B64  0ED0               	movlw	208
  3557  000B66  6EC9               	movwf	201,c	;volatile
  3558  000B68                     i2l374:
  3559  000B68  A69E               	btfss	3998,3,c	;volatile
  3560  000B6A  EFB9  F005         	goto	i2u131_41
  3561  000B6E  EFBB  F005         	goto	i2u131_40
  3562  000B72                     i2u131_41:
  3563  000B72  EFB4  F005         	goto	i2l374
  3564  000B76                     i2u131_40:
  3565  000B76                     
  3566                           ;main.c: 792:     PIR1bits.SSPIF = 0;
  3567  000B76  969E               	bcf	158,3,c	;volatile
  3568                           
  3569                           ;main.c: 793:     if (SSPCON2bits.ACKSTAT){
  3570  000B78  ACC5               	btfss	197,6,c	;volatile
  3571  000B7A  EFC1  F005         	goto	i2u132_41
  3572  000B7E  EFC3  F005         	goto	i2u132_40
  3573  000B82                     i2u132_41:
  3574  000B82  EFCD  F005         	goto	i2l1932
  3575  000B86                     i2u132_40:
  3576  000B86                     
  3577                           ;main.c: 794:         SSPCON2bits.PEN = 1;
  3578  000B86  84C5               	bsf	197,2,c	;volatile
  3579  000B88                     i2l378:
  3580  000B88  B4C5               	btfsc	4037,2,c	;volatile
  3581  000B8A  EFC9  F005         	goto	i2u133_41
  3582  000B8E  EFCB  F005         	goto	i2u133_40
  3583  000B92                     i2u133_41:
  3584  000B92  EFC4  F005         	goto	i2l378
  3585  000B96                     i2u133_40:
  3586  000B96  EFFA  F005         	goto	i2l381
  3587  000B9A                     i2l1932:
  3588                           
  3589                           ;main.c: 799:     SSPBUF = Address;
  3590  000B9A  C01E  FFC9         	movff	ChangeTime@Address,4041	;volatile
  3591  000B9E                     i2l382:
  3592  000B9E  A69E               	btfss	3998,3,c	;volatile
  3593  000BA0  EFD4  F005         	goto	i2u134_41
  3594  000BA4  EFD6  F005         	goto	i2u134_40
  3595  000BA8                     i2u134_41:
  3596  000BA8  EFCF  F005         	goto	i2l382
  3597  000BAC                     i2u134_40:
  3598  000BAC                     
  3599                           ;main.c: 801:     PIR1bits.SSPIF = 0;
  3600  000BAC  969E               	bcf	158,3,c	;volatile
  3601                           
  3602                           ;main.c: 802:     if (SSPCON2bits.ACKSTAT){
  3603  000BAE  ACC5               	btfss	197,6,c	;volatile
  3604  000BB0  EFDC  F005         	goto	i2u135_41
  3605  000BB4  EFDE  F005         	goto	i2u135_40
  3606  000BB8                     i2u135_41:
  3607  000BB8  EFE8  F005         	goto	i2l385
  3608  000BBC                     i2u135_40:
  3609  000BBC                     
  3610                           ;main.c: 803:         SSPCON2bits.PEN = 1;
  3611  000BBC  84C5               	bsf	197,2,c	;volatile
  3612  000BBE                     i2l386:
  3613  000BBE  B4C5               	btfsc	4037,2,c	;volatile
  3614  000BC0  EFE4  F005         	goto	i2u136_41
  3615  000BC4  EFE6  F005         	goto	i2u136_40
  3616  000BC8                     i2u136_41:
  3617  000BC8  EFDF  F005         	goto	i2l386
  3618  000BCC                     i2u136_40:
  3619  000BCC  EFFA  F005         	goto	i2l381
  3620  000BD0                     i2l385:
  3621                           
  3622                           ;main.c: 808:     SSPBUF = Time;
  3623  000BD0  C01D  FFC9         	movff	ChangeTime@Time,4041	;volatile
  3624  000BD4                     i2l389:
  3625  000BD4  A69E               	btfss	3998,3,c	;volatile
  3626  000BD6  EFEF  F005         	goto	i2u137_41
  3627  000BDA  EFF1  F005         	goto	i2u137_40
  3628  000BDE                     i2u137_41:
  3629  000BDE  EFEA  F005         	goto	i2l389
  3630  000BE2                     i2u137_40:
  3631  000BE2                     
  3632                           ;main.c: 810:     PIR1bits.SSPIF = 0;
  3633  000BE2  969E               	bcf	158,3,c	;volatile
  3634                           
  3635                           ;main.c: 813:     SSPCON2bits.PEN = 1;
  3636  000BE4  84C5               	bsf	197,2,c	;volatile
  3637  000BE6                     i2l392:
  3638  000BE6  B4C5               	btfsc	4037,2,c	;volatile
  3639  000BE8  EFF8  F005         	goto	i2u138_41
  3640  000BEC  EFFA  F005         	goto	i2u138_40
  3641  000BF0                     i2u138_41:
  3642  000BF0  EFF3  F005         	goto	i2l392
  3643  000BF4                     i2u138_40:
  3644  000BF4                     i2l381:
  3645  000BF4  0012               	return		;funcret
  3646  000BF6                     __end_of_ChangeTime:
  3647                           	callstack 0
  3648                           
  3649 ;; *************** function _INT0interruption *****************
  3650 ;; Defined at:
  3651 ;;		line 461 in file "main.c"
  3652 ;; Parameters:    Size  Location     Type
  3653 ;;		None
  3654 ;; Auto vars:     Size  Location     Type
  3655 ;;		None
  3656 ;; Return value:  Size  Location     Type
  3657 ;;                  1    wreg      void 
  3658 ;; Registers used:
  3659 ;;		wreg, status,2, status,0, cstack
  3660 ;; Tracked objects:
  3661 ;;		On entry : 0/0
  3662 ;;		On exit  : 0/0
  3663 ;;		Unchanged: 0/0
  3664 ;; Data sizes:     COMRAM   BANK0   BANK1   BANK2   BANK3   BANK4   BANK5   BANK6   BANK7   BANK8   BANK9  BANK10  BANK1
      +1  BANK12  BANK13  BANK14  BANK15
  3665 ;;      Params:         0       0       0       0       0       0       0       0       0       0       0       0       
      +0       0       0       0       0
  3666 ;;      Locals:         0       0       0       0       0       0       0       0       0       0       0       0       
      +0       0       0       0       0
  3667 ;;      Temps:          2       0       0       0       0       0       0       0       0       0       0       0       
      +0       0       0       0       0
  3668 ;;      Totals:         2       0       0       0       0       0       0       0       0       0       0       0       
      +0       0       0       0       0
  3669 ;;Total ram usage:        2 bytes
  3670 ;; Hardware stack levels used: 1
  3671 ;; Hardware stack levels required when called: 2
  3672 ;; This function calls:
  3673 ;;		_Buzz
  3674 ;;		_TMR0enable
  3675 ;;		_TMR1enable
  3676 ;;		i2_WakeUp
  3677 ;; This function is called by:
  3678 ;;		_my_isr_routine
  3679 ;; This function uses a non-reentrant model
  3680 ;;
  3681                           
  3682                           	psect	text25
  3683  000A46                     __ptext25:
  3684                           	callstack 0
  3685  000A46                     _INT0interruption:
  3686                           	callstack 25
  3687  000A46                     
  3688                           ;main.c: 463:     if(INTCONbits.INT0IE == 1 && INTCONbits.INT0IF == 1){
  3689  000A46  A8F2               	btfss	242,4,c	;volatile
  3690  000A48  EF28  F005         	goto	i2u147_41
  3691  000A4C  EF2A  F005         	goto	i2u147_40
  3692  000A50                     i2u147_41:
  3693  000A50  EFA7  F005         	goto	i2l268
  3694  000A54                     i2u147_40:
  3695  000A54  A2F2               	btfss	242,1,c	;volatile
  3696  000A56  EF2F  F005         	goto	i2u148_41
  3697  000A5A  EF31  F005         	goto	i2u148_40
  3698  000A5E                     i2u148_41:
  3699  000A5E  EFA7  F005         	goto	i2l268
  3700  000A62                     i2u148_40:
  3701  000A62                     
  3702                           ;main.c: 465:         Buzz();
  3703  000A62  EC9A  F008         	call	_Buzz	;wreg free
  3704                           
  3705                           ;main.c: 467:         switch(State){
  3706  000A66  EF71  F005         	goto	i2l2056
  3707  000A6A                     i2l2010:
  3708                           
  3709                           ;main.c: 471:                 State = 1;
  3710  000A6A  0E01               	movlw	1
  3711  000A6C  6E10               	movwf	_State^0,c
  3712  000A6E                     
  3713                           ;main.c: 472:                 TMR1enable();
  3714  000A6E  ECA5  F008         	call	_TMR1enable	;wreg free
  3715                           
  3716                           ;main.c: 473:                 break;
  3717  000A72  EFA6  F005         	goto	i2l258
  3718  000A76                     i2l2014:
  3719                           
  3720                           ;main.c: 476:                 State = 3;
  3721  000A76  0E03               	movlw	3
  3722  000A78  6E10               	movwf	_State^0,c
  3723  000A7A                     
  3724                           ;main.c: 477:                 WakeUp();
  3725  000A7A  EC48  F006         	call	i2_WakeUp	;wreg free
  3726  000A7E                     
  3727                           ;main.c: 478:                 TMR0enable();
  3728  000A7E  ECA8  F008         	call	_TMR0enable	;wreg free
  3729                           
  3730                           ;main.c: 479:                 break;
  3731  000A82  EFA6  F005         	goto	i2l258
  3732  000A86                     i2l2020:
  3733                           
  3734                           ;main.c: 483:                 WakeUp();
  3735  000A86  EC48  F006         	call	i2_WakeUp	;wreg free
  3736  000A8A                     
  3737                           ;main.c: 484:                 State = 3;
  3738  000A8A  0E03               	movlw	3
  3739  000A8C  6E10               	movwf	_State^0,c
  3740                           
  3741                           ;main.c: 486:                 break;
  3742  000A8E  EFA6  F005         	goto	i2l258
  3743  000A92                     i2l2024:
  3744                           
  3745                           ;main.c: 489:                 TMR1enable();
  3746  000A92  ECA5  F008         	call	_TMR1enable	;wreg free
  3747  000A96                     
  3748                           ;main.c: 490:                 State = 4;
  3749  000A96  0E04               	movlw	4
  3750  000A98  6E10               	movwf	_State^0,c
  3751                           
  3752                           ;main.c: 491:                 break;
  3753  000A9A  EFA6  F005         	goto	i2l258
  3754  000A9E                     i2l2028:
  3755                           
  3756                           ;main.c: 494:                 TMR1enable();
  3757  000A9E  ECA5  F008         	call	_TMR1enable	;wreg free
  3758  000AA2                     
  3759                           ;main.c: 495:                 State = 5;
  3760  000AA2  0E05               	movlw	5
  3761  000AA4  6E10               	movwf	_State^0,c
  3762                           
  3763                           ;main.c: 496:                 break;
  3764  000AA6  EFA6  F005         	goto	i2l258
  3765  000AAA                     i2l2032:
  3766                           
  3767                           ;main.c: 499:                 TMR1enable();
  3768  000AAA  ECA5  F008         	call	_TMR1enable	;wreg free
  3769  000AAE                     
  3770                           ;main.c: 500:                 State = 6;
  3771  000AAE  0E06               	movlw	6
  3772  000AB0  6E10               	movwf	_State^0,c
  3773                           
  3774                           ;main.c: 501:                 break;
  3775  000AB2  EFA6  F005         	goto	i2l258
  3776  000AB6                     i2l2036:
  3777                           
  3778                           ;main.c: 504:                 TMR1enable();
  3779  000AB6  ECA5  F008         	call	_TMR1enable	;wreg free
  3780  000ABA                     
  3781                           ;main.c: 505:                 State = 7;
  3782  000ABA  0E07               	movlw	7
  3783  000ABC  6E10               	movwf	_State^0,c
  3784                           
  3785                           ;main.c: 506:                 break;
  3786  000ABE  EFA6  F005         	goto	i2l258
  3787  000AC2                     i2l2040:
  3788                           
  3789                           ;main.c: 509:                 TMR1enable();
  3790  000AC2  ECA5  F008         	call	_TMR1enable	;wreg free
  3791  000AC6                     
  3792                           ;main.c: 510:                 State = 8;
  3793  000AC6  0E08               	movlw	8
  3794  000AC8  6E10               	movwf	_State^0,c
  3795                           
  3796                           ;main.c: 511:                 break;
  3797  000ACA  EFA6  F005         	goto	i2l258
  3798  000ACE                     i2l2044:
  3799                           
  3800                           ;main.c: 514:                 TMR1enable();
  3801  000ACE  ECA5  F008         	call	_TMR1enable	;wreg free
  3802  000AD2                     
  3803                           ;main.c: 515:                 State = 9;
  3804  000AD2  0E09               	movlw	9
  3805  000AD4  6E10               	movwf	_State^0,c
  3806                           
  3807                           ;main.c: 516:                 break;
  3808  000AD6  EFA6  F005         	goto	i2l258
  3809  000ADA                     i2l2048:
  3810                           
  3811                           ;main.c: 519:                 TMR0enable();
  3812  000ADA  ECA8  F008         	call	_TMR0enable	;wreg free
  3813  000ADE  EF43  F005         	goto	i2l2020
  3814  000AE2                     i2l2056:
  3815  000AE2  5010               	movf	_State^0,w,c
  3816  000AE4  6E22               	movwf	??_INT0interruption^0,c
  3817  000AE6  6A23               	clrf	(??_INT0interruption+1)^0,c
  3818                           
  3819                           ; Switch on 2 bytes has been partitioned into a top level switch of size 1, and 1 sub-sw
      +                          itches
  3820                           ; Switch size 1, requested type "simple"
  3821                           ; Number of cases is 1, Range of values is 0 to 0
  3822                           ; switch strategies available:
  3823                           ; Name         Instructions Cycles
  3824                           ; simple_byte            4     3 (average)
  3825                           ;	Chosen strategy is simple_byte
  3826  000AE8  5023               	movf	(??_INT0interruption+1)^0,w,c
  3827  000AEA  0A00               	xorlw	0	; case 0
  3828  000AEC  B4D8               	btfsc	status,2,c
  3829  000AEE  EF7B  F005         	goto	i2l2354
  3830  000AF2  EFA6  F005         	goto	i2l258
  3831  000AF6                     i2l2354:
  3832                           
  3833                           ; Switch size 1, requested type "simple"
  3834                           ; Number of cases is 10, Range of values is 0 to 9
  3835                           ; switch strategies available:
  3836                           ; Name         Instructions Cycles
  3837                           ; simple_byte           31    16 (average)
  3838                           ;	Chosen strategy is simple_byte
  3839  000AF6  5022               	movf	??_INT0interruption^0,w,c
  3840  000AF8  0A00               	xorlw	0	; case 0
  3841  000AFA  B4D8               	btfsc	status,2,c
  3842  000AFC  EF35  F005         	goto	i2l2010
  3843  000B00  0A01               	xorlw	1	; case 1
  3844  000B02  B4D8               	btfsc	status,2,c
  3845  000B04  EF3B  F005         	goto	i2l2014
  3846  000B08  0A03               	xorlw	3	; case 2
  3847  000B0A  B4D8               	btfsc	status,2,c
  3848  000B0C  EF43  F005         	goto	i2l2020
  3849  000B10  0A01               	xorlw	1	; case 3
  3850  000B12  B4D8               	btfsc	status,2,c
  3851  000B14  EF49  F005         	goto	i2l2024
  3852  000B18  0A07               	xorlw	7	; case 4
  3853  000B1A  B4D8               	btfsc	status,2,c
  3854  000B1C  EF4F  F005         	goto	i2l2028
  3855  000B20  0A01               	xorlw	1	; case 5
  3856  000B22  B4D8               	btfsc	status,2,c
  3857  000B24  EF55  F005         	goto	i2l2032
  3858  000B28  0A03               	xorlw	3	; case 6
  3859  000B2A  B4D8               	btfsc	status,2,c
  3860  000B2C  EF5B  F005         	goto	i2l2036
  3861  000B30  0A01               	xorlw	1	; case 7
  3862  000B32  B4D8               	btfsc	status,2,c
  3863  000B34  EF61  F005         	goto	i2l2040
  3864  000B38  0A0F               	xorlw	15	; case 8
  3865  000B3A  B4D8               	btfsc	status,2,c
  3866  000B3C  EF67  F005         	goto	i2l2044
  3867  000B40  0A01               	xorlw	1	; case 9
  3868  000B42  B4D8               	btfsc	status,2,c
  3869  000B44  EF6D  F005         	goto	i2l2048
  3870  000B48  EFA6  F005         	goto	i2l258
  3871  000B4C                     i2l258:
  3872                           
  3873                           ;main.c: 525:         INTCONbits.INT0F = 0;
  3874  000B4C  92F2               	bcf	242,1,c	;volatile
  3875  000B4E                     i2l268:
  3876  000B4E  0012               	return		;funcret
  3877  000B50                     __end_of_INT0interruption:
  3878                           	callstack 0
  3879                           
  3880 ;; *************** function i2_WakeUp *****************
  3881 ;; Defined at:
  3882 ;;		line 652 in file "main.c"
  3883 ;; Parameters:    Size  Location     Type
  3884 ;;		None
  3885 ;; Auto vars:     Size  Location     Type
  3886 ;;		None
  3887 ;; Return value:  Size  Location     Type
  3888 ;;                  1    wreg      void 
  3889 ;; Registers used:
  3890 ;;		wreg, status,2, status,0, cstack
  3891 ;; Tracked objects:
  3892 ;;		On entry : 0/0
  3893 ;;		On exit  : 0/0
  3894 ;;		Unchanged: 0/0
  3895 ;; Data sizes:     COMRAM   BANK0   BANK1   BANK2   BANK3   BANK4   BANK5   BANK6   BANK7   BANK8   BANK9  BANK10  BANK1
      +1  BANK12  BANK13  BANK14  BANK15
  3896 ;;      Params:         0       0       0       0       0       0       0       0       0       0       0       0       
      +0       0       0       0       0
  3897 ;;      Locals:         0       0       0       0       0       0       0       0       0       0       0       0       
      +0       0       0       0       0
  3898 ;;      Temps:          1       0       0       0       0       0       0       0       0       0       0       0       
      +0       0       0       0       0
  3899 ;;      Totals:         1       0       0       0       0       0       0       0       0       0       0       0       
      +0       0       0       0       0
  3900 ;;Total ram usage:        1 bytes
  3901 ;; Hardware stack levels used: 1
  3902 ;; Hardware stack levels required when called: 1
  3903 ;; This function calls:
  3904 ;;		i2_AddBCD
  3905 ;;		i2_SubBCD
  3906 ;;		i2_UpdateCurrentTime
  3907 ;; This function is called by:
  3908 ;;		_INT0interruption
  3909 ;;		_INT1interruption
  3910 ;;		_INT2interruption
  3911 ;; This function uses a non-reentrant model
  3912 ;;
  3913                           
  3914                           	psect	text26
  3915  000C90                     __ptext26:
  3916                           	callstack 0
  3917  000C90                     i2_WakeUp:
  3918                           	callstack 25
  3919  000C90                     
  3920                           ;main.c: 653:     UpdateCurrentTime();
  3921  000C90  ECAC  F002         	call	i2_UpdateCurrentTime	;wreg free
  3922  000C94                     
  3923                           ;main.c: 655:     if (AddBCD(CurrentTime[1], 0x02) > 0x59) {
  3924  000C94  0E02               	movlw	2
  3925  000C96  6E1D               	movwf	i2AddBCD@Number2^0,c
  3926  000C98  501B               	movf	(_CurrentTime+1)^0,w,c
  3927  000C9A  EC2F  F008         	call	i2_AddBCD
  3928  000C9E  6E21               	movwf	??i2_WakeUp^0,c
  3929  000CA0  0E59               	movlw	89
  3930  000CA2  6421               	cpfsgt	??i2_WakeUp^0,c
  3931  000CA4  EF56  F006         	goto	i2u143_41
  3932  000CA8  EF58  F006         	goto	i2u143_40
  3933  000CAC                     i2u143_41:
  3934  000CAC  EF8A  F006         	goto	i2l306
  3935  000CB0                     i2u143_40:
  3936  000CB0                     
  3937                           ;main.c: 656:         if(AddBCD(CurrentTime[1], 0x01) > 0x23){
  3938  000CB0  0E01               	movlw	1
  3939  000CB2  6E1D               	movwf	i2AddBCD@Number2^0,c
  3940  000CB4  501B               	movf	(_CurrentTime+1)^0,w,c
  3941  000CB6  EC2F  F008         	call	i2_AddBCD
  3942  000CBA  6E21               	movwf	??i2_WakeUp^0,c
  3943  000CBC  0E23               	movlw	35
  3944  000CBE  6421               	cpfsgt	??i2_WakeUp^0,c
  3945  000CC0  EF64  F006         	goto	i2u144_41
  3946  000CC4  EF66  F006         	goto	i2u144_40
  3947  000CC8                     i2u144_41:
  3948  000CC8  EF76  F006         	goto	i2l1978
  3949  000CCC                     i2u144_40:
  3950  000CCC                     
  3951                           ;main.c: 657:             WakeUpTime[2] = 0x00;
  3952  000CCC  0E00               	movlw	0
  3953  000CCE  6E03               	movwf	(_WakeUpTime+2)^0,c
  3954  000CD0                     
  3955                           ;main.c: 658:             WakeUpTime[1] = AddBCD(CurrentTime[1], 0x02);
  3956  000CD0  0E02               	movlw	2
  3957  000CD2  6E1D               	movwf	i2AddBCD@Number2^0,c
  3958  000CD4  501B               	movf	(_CurrentTime+1)^0,w,c
  3959  000CD6  EC2F  F008         	call	i2_AddBCD
  3960  000CDA  6E02               	movwf	(_WakeUpTime+1)^0,c
  3961  000CDC                     
  3962                           ;main.c: 659:             WakeUpTime[1] = SubBCD(CurrentTime[1], 0x60);
  3963  000CDC  0E60               	movlw	96
  3964  000CDE  6E1D               	movwf	i2SubBCD@Number2^0,c
  3965  000CE0  501B               	movf	(_CurrentTime+1)^0,w,c
  3966  000CE2  EC19  F008         	call	i2_SubBCD
  3967  000CE6  6E02               	movwf	(_WakeUpTime+1)^0,c
  3968                           
  3969                           ;main.c: 660:         }else{
  3970  000CE8  EF92  F006         	goto	i2l1982
  3971  000CEC                     i2l1978:
  3972                           
  3973                           ;main.c: 661:             WakeUpTime[2] = AddBCD(CurrentTime[2], 0x01);
  3974  000CEC  0E01               	movlw	1
  3975  000CEE  6E1D               	movwf	i2AddBCD@Number2^0,c
  3976  000CF0  501C               	movf	(_CurrentTime+2)^0,w,c
  3977  000CF2  EC2F  F008         	call	i2_AddBCD
  3978  000CF6  6E03               	movwf	(_WakeUpTime+2)^0,c
  3979                           
  3980                           ;main.c: 662:             WakeUpTime[1] = AddBCD(CurrentTime[1], 0x02);
  3981  000CF8  0E02               	movlw	2
  3982  000CFA  6E1D               	movwf	i2AddBCD@Number2^0,c
  3983  000CFC  501B               	movf	(_CurrentTime+1)^0,w,c
  3984  000CFE  EC2F  F008         	call	i2_AddBCD
  3985  000D02  6E02               	movwf	(_WakeUpTime+1)^0,c
  3986                           
  3987                           ;main.c: 663:             WakeUpTime[1] = SubBCD(CurrentTime[1], 0x60);
  3988  000D04  0E60               	movlw	96
  3989  000D06  6E1D               	movwf	i2SubBCD@Number2^0,c
  3990  000D08  501B               	movf	(_CurrentTime+1)^0,w,c
  3991  000D0A  EC19  F008         	call	i2_SubBCD
  3992  000D0E  6E02               	movwf	(_WakeUpTime+1)^0,c
  3993  000D10  EF92  F006         	goto	i2l1982
  3994  000D14                     i2l306:
  3995                           
  3996                           ;main.c: 666:         WakeUpTime[2] = CurrentTime[2];
  3997  000D14  C01C  F003         	movff	_CurrentTime+2,_WakeUpTime+2
  3998  000D18                     
  3999                           ;main.c: 667:         WakeUpTime[1] = AddBCD(CurrentTime[1], 0x02);
  4000  000D18  0E02               	movlw	2
  4001  000D1A  6E1D               	movwf	i2AddBCD@Number2^0,c
  4002  000D1C  501B               	movf	(_CurrentTime+1)^0,w,c
  4003  000D1E  EC2F  F008         	call	i2_AddBCD
  4004  000D22  6E02               	movwf	(_WakeUpTime+1)^0,c
  4005  000D24                     i2l1982:
  4006                           
  4007                           ;main.c: 669:     UpdateTimeFlag = 1;
  4008  000D24  0E01               	movlw	1
  4009  000D26  6E0F               	movwf	_UpdateTimeFlag^0,c
  4010  000D28  0012               	return		;funcret
  4011  000D2A                     __end_ofi2_WakeUp:
  4012                           	callstack 0
  4013                           
  4014 ;; *************** function i2_UpdateCurrentTime *****************
  4015 ;; Defined at:
  4016 ;;		line 868 in file "main.c"
  4017 ;; Parameters:    Size  Location     Type
  4018 ;;		None
  4019 ;; Auto vars:     Size  Location     Type
  4020 ;;		None
  4021 ;; Return value:  Size  Location     Type
  4022 ;;                  1    wreg      void 
  4023 ;; Registers used:
  4024 ;;		wreg, status,2
  4025 ;; Tracked objects:
  4026 ;;		On entry : 0/0
  4027 ;;		On exit  : 0/0
  4028 ;;		Unchanged: 0/0
  4029 ;; Data sizes:     COMRAM   BANK0   BANK1   BANK2   BANK3   BANK4   BANK5   BANK6   BANK7   BANK8   BANK9  BANK10  BANK1
      +1  BANK12  BANK13  BANK14  BANK15
  4030 ;;      Params:         0       0       0       0       0       0       0       0       0       0       0       0       
      +0       0       0       0       0
  4031 ;;      Locals:         0       0       0       0       0       0       0       0       0       0       0       0       
      +0       0       0       0       0
  4032 ;;      Temps:          0       0       0       0       0       0       0       0       0       0       0       0       
      +0       0       0       0       0
  4033 ;;      Totals:         0       0       0       0       0       0       0       0       0       0       0       0       
      +0       0       0       0       0
  4034 ;;Total ram usage:        0 bytes
  4035 ;; Hardware stack levels used: 1
  4036 ;; This function calls:
  4037 ;;		Nothing
  4038 ;; This function is called by:
  4039 ;;		_TMR0interruption
  4040 ;;		i2_WakeUp
  4041 ;; This function uses a non-reentrant model
  4042 ;;
  4043                           
  4044                           	psect	text27
  4045  000558                     __ptext27:
  4046                           	callstack 0
  4047  000558                     i2_UpdateCurrentTime:
  4048                           	callstack 26
  4049  000558                     
  4050                           ;main.c: 869:     SSPCON2bits.SEN = 1;
  4051  000558  80C5               	bsf	197,0,c	;volatile
  4052  00055A                     i2l436:
  4053  00055A  B0C5               	btfsc	4037,0,c	;volatile
  4054  00055C  EFB2  F002         	goto	i2u3_41
  4055  000560  EFB4  F002         	goto	i2u3_40
  4056  000564                     i2u3_41:
  4057  000564  EFAD  F002         	goto	i2l436
  4058  000568                     i2u3_40:
  4059  000568                     
  4060                           ;main.c: 871:     PIR1bits.SSPIF = 0;
  4061  000568  969E               	bcf	158,3,c	;volatile
  4062  00056A                     
  4063                           ;main.c: 873:     SSPBUF = 0xD0;
  4064  00056A  0ED0               	movlw	208
  4065  00056C  6EC9               	movwf	201,c	;volatile
  4066  00056E                     i2l439:
  4067  00056E  A69E               	btfss	3998,3,c	;volatile
  4068  000570  EFBC  F002         	goto	i2u4_41
  4069  000574  EFBE  F002         	goto	i2u4_40
  4070  000578                     i2u4_41:
  4071  000578  EFB7  F002         	goto	i2l439
  4072  00057C                     i2u4_40:
  4073  00057C                     
  4074                           ;main.c: 875:     PIR1bits.SSPIF = 0;
  4075  00057C  969E               	bcf	158,3,c	;volatile
  4076                           
  4077                           ;main.c: 876:     if (SSPCON2bits.ACKSTAT){
  4078  00057E  ACC5               	btfss	197,6,c	;volatile
  4079  000580  EFC4  F002         	goto	i2u5_41
  4080  000584  EFC6  F002         	goto	i2u5_40
  4081  000588                     i2u5_41:
  4082  000588  EFD0  F002         	goto	i2l1190
  4083  00058C                     i2u5_40:
  4084  00058C                     
  4085                           ;main.c: 877:         SSPCON2bits.PEN = 1;
  4086  00058C  84C5               	bsf	197,2,c	;volatile
  4087  00058E                     i2l443:
  4088  00058E  B4C5               	btfsc	4037,2,c	;volatile
  4089  000590  EFCC  F002         	goto	i2u6_41
  4090  000594  EFCE  F002         	goto	i2u6_40
  4091  000598                     i2u6_41:
  4092  000598  EFC7  F002         	goto	i2l443
  4093  00059C                     i2u6_40:
  4094  00059C  EF50  F003         	goto	i2l446
  4095  0005A0                     i2l1190:
  4096                           
  4097                           ;main.c: 882:     SSPBUF = 0;
  4098  0005A0  0E00               	movlw	0
  4099  0005A2  6EC9               	movwf	201,c	;volatile
  4100  0005A4                     i2l447:
  4101  0005A4  A69E               	btfss	3998,3,c	;volatile
  4102  0005A6  EFD7  F002         	goto	i2u7_41
  4103  0005AA  EFD9  F002         	goto	i2u7_40
  4104  0005AE                     i2u7_41:
  4105  0005AE  EFD2  F002         	goto	i2l447
  4106  0005B2                     i2u7_40:
  4107  0005B2                     
  4108                           ;main.c: 884:     PIR1bits.SSPIF = 0;
  4109  0005B2  969E               	bcf	158,3,c	;volatile
  4110                           
  4111                           ;main.c: 885:     if (SSPCON2bits.ACKSTAT){
  4112  0005B4  ACC5               	btfss	197,6,c	;volatile
  4113  0005B6  EFDF  F002         	goto	i2u8_41
  4114  0005BA  EFE1  F002         	goto	i2u8_40
  4115  0005BE                     i2u8_41:
  4116  0005BE  EFEB  F002         	goto	i2l450
  4117  0005C2                     i2u8_40:
  4118  0005C2                     
  4119                           ;main.c: 886:         SSPCON2bits.PEN = 1;
  4120  0005C2  84C5               	bsf	197,2,c	;volatile
  4121  0005C4                     i2l451:
  4122  0005C4  B4C5               	btfsc	4037,2,c	;volatile
  4123  0005C6  EFE7  F002         	goto	i2u9_41
  4124  0005CA  EFE9  F002         	goto	i2u9_40
  4125  0005CE                     i2u9_41:
  4126  0005CE  EFE2  F002         	goto	i2l451
  4127  0005D2                     i2u9_40:
  4128  0005D2  EF50  F003         	goto	i2l446
  4129  0005D6                     i2l450:
  4130                           
  4131                           ;main.c: 891:     SSPCON2bits.RSEN = 1;
  4132  0005D6  82C5               	bsf	197,1,c	;volatile
  4133  0005D8                     i2l454:
  4134  0005D8  B2C5               	btfsc	197,1,c	;volatile
  4135  0005DA  EFF1  F002         	goto	i2u10_41
  4136  0005DE  EFF3  F002         	goto	i2u10_40
  4137  0005E2                     i2u10_41:
  4138  0005E2  EFEC  F002         	goto	i2l454
  4139  0005E6                     i2u10_40:
  4140  0005E6                     
  4141                           ;main.c: 893:     PIR1bits.SSPIF = 0;
  4142  0005E6  969E               	bcf	158,3,c	;volatile
  4143  0005E8                     
  4144                           ;main.c: 895:     SSPBUF = 0xD1;
  4145  0005E8  0ED1               	movlw	209
  4146  0005EA  6EC9               	movwf	201,c	;volatile
  4147  0005EC                     i2l457:
  4148  0005EC  A69E               	btfss	3998,3,c	;volatile
  4149  0005EE  EFFB  F002         	goto	i2u11_41
  4150  0005F2  EFFD  F002         	goto	i2u11_40
  4151  0005F6                     i2u11_41:
  4152  0005F6  EFF6  F002         	goto	i2l457
  4153  0005FA                     i2u11_40:
  4154  0005FA                     
  4155                           ;main.c: 897:     PIR1bits.SSPIF = 0;
  4156  0005FA  969E               	bcf	158,3,c	;volatile
  4157                           
  4158                           ;main.c: 898:     if (SSPCON2bits.ACKSTAT){
  4159  0005FC  ACC5               	btfss	197,6,c	;volatile
  4160  0005FE  EF03  F003         	goto	i2u12_41
  4161  000602  EF05  F003         	goto	i2u12_40
  4162  000606                     i2u12_41:
  4163  000606  EF0F  F003         	goto	i2l460
  4164  00060A                     i2u12_40:
  4165  00060A                     
  4166                           ;main.c: 899:         SSPCON2bits.PEN = 1;
  4167  00060A  84C5               	bsf	197,2,c	;volatile
  4168  00060C                     i2l461:
  4169  00060C  B4C5               	btfsc	4037,2,c	;volatile
  4170  00060E  EF0B  F003         	goto	i2u13_41
  4171  000612  EF0D  F003         	goto	i2u13_40
  4172  000616                     i2u13_41:
  4173  000616  EF06  F003         	goto	i2l461
  4174  00061A                     i2u13_40:
  4175  00061A  EF50  F003         	goto	i2l446
  4176  00061E                     i2l460:
  4177                           
  4178                           ;main.c: 904:     SSPCON2bits.RCEN = 1;
  4179  00061E  86C5               	bsf	197,3,c	;volatile
  4180  000620                     i2l464:
  4181  000620  A0C7               	btfss	199,0,c	;volatile
  4182  000622  EF15  F003         	goto	i2u14_41
  4183  000626  EF17  F003         	goto	i2u14_40
  4184  00062A                     i2u14_41:
  4185  00062A  EF10  F003         	goto	i2l464
  4186  00062E                     i2u14_40:
  4187  00062E                     
  4188                           ;main.c: 906:     CurrentTime[0] = SSPBUF;
  4189  00062E  CFC9 F01A          	movff	4041,_CurrentTime	;volatile
  4190                           
  4191                           ;main.c: 908:     SSPCON2bits.ACKDT = 0;
  4192  000632  9AC5               	bcf	197,5,c	;volatile
  4193                           
  4194                           ;main.c: 909:     SSPCON2bits.ACKEN = 1;
  4195  000634  88C5               	bsf	197,4,c	;volatile
  4196  000636                     i2l467:
  4197  000636  B8C5               	btfsc	4037,4,c	;volatile
  4198  000638  EF20  F003         	goto	i2u15_41
  4199  00063C  EF22  F003         	goto	i2u15_40
  4200  000640                     i2u15_41:
  4201  000640  EF1B  F003         	goto	i2l467
  4202  000644                     i2u15_40:
  4203  000644                     
  4204                           ;main.c: 912:     SSPCON2bits.RCEN = 1;
  4205  000644  86C5               	bsf	197,3,c	;volatile
  4206  000646                     i2l470:
  4207  000646  A0C7               	btfss	199,0,c	;volatile
  4208  000648  EF28  F003         	goto	i2u16_41
  4209  00064C  EF2A  F003         	goto	i2u16_40
  4210  000650                     i2u16_41:
  4211  000650  EF23  F003         	goto	i2l470
  4212  000654                     i2u16_40:
  4213  000654                     
  4214                           ;main.c: 914:     CurrentTime[1] = SSPBUF;
  4215  000654  CFC9 F01B          	movff	4041,_CurrentTime+1	;volatile
  4216                           
  4217                           ;main.c: 916:     SSPCON2bits.ACKDT = 0;
  4218  000658  9AC5               	bcf	197,5,c	;volatile
  4219                           
  4220                           ;main.c: 917:     SSPCON2bits.ACKEN = 1;
  4221  00065A  88C5               	bsf	197,4,c	;volatile
  4222  00065C                     i2l473:
  4223  00065C  B8C5               	btfsc	4037,4,c	;volatile
  4224  00065E  EF33  F003         	goto	i2u17_41
  4225  000662  EF35  F003         	goto	i2u17_40
  4226  000666                     i2u17_41:
  4227  000666  EF2E  F003         	goto	i2l473
  4228  00066A                     i2u17_40:
  4229  00066A                     
  4230                           ;main.c: 920:     SSPCON2bits.RCEN = 1;
  4231  00066A  86C5               	bsf	197,3,c	;volatile
  4232  00066C                     i2l476:
  4233  00066C  A0C7               	btfss	199,0,c	;volatile
  4234  00066E  EF3B  F003         	goto	i2u18_41
  4235  000672  EF3D  F003         	goto	i2u18_40
  4236  000676                     i2u18_41:
  4237  000676  EF36  F003         	goto	i2l476
  4238  00067A                     i2u18_40:
  4239  00067A                     
  4240                           ;main.c: 922:     CurrentTime[2] = SSPBUF;
  4241  00067A  CFC9 F01C          	movff	4041,_CurrentTime+2	;volatile
  4242                           
  4243                           ;main.c: 924:     SSPCON2bits.ACKDT = 1;
  4244  00067E  8AC5               	bsf	197,5,c	;volatile
  4245                           
  4246                           ;main.c: 925:     SSPCON2bits.ACKEN = 1;
  4247  000680  88C5               	bsf	197,4,c	;volatile
  4248  000682                     i2l479:
  4249  000682  B8C5               	btfsc	4037,4,c	;volatile
  4250  000684  EF46  F003         	goto	i2u19_41
  4251  000688  EF48  F003         	goto	i2u19_40
  4252  00068C                     i2u19_41:
  4253  00068C  EF41  F003         	goto	i2l479
  4254  000690                     i2u19_40:
  4255  000690                     
  4256                           ;main.c: 928:     SSPCON2bits.PEN = 1;
  4257  000690  84C5               	bsf	197,2,c	;volatile
  4258  000692                     i2l482:
  4259  000692  B4C5               	btfsc	4037,2,c	;volatile
  4260  000694  EF4E  F003         	goto	i2u20_41
  4261  000698  EF50  F003         	goto	i2u20_40
  4262  00069C                     i2u20_41:
  4263  00069C  EF49  F003         	goto	i2l482
  4264  0006A0                     i2u20_40:
  4265  0006A0                     i2l446:
  4266  0006A0  0012               	return		;funcret
  4267  0006A2                     __end_ofi2_UpdateCurrentTime:
  4268                           	callstack 0
  4269                           
  4270 ;; *************** function i2_SubBCD *****************
  4271 ;; Defined at:
  4272 ;;		line 723 in file "main.c"
  4273 ;; Parameters:    Size  Location     Type
  4274 ;;  Number1         1    wreg     unsigned char 
  4275 ;;  Number2         1    0[COMRAM] unsigned char 
  4276 ;; Auto vars:     Size  Location     Type
  4277 ;;  Number1         1    2[COMRAM] unsigned char 
  4278 ;;  temp            1    3[COMRAM] unsigned char 
  4279 ;; Return value:  Size  Location     Type
  4280 ;;                  1    wreg      unsigned char 
  4281 ;; Registers used:
  4282 ;;		wreg, status,2, status,0
  4283 ;; Tracked objects:
  4284 ;;		On entry : 0/0
  4285 ;;		On exit  : 0/0
  4286 ;;		Unchanged: 0/0
  4287 ;; Data sizes:     COMRAM   BANK0   BANK1   BANK2   BANK3   BANK4   BANK5   BANK6   BANK7   BANK8   BANK9  BANK10  BANK1
      +1  BANK12  BANK13  BANK14  BANK15
  4288 ;;      Params:         1       0       0       0       0       0       0       0       0       0       0       0       
      +0       0       0       0       0
  4289 ;;      Locals:         2       0       0       0       0       0       0       0       0       0       0       0       
      +0       0       0       0       0
  4290 ;;      Temps:          1       0       0       0       0       0       0       0       0       0       0       0       
      +0       0       0       0       0
  4291 ;;      Totals:         4       0       0       0       0       0       0       0       0       0       0       0       
      +0       0       0       0       0
  4292 ;;Total ram usage:        4 bytes
  4293 ;; Hardware stack levels used: 1
  4294 ;; This function calls:
  4295 ;;		Nothing
  4296 ;; This function is called by:
  4297 ;;		_DecrementTime
  4298 ;;		_DecrementTimeHour
  4299 ;;		i2_WakeUp
  4300 ;; This function uses a non-reentrant model
  4301 ;;
  4302                           
  4303                           	psect	text28
  4304  001032                     __ptext28:
  4305                           	callstack 0
  4306  001032                     i2_SubBCD:
  4307                           	callstack 25
  4308                           
  4309                           ;incstack = 0
  4310                           ;i2SubBCD@Number1 stored from wreg
  4311  001032  6E1F               	movwf	i2SubBCD@Number1^0,c
  4312  001034                     
  4313                           ;main.c: 724:     char temp = Number1 - Number2;
  4314  001034  501D               	movf	i2SubBCD@Number2^0,w,c
  4315  001036  5C1F               	subwf	i2SubBCD@Number1^0,w,c
  4316  001038  6E20               	movwf	i2SubBCD@temp^0,c
  4317                           
  4318                           ;main.c: 726:     if ((temp & 0x0F) > 9) return temp - 0x06;
  4319  00103A  C020  F01E         	movff	i2SubBCD@temp,??i2_SubBCD
  4320  00103E  0E0F               	movlw	15
  4321  001040  161E               	andwf	??i2_SubBCD^0,f,c
  4322  001042  0E09               	movlw	9
  4323  001044  641E               	cpfsgt	??i2_SubBCD^0,c
  4324  001046  EF27  F008         	goto	i2u119_41
  4325  00104A  EF29  F008         	goto	i2u119_40
  4326  00104E                     i2u119_41:
  4327  00104E  EF2D  F008         	goto	i2l1854
  4328  001052                     i2u119_40:
  4329  001052  5020               	movf	i2SubBCD@temp^0,w,c
  4330  001054  0FFA               	addlw	250
  4331  001056  EF2E  F008         	goto	i2l353
  4332  00105A                     i2l1854:
  4333  00105A  5020               	movf	i2SubBCD@temp^0,w,c
  4334  00105C                     i2l353:
  4335  00105C  0012               	return		;funcret
  4336  00105E                     __end_ofi2_SubBCD:
  4337                           	callstack 0
  4338                           
  4339 ;; *************** function i2_AddBCD *****************
  4340 ;; Defined at:
  4341 ;;		line 717 in file "main.c"
  4342 ;; Parameters:    Size  Location     Type
  4343 ;;  Number1         1    wreg     unsigned char 
  4344 ;;  Number2         1    0[COMRAM] unsigned char 
  4345 ;; Auto vars:     Size  Location     Type
  4346 ;;  Number1         1    2[COMRAM] unsigned char 
  4347 ;;  temp            1    3[COMRAM] unsigned char 
  4348 ;; Return value:  Size  Location     Type
  4349 ;;                  1    wreg      unsigned char 
  4350 ;; Registers used:
  4351 ;;		wreg, status,2, status,0
  4352 ;; Tracked objects:
  4353 ;;		On entry : 0/0
  4354 ;;		On exit  : 0/0
  4355 ;;		Unchanged: 0/0
  4356 ;; Data sizes:     COMRAM   BANK0   BANK1   BANK2   BANK3   BANK4   BANK5   BANK6   BANK7   BANK8   BANK9  BANK10  BANK1
      +1  BANK12  BANK13  BANK14  BANK15
  4357 ;;      Params:         1       0       0       0       0       0       0       0       0       0       0       0       
      +0       0       0       0       0
  4358 ;;      Locals:         2       0       0       0       0       0       0       0       0       0       0       0       
      +0       0       0       0       0
  4359 ;;      Temps:          1       0       0       0       0       0       0       0       0       0       0       0       
      +0       0       0       0       0
  4360 ;;      Totals:         4       0       0       0       0       0       0       0       0       0       0       0       
      +0       0       0       0       0
  4361 ;;Total ram usage:        4 bytes
  4362 ;; Hardware stack levels used: 1
  4363 ;; This function calls:
  4364 ;;		Nothing
  4365 ;; This function is called by:
  4366 ;;		_IncrementTime
  4367 ;;		_IncrementTimeHour
  4368 ;;		i2_WakeUp
  4369 ;; This function uses a non-reentrant model
  4370 ;;
  4371                           
  4372                           	psect	text29
  4373  00105E                     __ptext29:
  4374                           	callstack 0
  4375  00105E                     i2_AddBCD:
  4376                           	callstack 25
  4377                           
  4378                           ;incstack = 0
  4379                           ;i2AddBCD@Number1 stored from wreg
  4380  00105E  6E1F               	movwf	i2AddBCD@Number1^0,c
  4381  001060                     
  4382                           ;main.c: 718:     char temp = Number1 + Number2;
  4383  001060  501F               	movf	i2AddBCD@Number1^0,w,c
  4384  001062  241D               	addwf	i2AddBCD@Number2^0,w,c
  4385  001064  6E20               	movwf	i2AddBCD@temp^0,c
  4386                           
  4387                           ;main.c: 720:     if ((temp & 0x0F) > 9) return temp + 0x06;
  4388  001066  C020  F01E         	movff	i2AddBCD@temp,??i2_AddBCD
  4389  00106A  0E0F               	movlw	15
  4390  00106C  161E               	andwf	??i2_AddBCD^0,f,c
  4391  00106E  0E09               	movlw	9
  4392  001070  641E               	cpfsgt	??i2_AddBCD^0,c
  4393  001072  EF3D  F008         	goto	i2u118_41
  4394  001076  EF3F  F008         	goto	i2u118_40
  4395  00107A                     i2u118_41:
  4396  00107A  EF43  F008         	goto	i2l1842
  4397  00107E                     i2u118_40:
  4398  00107E  5020               	movf	i2AddBCD@temp^0,w,c
  4399  001080  0F06               	addlw	6
  4400  001082  EF44  F008         	goto	i2l348
  4401  001086                     i2l1842:
  4402  001086  5020               	movf	i2AddBCD@temp^0,w,c
  4403  001088                     i2l348:
  4404  001088  0012               	return		;funcret
  4405  00108A                     __end_ofi2_AddBCD:
  4406                           	callstack 0
  4407                           
  4408 ;; *************** function _TMR1enable *****************
  4409 ;; Defined at:
  4410 ;;		line 690 in file "main.c"
  4411 ;; Parameters:    Size  Location     Type
  4412 ;;		None
  4413 ;; Auto vars:     Size  Location     Type
  4414 ;;		None
  4415 ;; Return value:  Size  Location     Type
  4416 ;;                  1    wreg      void 
  4417 ;; Registers used:
  4418 ;;		None
  4419 ;; Tracked objects:
  4420 ;;		On entry : 0/0
  4421 ;;		On exit  : 0/0
  4422 ;;		Unchanged: 0/0
  4423 ;; Data sizes:     COMRAM   BANK0   BANK1   BANK2   BANK3   BANK4   BANK5   BANK6   BANK7   BANK8   BANK9  BANK10  BANK1
      +1  BANK12  BANK13  BANK14  BANK15
  4424 ;;      Params:         0       0       0       0       0       0       0       0       0       0       0       0       
      +0       0       0       0       0
  4425 ;;      Locals:         0       0       0       0       0       0       0       0       0       0       0       0       
      +0       0       0       0       0
  4426 ;;      Temps:          0       0       0       0       0       0       0       0       0       0       0       0       
      +0       0       0       0       0
  4427 ;;      Totals:         0       0       0       0       0       0       0       0       0       0       0       0       
      +0       0       0       0       0
  4428 ;;Total ram usage:        0 bytes
  4429 ;; Hardware stack levels used: 1
  4430 ;; This function calls:
  4431 ;;		Nothing
  4432 ;; This function is called by:
  4433 ;;		_INT0interruption
  4434 ;; This function uses a non-reentrant model
  4435 ;;
  4436                           
  4437                           	psect	text30
  4438  00114A                     __ptext30:
  4439                           	callstack 0
  4440  00114A                     _TMR1enable:
  4441                           	callstack 26
  4442  00114A                     
  4443                           ;main.c: 691:     T0CONbits.TMR0ON = 0;
  4444  00114A  9ED5               	bcf	213,7,c	;volatile
  4445                           
  4446                           ;main.c: 692:     T1CONbits.TMR1ON = 1;
  4447  00114C  80CD               	bsf	205,0,c	;volatile
  4448  00114E  0012               	return		;funcret
  4449  001150                     __end_of_TMR1enable:
  4450                           	callstack 0
  4451                           
  4452 ;; *************** function _TMR0enable *****************
  4453 ;; Defined at:
  4454 ;;		line 694 in file "main.c"
  4455 ;; Parameters:    Size  Location     Type
  4456 ;;		None
  4457 ;; Auto vars:     Size  Location     Type
  4458 ;;		None
  4459 ;; Return value:  Size  Location     Type
  4460 ;;                  1    wreg      void 
  4461 ;; Registers used:
  4462 ;;		None
  4463 ;; Tracked objects:
  4464 ;;		On entry : 0/0
  4465 ;;		On exit  : 0/0
  4466 ;;		Unchanged: 0/0
  4467 ;; Data sizes:     COMRAM   BANK0   BANK1   BANK2   BANK3   BANK4   BANK5   BANK6   BANK7   BANK8   BANK9  BANK10  BANK1
      +1  BANK12  BANK13  BANK14  BANK15
  4468 ;;      Params:         0       0       0       0       0       0       0       0       0       0       0       0       
      +0       0       0       0       0
  4469 ;;      Locals:         0       0       0       0       0       0       0       0       0       0       0       0       
      +0       0       0       0       0
  4470 ;;      Temps:          0       0       0       0       0       0       0       0       0       0       0       0       
      +0       0       0       0       0
  4471 ;;      Totals:         0       0       0       0       0       0       0       0       0       0       0       0       
      +0       0       0       0       0
  4472 ;;Total ram usage:        0 bytes
  4473 ;; Hardware stack levels used: 1
  4474 ;; This function calls:
  4475 ;;		Nothing
  4476 ;; This function is called by:
  4477 ;;		_INT0interruption
  4478 ;; This function uses a non-reentrant model
  4479 ;;
  4480                           
  4481                           	psect	text31
  4482  001150                     __ptext31:
  4483                           	callstack 0
  4484  001150                     _TMR0enable:
  4485                           	callstack 26
  4486  001150                     
  4487                           ;main.c: 695:     T0CONbits.TMR0ON = 1;
  4488  001150  8ED5               	bsf	213,7,c	;volatile
  4489                           
  4490                           ;main.c: 696:     T1CONbits.TMR1ON = 0;
  4491  001152  90CD               	bcf	205,0,c	;volatile
  4492  001154  0012               	return		;funcret
  4493  001156                     __end_of_TMR0enable:
  4494                           	callstack 0
  4495                           
  4496 ;; *************** function _Buzz *****************
  4497 ;; Defined at:
  4498 ;;		line 779 in file "main.c"
  4499 ;; Parameters:    Size  Location     Type
  4500 ;;		None
  4501 ;; Auto vars:     Size  Location     Type
  4502 ;;		None
  4503 ;; Return value:  Size  Location     Type
  4504 ;;                  1    wreg      void 
  4505 ;; Registers used:
  4506 ;;		wreg, status,2
  4507 ;; Tracked objects:
  4508 ;;		On entry : 0/0
  4509 ;;		On exit  : 0/0
  4510 ;;		Unchanged: 0/0
  4511 ;; Data sizes:     COMRAM   BANK0   BANK1   BANK2   BANK3   BANK4   BANK5   BANK6   BANK7   BANK8   BANK9  BANK10  BANK1
      +1  BANK12  BANK13  BANK14  BANK15
  4512 ;;      Params:         0       0       0       0       0       0       0       0       0       0       0       0       
      +0       0       0       0       0
  4513 ;;      Locals:         0       0       0       0       0       0       0       0       0       0       0       0       
      +0       0       0       0       0
  4514 ;;      Temps:          0       0       0       0       0       0       0       0       0       0       0       0       
      +0       0       0       0       0
  4515 ;;      Totals:         0       0       0       0       0       0       0       0       0       0       0       0       
      +0       0       0       0       0
  4516 ;;Total ram usage:        0 bytes
  4517 ;; Hardware stack levels used: 1
  4518 ;; This function calls:
  4519 ;;		Nothing
  4520 ;; This function is called by:
  4521 ;;		_INT0interruption
  4522 ;;		_INT1interruption
  4523 ;;		_INT2interruption
  4524 ;; This function uses a non-reentrant model
  4525 ;;
  4526                           
  4527                           	psect	text32
  4528  001134                     __ptext32:
  4529                           	callstack 0
  4530  001134                     _Buzz:
  4531                           	callstack 26
  4532  001134                     
  4533                           ;main.c: 781:     PIE2bits.TMR3IE = 1;
  4534  001134  82A0               	bsf	160,1,c	;volatile
  4535  001136                     
  4536                           ;main.c: 782:     TMR3 = 0;
  4537  001136  0E00               	movlw	0
  4538  001138  6EB3               	movwf	179,c	;volatile
  4539  00113A  0E00               	movlw	0
  4540  00113C  6EB2               	movwf	178,c	;volatile
  4541  00113E  0012               	return		;funcret
  4542  001140                     __end_of_Buzz:
  4543                           	callstack 0
  4544  0000                     
  4545                           	psect	rparam
  4546  0000                     
  4547                           	psect	temp
  4548  000033                     btemp:
  4549                           	callstack 0
  4550  000033                     	ds	1
  4551  0000                     int$flags	set	btemp
  4552  0000                     wtemp8	set	btemp+1
  4553  0000                     ttemp5	set	btemp+1
  4554  0000                     ttemp6	set	btemp+4
  4555  0000                     ttemp7	set	btemp+8
  4556                           
  4557                           	psect	idloc
  4558                           
  4559                           ;Config register IDLOC0 @ 0x200000
  4560                           ;	unspecified, using default values
  4561  200000                     	org	2097152
  4562  200000  FF                 	db	255
  4563                           
  4564                           ;Config register IDLOC1 @ 0x200001
  4565                           ;	unspecified, using default values
  4566  200001                     	org	2097153
  4567  200001  FF                 	db	255
  4568                           
  4569                           ;Config register IDLOC2 @ 0x200002
  4570                           ;	unspecified, using default values
  4571  200002                     	org	2097154
  4572  200002  FF                 	db	255
  4573                           
  4574                           ;Config register IDLOC3 @ 0x200003
  4575                           ;	unspecified, using default values
  4576  200003                     	org	2097155
  4577  200003  FF                 	db	255
  4578                           
  4579                           ;Config register IDLOC4 @ 0x200004
  4580                           ;	unspecified, using default values
  4581  200004                     	org	2097156
  4582  200004  FF                 	db	255
  4583                           
  4584                           ;Config register IDLOC5 @ 0x200005
  4585                           ;	unspecified, using default values
  4586  200005                     	org	2097157
  4587  200005  FF                 	db	255
  4588                           
  4589                           ;Config register IDLOC6 @ 0x200006
  4590                           ;	unspecified, using default values
  4591  200006                     	org	2097158
  4592  200006  FF                 	db	255
  4593                           
  4594                           ;Config register IDLOC7 @ 0x200007
  4595                           ;	unspecified, using default values
  4596  200007                     	org	2097159
  4597  200007  FF                 	db	255
  4598                           
  4599                           	psect	config
  4600                           
  4601                           ; Padding undefined space
  4602  300000                     	org	3145728
  4603  300000  FF                 	db	255
  4604                           
  4605                           ;Config register CONFIG1H @ 0x300001
  4606                           ;	Oscillator Selection bits
  4607                           ;	OSC = INTIO67, Internal oscillator block, port function on RA6 and RA7
  4608                           ;	Fail-Safe Clock Monitor Enable bit
  4609                           ;	FCMEN = OFF, Fail-Safe Clock Monitor disabled
  4610                           ;	Internal/External Oscillator Switchover bit
  4611                           ;	IESO = OFF, Oscillator Switchover mode disabled
  4612  300001                     	org	3145729
  4613  300001  08                 	db	8
  4614                           
  4615                           ;Config register CONFIG2L @ 0x300002
  4616                           ;	Power-up Timer Enable bit
  4617                           ;	PWRT = OFF, PWRT disabled
  4618                           ;	Brown-out Reset Enable bits
  4619                           ;	BOREN = OFF, Brown-out Reset disabled in hardware and software
  4620                           ;	Brown Out Reset Voltage bits
  4621                           ;	BORV = 3, Minimum setting
  4622  300002                     	org	3145730
  4623  300002  19                 	db	25
  4624                           
  4625                           ;Config register CONFIG2H @ 0x300003
  4626                           ;	Watchdog Timer Enable bit
  4627                           ;	WDT = OFF, WDT disabled (control is placed on the SWDTEN bit)
  4628                           ;	Watchdog Timer Postscale Select bits
  4629                           ;	WDTPS = 32768, 1:32768
  4630  300003                     	org	3145731
  4631  300003  1E                 	db	30
  4632                           
  4633                           ; Padding undefined space
  4634  300004                     	org	3145732
  4635  300004  FF                 	db	255
  4636                           
  4637                           ;Config register CONFIG3H @ 0x300005
  4638                           ;	CCP2 MUX bit
  4639                           ;	CCP2MX = PORTC, CCP2 input/output is multiplexed with RC1
  4640                           ;	PORTB A/D Enable bit
  4641                           ;	PBADEN = OFF, PORTB<4:0> pins are configured as digital I/O on Reset
  4642                           ;	Low-Power Timer1 Oscillator Enable bit
  4643                           ;	LPT1OSC = OFF, Timer1 configured for higher power operation
  4644                           ;	MCLR Pin Enable bit
  4645                           ;	MCLRE = ON, MCLR pin enabled; RE3 input pin disabled
  4646  300005                     	org	3145733
  4647  300005  81                 	db	129
  4648                           
  4649                           ;Config register CONFIG4L @ 0x300006
  4650                           ;	Stack Full/Underflow Reset Enable bit
  4651                           ;	STVREN = OFF, Stack full/underflow will not cause Reset
  4652                           ;	Single-Supply ICSP Enable bit
  4653                           ;	LVP = OFF, Single-Supply ICSP disabled
  4654                           ;	Extended Instruction Set Enable bit
  4655                           ;	XINST = OFF, Instruction set extension and Indexed Addressing mode disabled (Legacy mo
      +                          de)
  4656                           ;	Background Debugger Enable bit
  4657                           ;	DEBUG = 0x1, unprogrammed default
  4658  300006                     	org	3145734
  4659  300006  80                 	db	128
  4660                           
  4661                           ; Padding undefined space
  4662  300007                     	org	3145735
  4663  300007  FF                 	db	255
  4664                           
  4665                           ;Config register CONFIG5L @ 0x300008
  4666                           ;	Code Protection bit
  4667                           ;	CP0 = OFF, Block 0 (000800-003FFFh) not code-protected
  4668                           ;	Code Protection bit
  4669                           ;	CP1 = OFF, Block 1 (004000-007FFFh) not code-protected
  4670                           ;	Code Protection bit
  4671                           ;	CP2 = OFF, Block 2 (008000-00BFFFh) not code-protected
  4672                           ;	Code Protection bit
  4673                           ;	CP3 = OFF, Block 3 (00C000-00FFFFh) not code-protected
  4674  300008                     	org	3145736
  4675  300008  0F                 	db	15
  4676                           
  4677                           ;Config register CONFIG5H @ 0x300009
  4678                           ;	Boot Block Code Protection bit
  4679                           ;	CPB = OFF, Boot block (000000-0007FFh) not code-protected
  4680                           ;	Data EEPROM Code Protection bit
  4681                           ;	CPD = OFF, Data EEPROM not code-protected
  4682  300009                     	org	3145737
  4683  300009  C0                 	db	192
  4684                           
  4685                           ;Config register CONFIG6L @ 0x30000A
  4686                           ;	Write Protection bit
  4687                           ;	WRT0 = OFF, Block 0 (000800-003FFFh) not write-protected
  4688                           ;	Write Protection bit
  4689                           ;	WRT1 = OFF, Block 1 (004000-007FFFh) not write-protected
  4690                           ;	Write Protection bit
  4691                           ;	WRT2 = OFF, Block 2 (008000-00BFFFh) not write-protected
  4692                           ;	Write Protection bit
  4693                           ;	WRT3 = OFF, Block 3 (00C000-00FFFFh) not write-protected
  4694  30000A                     	org	3145738
  4695  30000A  0F                 	db	15
  4696                           
  4697                           ;Config register CONFIG6H @ 0x30000B
  4698                           ;	Configuration Register Write Protection bit
  4699                           ;	WRTC = OFF, Configuration registers (300000-3000FFh) not write-protected
  4700                           ;	Boot Block Write Protection bit
  4701                           ;	WRTB = OFF, Boot Block (000000-0007FFh) not write-protected
  4702                           ;	Data EEPROM Write Protection bit
  4703                           ;	WRTD = OFF, Data EEPROM not write-protected
  4704  30000B                     	org	3145739
  4705  30000B  E0                 	db	224
  4706                           
  4707                           ;Config register CONFIG7L @ 0x30000C
  4708                           ;	Table Read Protection bit
  4709                           ;	EBTR0 = OFF, Block 0 (000800-003FFFh) not protected from table reads executed in other
      +                           blocks
  4710                           ;	Table Read Protection bit
  4711                           ;	EBTR1 = OFF, Block 1 (004000-007FFFh) not protected from table reads executed in other
      +                           blocks
  4712                           ;	Table Read Protection bit
  4713                           ;	EBTR2 = OFF, Block 2 (008000-00BFFFh) not protected from table reads executed in other
      +                           blocks
  4714                           ;	Table Read Protection bit
  4715                           ;	EBTR3 = OFF, Block 3 (00C000-00FFFFh) not protected from table reads executed in other
      +                           blocks
  4716  30000C                     	org	3145740
  4717  30000C  0F                 	db	15
  4718                           
  4719                           ;Config register CONFIG7H @ 0x30000D
  4720                           ;	Boot Block Table Read Protection bit
  4721                           ;	EBTRB = OFF, Boot Block (000000-0007FFh) not protected from table reads executed in ot
      +                          her blocks
  4722  30000D                     	org	3145741
  4723  30000D  40                 	db	64
  4724                           tosu	equ	0xFFF
  4725                           tosh	equ	0xFFE
  4726                           tosl	equ	0xFFD
  4727                           stkptr	equ	0xFFC
  4728                           pclatu	equ	0xFFB
  4729                           pclath	equ	0xFFA
  4730                           pcl	equ	0xFF9
  4731                           tblptru	equ	0xFF8
  4732                           tblptrh	equ	0xFF7
  4733                           tblptrl	equ	0xFF6
  4734                           tablat	equ	0xFF5
  4735                           prodh	equ	0xFF4
  4736                           prodl	equ	0xFF3
  4737                           indf0	equ	0xFEF
  4738                           postinc0	equ	0xFEE
  4739                           postdec0	equ	0xFED
  4740                           preinc0	equ	0xFEC
  4741                           plusw0	equ	0xFEB
  4742                           fsr0h	equ	0xFEA
  4743                           fsr0l	equ	0xFE9
  4744                           wreg	equ	0xFE8
  4745                           indf1	equ	0xFE7
  4746                           postinc1	equ	0xFE6
  4747                           postdec1	equ	0xFE5
  4748                           preinc1	equ	0xFE4
  4749                           plusw1	equ	0xFE3
  4750                           fsr1h	equ	0xFE2
  4751                           fsr1l	equ	0xFE1
  4752                           bsr	equ	0xFE0
  4753                           indf2	equ	0xFDF
  4754                           postinc2	equ	0xFDE
  4755                           postdec2	equ	0xFDD
  4756                           preinc2	equ	0xFDC
  4757                           plusw2	equ	0xFDB
  4758                           fsr2h	equ	0xFDA
  4759                           fsr2l	equ	0xFD9
  4760                           status	equ	0xFD8

Data Sizes:
    Strings     0
    Constant    0
    Data        3
    BSS         28
    Persistent  0
    Stack       0

Auto Spaces:
    Space          Size  Autos    Used
    COMRAM          126     19      50
    BANK0           128      0       0
    BANK1           256      0       0
    BANK2           256      0       0
    BANK3           256      0       0
    BANK4           256      0       0
    BANK5           256      0       0
    BANK6           256      0       0
    BANK7           256      0       0
    BANK8           256      0       0
    BANK9           256      0       0
    BANK10          256      0       0
    BANK11          256      0       0
    BANK12          256      0       0
    BANK13          256      0       0
    BANK14          256      0       0
    BANK15          128      0       0

Pointer List with Targets:

    DecrementTimeHour@Time	PTR unsigned char  size(2) Largest target is 3
		 -> TargetTime(COMRAM[3]), CurrentTime(COMRAM[3]), 

    DecrementTime@Time	PTR unsigned char  size(2) Largest target is 3
		 -> ValveTime(COMRAM[3]), WateringTime(COMRAM[3]), TargetTime(COMRAM[3]), CurrentTime(COMRAM[3]), 

    IncrementTimeHour@Time	PTR unsigned char  size(2) Largest target is 3
		 -> TargetTime(COMRAM[3]), CurrentTime(COMRAM[3]), 

    IncrementTime@Time	PTR unsigned char  size(2) Largest target is 3
		 -> ValveTime(COMRAM[3]), WateringTime(COMRAM[3]), TargetTime(COMRAM[3]), CurrentTime(COMRAM[3]), 


Critical Paths under _main in COMRAM

    _main->_Display
    _WakeUp->_AddBCD
    _WakeUp->_SubBCD
    _MCUinit->_Display

Critical Paths under _my_isr_routine in COMRAM

    _my_isr_routine->_INT1interruption
    _INT2interruption->_DecrementTime
    _INT2interruption->_DecrementTimeHour
    _DecrementTimeHour->i2_SubBCD
    _DecrementTime->i2_SubBCD
    _INT1interruption->_IncrementTime
    _INT1interruption->_IncrementTimeHour
    _IncrementTimeHour->i2_AddBCD
    _IncrementTime->i2_AddBCD
    _INT0interruption->i2_WakeUp
    i2_WakeUp->i2_AddBCD
    i2_WakeUp->i2_SubBCD

Critical Paths under _main in BANK0

    None.

Critical Paths under _my_isr_routine in BANK0

    None.

Critical Paths under _main in BANK1

    None.

Critical Paths under _my_isr_routine in BANK1

    None.

Critical Paths under _main in BANK2

    None.

Critical Paths under _my_isr_routine in BANK2

    None.

Critical Paths under _main in BANK3

    None.

Critical Paths under _my_isr_routine in BANK3

    None.

Critical Paths under _main in BANK4

    None.

Critical Paths under _my_isr_routine in BANK4

    None.

Critical Paths under _main in BANK5

    None.

Critical Paths under _my_isr_routine in BANK5

    None.

Critical Paths under _main in BANK6

    None.

Critical Paths under _my_isr_routine in BANK6

    None.

Critical Paths under _main in BANK7

    None.

Critical Paths under _my_isr_routine in BANK7

    None.

Critical Paths under _main in BANK8

    None.

Critical Paths under _my_isr_routine in BANK8

    None.

Critical Paths under _main in BANK9

    None.

Critical Paths under _my_isr_routine in BANK9

    None.

Critical Paths under _main in BANK10

    None.

Critical Paths under _my_isr_routine in BANK10

    None.

Critical Paths under _main in BANK11

    None.

Critical Paths under _my_isr_routine in BANK11

    None.

Critical Paths under _main in BANK12

    None.

Critical Paths under _my_isr_routine in BANK12

    None.

Critical Paths under _main in BANK13

    None.

Critical Paths under _my_isr_routine in BANK13

    None.

Critical Paths under _main in BANK14

    None.

Critical Paths under _my_isr_routine in BANK14

    None.

Critical Paths under _main in BANK15

    None.

Critical Paths under _my_isr_routine in BANK15

    None.

Call Graph Tables:

 ---------------------------------------------------------------------------------
 (Depth) Function   	        Calls       Base Space   Used Autos Params    Refs
 ---------------------------------------------------------------------------------
 (0) _main                                                 2     2      0    4808
                                             17 COMRAM     2     2      0
                             _AddBCD
                         _BlinkDigit
                            _Display
                          _MCUconfig
                            _MCUinit
                  _UpdateCurrentTime
                             _WakeUp
 ---------------------------------------------------------------------------------
 (1) _WakeUp                                               1     1      0    1486
                                             15 COMRAM     1     1      0
                             _AddBCD
                             _SubBCD
                  _UpdateCurrentTime
 ---------------------------------------------------------------------------------
 (2) _UpdateCurrentTime                                    0     0      0       0
 ---------------------------------------------------------------------------------
 (2) _SubBCD                                               4     3      1     363
                                             11 COMRAM     4     3      1
 ---------------------------------------------------------------------------------
 (2) _AddBCD                                               4     3      1    1123
                                             11 COMRAM     4     3      1
 ---------------------------------------------------------------------------------
 (1) _MCUinit                                              0     0      0    1092
                            _Display
 ---------------------------------------------------------------------------------
 (2) _Display                                              6     5      1    1092
                                             11 COMRAM     6     5      1
 ---------------------------------------------------------------------------------
 (1) _MCUconfig                                            0     0      0       0
                         _GPIOconfig
                          _I2Cconfig
                          _INTconfig
                          _PWMconfig
                        _TIMERconfig
 ---------------------------------------------------------------------------------
 (2) _TIMERconfig                                          0     0      0       0
 ---------------------------------------------------------------------------------
 (2) _PWMconfig                                            0     0      0       0
 ---------------------------------------------------------------------------------
 (2) _INTconfig                                            0     0      0       0
 ---------------------------------------------------------------------------------
 (2) _I2Cconfig                                            0     0      0       0
 ---------------------------------------------------------------------------------
 (2) _GPIOconfig                                           0     0      0       0
 ---------------------------------------------------------------------------------
 (1) _BlinkDigit                                           3     3      0      15
                                             11 COMRAM     3     3      0
 ---------------------------------------------------------------------------------
 Estimated maximum stack depth 2
 ---------------------------------------------------------------------------------
 (Depth) Function   	        Calls       Base Space   Used Autos Params    Refs
 ---------------------------------------------------------------------------------
 (3) _my_isr_routine                                       2     2      0    5542
                                              9 COMRAM     2     2      0
                   _INT0interruption
                   _INT1interruption
                   _INT2interruption
                   _TMR0interruption
                   _TMR1interruption
                   _TMR3interruption
 ---------------------------------------------------------------------------------
 (4) _TMR3interruption                                     0     0      0       0
 ---------------------------------------------------------------------------------
 (4) _TMR1interruption                                     0     0      0       0
 ---------------------------------------------------------------------------------
 (4) _TMR0interruption                                     2     2      0       0
                                              0 COMRAM     2     2      0
                i2_UpdateCurrentTime
 ---------------------------------------------------------------------------------
 (4) _INT2interruption                                     2     2      0    2400
                                              6 COMRAM     2     2      0
                               _Buzz
                         _ChangeTime
                      _DecrementTime
                  _DecrementTimeHour
                           i2_WakeUp
 ---------------------------------------------------------------------------------
 (5) _DecrementTimeHour                                    2     0      2     455
                                              4 COMRAM     2     0      2
                           i2_SubBCD
 ---------------------------------------------------------------------------------
 (5) _DecrementTime                                        2     0      2     759
                                              4 COMRAM     2     0      2
                           i2_SubBCD
 ---------------------------------------------------------------------------------
 (4) _INT1interruption                                     2     2      0    2608
                                              7 COMRAM     2     2      0
                               _Buzz
                         _ChangeTime
                      _IncrementTime
                  _IncrementTimeHour
                           i2_WakeUp
 ---------------------------------------------------------------------------------
 (5) _IncrementTimeHour                                    3     1      2     559
                                              4 COMRAM     3     1      2
                           i2_AddBCD
 ---------------------------------------------------------------------------------
 (5) _IncrementTime                                        3     1      2     863
                                              4 COMRAM     3     1      2
                           i2_AddBCD
 ---------------------------------------------------------------------------------
 (5) _ChangeTime                                           2     1      1     652
                                              0 COMRAM     2     1      1
 ---------------------------------------------------------------------------------
 (4) _INT0interruption                                     2     2      0     534
                                              5 COMRAM     2     2      0
                               _Buzz
                         _TMR0enable
                         _TMR1enable
                           i2_WakeUp
 ---------------------------------------------------------------------------------
 (5) i2_WakeUp                                             1     1      0     534
                                              4 COMRAM     1     1      0
                           i2_AddBCD
                           i2_SubBCD
                i2_UpdateCurrentTime
 ---------------------------------------------------------------------------------
 (5) i2_UpdateCurrentTime                                  0     0      0       0
 ---------------------------------------------------------------------------------
 (6) i2_SubBCD                                             4     3      1     215
                                              0 COMRAM     4     3      1
 ---------------------------------------------------------------------------------
 (6) i2_AddBCD                                             4     3      1     319
                                              0 COMRAM     4     3      1
 ---------------------------------------------------------------------------------
 (5) _TMR1enable                                           0     0      0       0
 ---------------------------------------------------------------------------------
 (5) _TMR0enable                                           0     0      0       0
 ---------------------------------------------------------------------------------
 (5) _Buzz                                                 0     0      0       0
 ---------------------------------------------------------------------------------
 Estimated maximum stack depth 6
 ---------------------------------------------------------------------------------

 Call Graph Graphs:

 _main (ROOT)
   _AddBCD
   _BlinkDigit
   _Display
   _MCUconfig
     _GPIOconfig
     _I2Cconfig
     _INTconfig
     _PWMconfig
     _TIMERconfig
   _MCUinit
     _Display
   _UpdateCurrentTime
   _WakeUp
     _AddBCD
     _SubBCD
     _UpdateCurrentTime

 _my_isr_routine (ROOT)
   _INT0interruption
     _Buzz
     _TMR0enable
     _TMR1enable
     i2_WakeUp
       i2_AddBCD
       i2_SubBCD
       i2_UpdateCurrentTime
   _INT1interruption
     _Buzz
     _ChangeTime
     _IncrementTime
       i2_AddBCD
     _IncrementTimeHour
       i2_AddBCD
     i2_WakeUp
   _INT2interruption
     _Buzz
     _ChangeTime
     _DecrementTime
       i2_SubBCD
     _DecrementTimeHour
       i2_SubBCD
     i2_WakeUp
   _TMR0interruption
     i2_UpdateCurrentTime
   _TMR1interruption
   _TMR3interruption

 Address spaces:
Name               Size   Autos  Total    Cost      Usage
BIGRAM             F7F      0       0      37        0.0%
EEDATA             400      0       0       0        0.0%
BITBANK14          100      0       0      32        0.0%
BANK14             100      0       0      33        0.0%
BITBANK13          100      0       0      30        0.0%
BANK13             100      0       0      31        0.0%
BITBANK12          100      0       0      28        0.0%
BANK12             100      0       0      29        0.0%
BITBANK11          100      0       0      26        0.0%
BANK11             100      0       0      27        0.0%
BITBANK10          100      0       0      24        0.0%
BANK10             100      0       0      25        0.0%
BITBANK9           100      0       0      22        0.0%
BANK9              100      0       0      23        0.0%
BITBANK8           100      0       0      20        0.0%
BANK8              100      0       0      21        0.0%
BITBANK7           100      0       0      18        0.0%
BANK7              100      0       0      19        0.0%
BITBANK6           100      0       0      16        0.0%
BANK6              100      0       0      17        0.0%
BITBANK5           100      0       0      14        0.0%
BANK5              100      0       0      15        0.0%
BITBANK4           100      0       0      12        0.0%
BANK4              100      0       0      13        0.0%
BITBANK3           100      0       0      10        0.0%
BANK3              100      0       0      11        0.0%
BITBANK2           100      0       0       8        0.0%
BANK2              100      0       0       9        0.0%
BITBANK1           100      0       0       6        0.0%
BANK1              100      0       0       7        0.0%
BITBANK15           80      0       0      35        0.0%
BANK15              80      0       0      36        0.0%
BITBANK0            80      0       0       4        0.0%
BANK0               80      0       0       5        0.0%
BITCOMRAM           7E      0       0       0        0.0%
COMRAM              7E     13      32       1       39.7%
BITSFR               0      0       0     200        0.0%
SFR                  0      0       0     200        0.0%
STACK                0      0       0       2        0.0%
NULL                 0      0       0       0        0.0%
ABS                  0      0      32      34        0.0%
DATA                 0      0      32       3        0.0%
CODE                 0      0       0       0        0.0%


Microchip Technology PIC18 Macro Assembler V2.32 build 20210201212658 
Symbol Table                                                                                   Sat Jul 24 20:19:37 2021

       DecrementTimeHour@Time 0021              _TMR1interruption 108A                   _SSPSTATbits 000FC7  
  __size_of_IncrementTimeHour 0048            __size_of_I2Cconfig 000A                           l220 1148  
                         l310 0C8E                           l223 1126                           l303 1132  
                         l232 1102                           l217 10E8                           l226 1118  
                         l306 0C7A                           l172 0406                           l229 10CA  
                         l318 0E14                           l174 004E                           l361 09F6  
                         l353 1004                           l441 0432                           l450 048C  
                         l178 009C                           l363 0A34                           l451 047A  
                         l443 0444                           l348 1030                           l460 04D4  
                         l436 0410                           l365 0A44                           l357 097A  
                         l461 04C2                           l470 04FC                           l454 048E  
                         l446 0556                           l438 041E                           l359 09B8  
                         l447 045A                           l439 0424                           l199 026C  
                         l472 050A                           l464 04D6                           l456 049C  
                         l481 0546                           l473 0512                           l457 04A2  
                         l449 0468                           l482 0548                           l466 04E4  
                         l475 0520                           l467 04EC                           l459 04B0  
                         l476 0522                           l469 04FA                           l478 0530  
                         l479 0538                           u300 0432                           u301 042E  
                         u310 0442                           u311 043E                           u400 04E4  
                         u320 0452                           u401 04E0                           u321 044E  
                         u410 04FA                           u330 0468                           u411 04F6  
                         u331 0464                           u420 050A                           u340 0478  
                         u421 0506                           u341 0474                           u430 0520  
                         u350 0488                           _PR2 000FCB                           u431 051C  
                         u351 0484                           u440 0530                           u360 049C  
                         _PEN 007E2A                           u441 052C                           u361 0498  
                         u450 0546                           u370 04B0                           u290 041E  
                         u451 0542                           u371 04AC                           u291 041A  
                         u460 0556                           u380 04C0                           u461 0552  
                         u381 04BC                           u390 04D0                           u391 04CC  
                         _SEN 007E28             ?_INT0interruption 001D           _CurrentWateringTime 0006  
                 ?_GPIOconfig 001D                           wreg 000FE8            ??_INT0interruption 0022  
                        l2000 0C7E                          l2002 0C8A                          l1300 1110  
                        l1302 1114                          l1310 10C4                          l1400 0DBE  
                        l1304 10AC                          l2200 01A2                          l1402 0DCA  
                        l1306 10B8                          l1250 0420                          l2202 01BE  
                        l2210 01E2                          l1404 0DD6                          l1308 10BE  
                        l1260 04C0                          l1252 0442                          l2220 01EE  
                        l2204 01CA                          l2212 01E6                          l1254 0456  
                        l2230 0216                          l2222 01F0                          l2214 01E8  
                        l2206 01D2                          l2150 0026                          l2302 038C  
                        l1408 0DE2                          l1280 10D8                          l1256 0478  
                        l1248 040E                          l2240 024C                          l2232 021E  
                        l2224 01F2                          l2216 01EA                          l2208 01DE  
                        l2160 007A                          l2152 003A                          l1290 10E4  
                        l1282 10DC                          l1274 10CC                          l1258 049E  
                        l2250 0284                          l2242 025C                          l2234 022E  
                        l2226 0202                          l2218 01EC                          l2170 00B0  
                        l2162 008C                          l2154 0054                          l2146 0012  
                        l1292 10E6                          l1284 10DE                          l1276 10D0  
                        l2260 02D4                          l2252 0296                          l2244 0270  
                        l2236 0240                          l2228 0212                          l2180 00FC  
                        l2172 00C0                          l2164 0094                          l2156 0064  
                        l2148 001A                          l1286 10E0                          l1278 10D4  
                        l1294 1140                          l1390 10F6                          l2270 031A  
                        l2262 02D8                          l2254 02A8                          l2238 0244  
                        l2246 0274                          l2190 0154                          l2182 0104  
                        l2174 00D0                          l2158 0068                          l2166 00A0  
                        l1288 10E2                          l1296 111A                          l1392 10FA  
                        l1384 10EA                          l2344 03A0                          l2280 0332  
                        l2272 0326                          l2264 02EA                          l2256 02AC  
                        l2248 027A                          l2192 0168                          l2184 0118  
                        l2176 00D8                          l2168 00AA                          l2346 0DF6  
                        l1298 1104                          l1394 10FE                          l1386 10EE  
                        l2290 0374                          l2282 033C                          l2266 0306  
                        l2274 032A                          l2258 02C4                          l2194 017C  
                        l2186 012C                          l2178 00EA                          l1388 10F2  
                        l1900 0A26                          l2292 0378                          l2284 034E  
                        l2268 0312                          l2276 032E                          l2196 018C  
                        l2188 0140                          l1398 0DBA                          l1902 0A38  
                        l1910 1026                          l2294 037C                          l2286 0360  
                        l2278 0330                          l2198 0190                          l1904 0A3A  
                        l2296 0380                          l2288 036C                          l1906 0A42  
                        l2298 0384                          l1860 094C                          l1916 102E  
                        l1908 1008                          l1870 0988                          l1862 095C  
                        l1880 09BE                          l1872 098A                          l1864 096C  
                        l1890 09FA                          l1882 09C6                          l1874 099A  
                        l1866 097E                          l1858 0930                          l1962 1002  
                        l1954 0FDC                          l1892 09FC                          l1884 09C8  
                        l1876 09AA                          l1868 0980                          l1956 0FFA  
                  _ChangeTime 0B50                          l1894 0A04                          l1886 09D8  
                        l1878 09BC                          l1990 0C16                          l1896 0A06  
                        l1888 09E8                          l1984 1128                          l1992 0C32  
                        l1898 0A16                          l1994 0C36                          l1986 0BF6  
                        l1996 0C42                          l1988 0BFA                          l1998 0C52  
                        u1200 095C                          u1201 0958                          u1210 096C  
                        u1211 0968                          u1220 099A                          u1221 0996  
                        u1230 09AA                          u1231 09A6                          u1240 09D8  
                        u1241 09D4                          u1250 09E8                          u1251 09E4  
                        u1260 0A16                          u1420 0FFA                          u1261 0A12  
                        u1421 0FF6                          _LATA 000F89                          u1270 0A26  
                        _LATB 000F8A                          u1271 0A22                          u1280 1026  
                        u1600 018C                          u1281 1022                          u1601 0188  
                        u1450 0C16                          u1610 01A2                          u1530 0064  
                        u1451 0C12                          u1611 019E                          u1531 0060  
                        u1460 0C32                          u1700 02A8                          u1620 01BE  
                        u1540 007A                          u1461 0C2E                          u1701 02A4  
                        u1621 01BA                          u1541 0076                          u1710 02D4  
                        u1630 0202                          u1550 008C                          u1711 02D0  
                        u1631 01FE                          u1551 0088                          u1720 02EA  
                        u1640 0212                          u1560 00C0                          u1721 02E6  
                        u1641 020E                          u1561 00BC                          u1730 0306  
                        u1650 022E                          u1570 00D0                          u1731 0302  
                        u1651 022A                          u1571 00CC                          u1740 034E  
                        u1660 0240                          u1580 00EA                          u1741 034A  
                        u1661 023C                          u1581 00E6                          u1750 0360  
                        u1670 025C                          u1590 00FC                          u1807 09C0  
                        u1751 035C                          u1671 0258                          u1591 00F8  
                        _PIE1 000F9D                          u1680 026C                          _PIE2 000FA0  
                        u1817 09EC                          u1681 0268                          u1690 0296  
                        u1827 09FE                          u1691 0292                          u1837 0A2A  
                        u1847 0A3C                          u1767 001C                          u1777 0970  
                        u1787 0982                          u1797 09AE                          _TMR3 000FB2  
             __end_of_MCUinit 1134                          _Buzz 1134                 _IncrementTime 0E5E  
                        _main 0012                          fsr2h 000FDA                          indf2 000FDF  
                        fsr2l 000FD9                          btemp 0033                          start 000E  
                  _BlinkDigit 0DB8               __end_of_Display 0A46                  ___param_bank 000000  
                       ?_Buzz 001D                         ?_main 001D                         _ACKEN 007E2C  
                       _T0CON 000FD5                         _T1CON 000FCD                         _T2CON 000FCA  
                       _T3CON 000FB1            __size_of_MCUconfig 001A                         i2l300 07E6  
                       i2l310 0D28                         i2l214 0FCE                         i2l240 0DB4  
                       i2l321 114E                         i2l306 0D14                         i2l242 0DB6  
                       i2l250 0F6A                         i2l324 1154                         i2l252 0F72  
                       i2l334 0E5C                         i2l246 10AA                         i2l344 0EEA  
                       i2l353 105C                         i2l441 057C                         i2l329 0EA4  
                       i2l450 05D6                         i2l258 0B4C                         i2l274 092A  
                       i2l290 07E4                         i2l451 05C4                         i2l443 058E  
                       i2l371 0B54                         i2l339 0F30                         i2l348 1088  
                       i2l460 061E                         i2l436 055A                         i2l268 0B4E  
                       i2l284 092C                         i2l461 060C                         i2l381 0BF4  
                       i2l373 0B62                         i2l470 0646                         i2l454 05D8  
                       i2l446 06A0                         i2l438 0568                         i2l382 0B9E  
                       i2l374 0B68                         i2l447 05A4                         i2l439 056E  
                       i2l391 0BE2                         i2l368 113E                         i2l472 0654  
                       i2l464 0620                         i2l456 05E6                         i2l392 0BE6  
                       i2l384 0BAC                         i2l376 0B76                         i2l481 0690  
                       i2l473 065C                         i2l457 05EC                         i2l449 05B2  
                       i2l385 0BD0                         i2l482 0692                         i2l466 062E  
                       i2l386 0BBE                         i2l378 0B88                         i2l475 066A  
                       i2l467 0636                         i2l459 05FA                         i2l476 066C  
                       i2l469 0644                         i2l389 0BD4                         i2l478 067A  
                       i2l479 0682                         _TRISA 000F92                         _TRISB 000F93  
                       _TRISC 000F94                         _SSPIF 007CF3             ?_INT1interruption 001D  
            __end_ofi2_AddBCD 108A            __size_of_INTconfig 0016                         _Blink 0011  
                       _State 0010            ??_INT1interruption 0024                    SubBCD@temp 002B  
            __end_ofi2_SubBCD 105E              __end_ofi2_WakeUp 0D2A                   ?_TMR0enable 001D  
                 ?_TMR1enable 001D                         tablat 000FF5                ?_IncrementTime 0021  
            _CurrentValveTime 0004                         ttemp5 0034                         ttemp6 0037  
                       ttemp7 003B                         status 000FD8             __end_of_I2Cconfig 114A  
                       wtemp8 0034                    _LastSecond 0008           __size_of_GPIOconfig 001E  
             __initialization 0F74                  __end_of_Buzz 1140            __size_of_PWMconfig 0020  
                __end_of_main 040E              _TMR3interruption 0F32                        ??_Buzz 001D  
                      ??_main 002E                    _BuzzerFlag 0009                 __activetblptr 000002  
           _UpdateCurrentTime 040E             ?_INT2interruption 001D            ?_UpdateCurrentTime 001D  
                   ??_MCUinit 002E            ??_INT2interruption 0023      __end_of_TMR0interruption 0DB8  
                      _CCPR1L 000FBE                   ?_ChangeTime 001D                        i2l2010 0A6A  
                      i2l2020 0A86                        i2l2012 0A6E                        i2l2004 0A46  
                      i2l2030 0AA2                        i2l2022 0A8A                        i2l2014 0A76  
                      i2l2006 0A54                        i2l2110 06C6                        i2l1312 1134  
                      i2l2040 0AC2                        i2l2032 0AAA                        i2l2024 0A92  
                      i2l2016 0A7A                        i2l2008 0A62                        i2l2120 0700  
                      i2l2112 06D2                        i2l2104 06A2                        i2l1314 1136  
                      i2l2042 0AC6                        i2l2034 0AAE                        i2l2026 0A96  
                      i2l2018 0A7E                        i2l2130 073A                        i2l2122 070E  
                      i2l2114 06DC                        i2l2106 06B0                        i2l1316 114A  
                      i2l2044 0ACE                        i2l2036 0AB6                        i2l2028 0A9E  
                      i2l2132 074A                        i2l2124 0712                        i2l2116 06EA  
                      i2l2140 077A                        i2l2108 06BE                        i2l1318 1150  
                      i2l1190 05A0                        i2l2046 0AD2                        i2l2038 0ABA  
                      i2l2070 0818                        i2l2062 07E8                        i2l2134 075A  
                      i2l2126 071A                        i2l2118 06F6                        i2l2310 0FBA  
                      i2l1192 05C2                        i2l1184 0558                        i2l2048 0ADA  
                      i2l2056 0AE2                        i2l2080 0854                        i2l2072 0822  
                      i2l2064 07F6                        i2l2136 076A                        i2l2128 072A  
                      i2l1440 0D4E                        i2l1432 0D2A                        i2l2312 0FBE  
                      i2l1194 05E8                        i2l1186 056A                        i2l2090 0890  
                      i2l2082 0858                        i2l2074 0830                        i2l2066 0804  
                      i2l1442 0D60                        i2l1434 0D38                        i2l2314 0FC2  
         ??_UpdateCurrentTime 0028                        i2l1196 060A                        i2l1188 058C  
                      i2l2092 08A0                        i2l2084 0860                        i2l2076 083C  
                      i2l2068 080C                        i2l1444 0D72                        i2l1452 0D92  
                      i2l1460 1098                        i2l2316 0FC6                        i2l2308 0FB6  
                      i2l2094 08B0                        i2l2086 0870                        i2l2078 0846  
                      i2l2350 078E                        i2l1446 0D7E                        i2l1438 0D4A  
                      i2l1462 10A6                        i2l1470 0F4E                        i2l2318 0FCA  
                      i2l2352 08D4                        i2l2088 0880                        i2l1448 0D8A  
                      i2l1464 10A8                        i2l1472 0F5E                        i2l2354 0AF6  
                      i2l2098 08C0                        i2l1458 108A                        i2l1474 0F62  
                      i2l1466 0F32                        i2l2348 0DA6                        i2l1476 0F6C  
                      i2l1468 0F40                        i2l1478 0F70                        i2l1920 0E5E  
                      i2l1842 1086                        i2l1834 1060                        i2l1930 0B86  
                      i2l1922 0E78                        i2l1836 107E                        i2l1932 0B9A  
                      i2l1924 0E88                        i2l1940 0E40                        i2l1854 105A  
                      i2l1846 1034                        i2l1934 0BBC                        i2l1926 0B52  
                      i2l1942 0EEC                        i2l1950 0EBE                        i2l1848 1052  
                      i2l1928 0B64                        i2l1936 0E16                        i2l1944 0F04  
                      i2l1952 0ECE                        i2l1970 0CB0                        i2l1938 0E30  
                      i2l1946 0F14                        i2l1980 0D18                        i2l1972 0CCC  
                      i2l1948 0EA6                        i2l1982 0D24                        i2l1974 0CD0  
                      i2l1966 0C90                        i2l1976 0CDC                        i2l1968 0C94  
                      i2l1978 0CEC                        _INTCON 000FF2                        _OSCCON 000FD3  
                      _AddBCD 1006                        i2u3_40 0568                        i2u3_41 0564  
                      i2u4_40 057C                        i2u4_41 0578                        i2u5_40 058C  
                      i2u5_41 0588                        i2u6_40 059C                        i2u6_41 0598  
                      i2u7_40 05B2                        i2u7_41 05AE                        _SSPADD 000FC8  
                      i2u8_40 05C2                        i2u8_41 05BE                        i2u9_40 05D2  
                      i2u9_41 05CE                        _SSPBUF 000FC9                     ??_Display 0029  
                  _WakeUpTime 0001                    _TargetTime 0030                  ?_TIMERconfig 001D  
           __end_of_MCUconfig 1104             __end_of_INTconfig 111A                   ?_BlinkDigit 001D  
                      _SubBCD 0FDA                        _WakeUp 0BF6               BlinkDigit@index 002A  
             i2SubBCD@Number1 001F               i2SubBCD@Number2 001D                        clear_0 0F98  
   __end_of_UpdateCurrentTime 0558           __size_of_TMR0enable 0006           __size_of_TMR1enable 0006  
                      isa$std 000001                  __pdataCOMRAM 0030                        tblptrh 000FF7  
                      tblptrl 000FF6                        tblptru 000FF8             __end_of_PWMconfig 10CC  
             ??_IncrementTime 0023      __end_of_TMR1interruption 10AC             ChangeTime@Address 001E  
                  __accesstop 0080       __end_of__initialization 0F9E                 ___rparam_used 000001  
               AddBCD@Number1 002A                 AddBCD@Number2 0028                     ?i2_AddBCD 001D  
              __pcstackCOMRAM 001D   __end_ofi2_UpdateCurrentTime 06A2           __size_of_ChangeTime 00A6  
                   ?i2_SubBCD 001D                     ?i2_WakeUp 001D                   _CurrentTime 001A  
                ??_GPIOconfig 0028           __size_of_BlinkDigit 005E        __size_of_DecrementTime 0046  
                     ?_AddBCD 0028     __size_of_INT0interruption 010A                       ?_SubBCD 0028  
                     ?_WakeUp 001D                    ??i2_AddBCD 001E            __end_of_GPIOconfig 10EA  
                     _CCP1CON 000FBD            Display@Lower_Hours 002A                    ??i2_SubBCD 001E  
  __size_of_UpdateCurrentTime 014A         IncrementTimeHour@Time 0021                    ??i2_WakeUp 0021  
                     _INTCON2 000FF1                       _INTCON3 000FF0                       i2u10_40 05E6  
                     i2u10_41 05E2                       i2u11_40 05FA                       i2u11_41 05F6  
                     i2u20_40 06A0                       i2u12_40 060A                       i2u20_41 069C  
                     i2u12_41 0606                       i2u13_40 061A                       i2u13_41 0616  
                     i2u14_40 062E                       i2u14_41 062A                       i2u15_40 0644  
                     i2u15_41 0640                       i2u16_40 0654                       i2u16_41 0650  
                     i2u17_40 066A                       i2u17_41 0666                       i2u18_40 067A  
                     i2u18_41 0676                       i2u19_40 0690                       i2u19_41 068C  
                     i2u70_40 1098                       i2u70_41 1094                       i2u71_40 10A6  
                     i2u71_41 10A2                       i2u72_40 0F40                       i2u72_41 0F3C  
                     _MCUinit 1128                       i2u73_40 0F4E                       i2u73_41 0F4A  
                     i2u66_40 0D38                       i2u74_40 0F5E                       i2u66_41 0D34  
                     i2u74_41 0F5A                       i2u67_40 0D46                       i2u67_41 0D42  
                     i2u68_40 0D60                       i2u68_41 0D5C                       i2u69_40 0D72  
                     i2u69_41 0D6E             DecrementTime@Time 0021               _ValveEnableLock 000B  
                     _SSPCON1 000FC6       __size_of_my_isr_routine 0FD2      __end_of_TMR3interruption 0F74  
                ??_TMR0enable 001D                  ??_TMR1enable 001D               __size_of_AddBCD 002C  
        Display@Lower_Minutes 002C                       _Display 092E     __size_of_INT1interruption 0146  
                     __Hparam 0000                       __Lparam 0000                   _ValveEnable 000C  
                   _I2Cconfig 1140          __size_of_TIMERconfig 000E               __size_of_SubBCD 002C  
             __size_of_WakeUp 009A                 _DecrementTime 0EEC                       __pcinit 0F74  
                     __ramtop 1000                       __ptext0 0012                       __ptext1 0BF6  
                     __ptext2 040E                       __ptext3 0FDA                       __ptext4 1006  
          __end_of_TMR0enable 1156                       __ptext5 1128                       __ptext6 092E  
                     __ptext7 10EA                       __ptext8 111A                       __ptext9 10AC  
          __end_of_TMR1enable 1150                     _T0CONbits 000FD5                     _T1CONbits 000FCD  
                   _T2CONbits 000FCA                   _WaterEnable 000E                  ??_ChangeTime 001E  
              __pintcode_body 0FAC             ?_TMR0interruption 001D          end_of_initialization 0F9E  
          ??_TMR0interruption 001D                 __Lmediumconst 0000                       int_func 0FAC  
   __size_of_INT2interruption 0146                  ??_BlinkDigit 0028                  i2AddBCD@temp 0020  
                  ?_I2Cconfig 001D                ?_DecrementTime 0021                     _MCUconfig 10EA  
                     postinc0 000FEE                       postinc2 000FDE                     _INTconfig 1104  
          Display@Upper_Hours 0029            __end_of_ChangeTime 0BF6                     _PORTCbits 000F82  
                   _TRISCbits 000F94            __end_of_BlinkDigit 0E16             ?_TMR1interruption 001D  
                   _PWMconfig 10AC            ??_TMR1interruption 001D                   _CCP1CONbits 000FBD  
            _INT0interruption 0A46                __end_of_AddBCD 1032             _DecrementTimeHour 0EA6  
          ?_DecrementTimeHour 0021                __end_of_SubBCD 1006                    ?_MCUconfig 001D  
              __end_of_WakeUp 0C90            _Blink_Second_Digit 0012                    ?_INTconfig 001D  
           __size_ofi2_AddBCD 002C            _UpdateTimePrescale 000A                 __pidataCOMRAM 1156  
         ??_DecrementTimeHour 0023             __size_ofi2_SubBCD 002C             __size_ofi2_WakeUp 009A  
         start_initialization 0F74                _my_isr_routine 0008         __end_of_IncrementTime 0EA6  
                    ??_AddBCD 0029                    ?_PWMconfig 001D     __end_of_DecrementTimeHour 0EEC  
            _INT1interruption 07E8               ??_DecrementTime 0023                      ??_SubBCD 0029  
                 ??_I2Cconfig 0028                      ??_WakeUp 002C                     _ValveTime 0014  
__size_ofi2_UpdateCurrentTime 014A                   __pbssCOMRAM 0001        __end_of_my_isr_routine 0FDA  
                    ?_MCUinit 001D             ?_TMR3interruption 001D            ??_TMR3interruption 001D  
                    ?_Display 0028             _Blink_First_Digit 0013                _UpdateTimeFlag 000F  
            _INT2interruption 06A2                    AddBCD@temp 002B                     __pintcode 0008  
                 ??_MCUconfig 0028                   ??_INTconfig 0028               i2AddBCD@Number1 001F  
             i2AddBCD@Number2 001D               ?_my_isr_routine 001D                Display@Minutes 0028  
                 ??_PWMconfig 0028    __size_of_DecrementTimeHour 0046                 ??_TIMERconfig 0028  
                    _PIE1bits 000F9D                      _PIE2bits 000FA0                      i2u130_40 0B62  
                    i2u130_41 0B5E                      i2u131_40 0B76                      i2u131_41 0B72  
                    i2u132_40 0B86                      i2u140_40 0F04                      i2u132_41 0B82  
                    i2u140_41 0F00                      i2u133_40 0B96                      i2u141_40 0EBE  
                    i2u133_41 0B92                      i2u141_41 0EBA                      i2u118_40 107E  
                    i2u134_40 0BAC                      i2u150_40 0804                      i2u118_41 107A  
                    i2u134_41 0BA8                      i2u150_41 0800                      i2u119_40 1052  
                    i2u143_40 0CB0                      i2u135_40 0BBC                      i2u151_40 06B0  
                    i2u119_41 104E                      i2u143_41 0CAC                      i2u135_41 0BB8  
                    i2u151_41 06AC                      i2u144_40 0CCC                      i2u136_40 0BCC  
                    i2u152_40 06BE                      i2u144_41 0CC8                      i2u136_41 0BC8  
                    i2u152_41 06BA                      i2u137_40 0BE2                      i2u129_40 0E78  
                    i2u137_41 0BDE                      i2u129_41 0E74                      i2u138_40 0BF4  
                    i2u138_41 0BF0                      i2u147_40 0A54                      i2u139_40 0E30  
                    i2u147_41 0A50                      i2u139_41 0E2C                      i2u148_40 0A62  
                    i2u148_41 0A5E                      i2u149_40 07F6                      i2u149_41 07F2  
                    _PIR1bits 000F9E                      _PIR2bits 000FA1                      i2_AddBCD 105E  
   __size_of_TMR0interruption 008E                      i2_SubBCD 1032                      i2_WakeUp 0C90  
    __end_of_INT0interruption 0B50              __size_of_MCUinit 000C                   _INTCON3bits 000FF0  
               SubBCD@Number1 002A                 SubBCD@Number2 0028              __size_of_Display 0118  
                    __Hrparam 0000                      __Lrparam 0000           __end_of_TIMERconfig 1128  
   __size_of_TMR1interruption 0022             _IncrementTimeHour 0E16      __end_of_INT1interruption 092E  
          ?_IncrementTimeHour 0021               _WaterEnableLock 000D                      __ptext10 1104  
                    __ptext11 1140                      __ptext20 0EEC                      __ptext12 10CC  
                    __ptext21 07E8                      __ptext13 0DB8                      __ptext30 114A  
                    __ptext22 0E16                      __ptext31 1150                      __ptext23 0E5E  
                    __ptext15 0F32                      __ptext32 1134                      __ptext24 0B50  
                    __ptext16 108A                      __ptext25 0A46                      __ptext17 0D2A  
                    __ptext26 0C90                      __ptext18 06A2                      __ptext27 0558  
                    __ptext19 0EA6                      __ptext28 1032                      __ptext29 105E  
         ??_IncrementTimeHour 0023                 __size_of_Buzz 000C                 __size_of_main 03FC  
         i2_UpdateCurrentTime 0558                      isa$xinst 000000                      int$flags 0033  
   __end_of_IncrementTimeHour 0E5E          ?i2_UpdateCurrentTime 001D                  _WateringTime 0017  
    __end_of_INT2interruption 07E8                    _INTCONbits 000FF2                    _GPIOconfig 10CC  
                i2SubBCD@temp 0020                ChangeTime@Time 001D                      intlevel2 0000  
        Display@Upper_Minutes 002B                   _TIMERconfig 111A                  Display@Hours 002D  
       __end_of_DecrementTime 0F32              _TMR0interruption 0D2A     __size_of_TMR3interruption 0042  
            ??_my_isr_routine 0026         ??i2_UpdateCurrentTime 001D        __size_of_IncrementTime 0048  
           IncrementTime@Time 0021                   _SSPCON2bits 000FC5                    _TMR0enable 1150  
                  _TMR1enable 114A  
