

Microchip MPLAB XC8 Assembler V2.32 build 20210201212658 
                                                                                               Sat Jul 24 18:20:02 2021

Microchip MPLAB XC8 C Compiler v2.32 (Free license) build 20210201212658 Og1 
     1                           	processor	18F2620
     2                           	fnconf	rparam,??,?,0
     3                           	pagewidth 120
     4                           	opt	flic
     5                           	psect	idataCOMRAM,global,class=CODE,delta=1,noexec
     6                           	psect	cinit,global,reloc=2,class=CODE,delta=1
     7                           	psect	bssCOMRAM,global,class=COMRAM,space=1,delta=1,lowdata,noexec
     8                           	psect	dataCOMRAM,global,class=COMRAM,space=1,delta=1,lowdata,noexec
     9                           	psect	cstackCOMRAM,global,class=COMRAM,space=1,delta=1,lowdata,noexec
    10                           	psect	text0,global,reloc=2,class=CODE,delta=1
    11                           	psect	text1,global,reloc=2,class=CODE,delta=1
    12                           	psect	text2,global,reloc=2,class=CODE,delta=1
    13                           	psect	text3,global,reloc=2,class=CODE,delta=1
    14                           	psect	text4,global,reloc=2,class=CODE,delta=1
    15                           	psect	text5,global,reloc=2,class=CODE,delta=1
    16                           	psect	text6,global,reloc=2,class=CODE,delta=1
    17                           	psect	text7,global,reloc=2,class=CODE,delta=1
    18                           	psect	text8,global,reloc=2,class=CODE,delta=1
    19                           	psect	text9,global,reloc=2,class=CODE,delta=1
    20                           	psect	text10,global,reloc=2,class=CODE,delta=1
    21                           	psect	text11,global,reloc=2,class=CODE,delta=1
    22                           	psect	text12,global,reloc=2,class=CODE,delta=1
    23                           	psect	text13,global,reloc=2,class=CODE,delta=1
    24                           	psect	intcode,global,reloc=2,class=CODE,delta=1
    25                           	psect	intcode_body,global,reloc=2,class=CODE,delta=1
    26                           	psect	text15,global,reloc=2,class=CODE,delta=1
    27                           	psect	text16,global,reloc=2,class=CODE,delta=1
    28                           	psect	text17,global,reloc=2,class=CODE,delta=1
    29                           	psect	text18,global,reloc=2,class=CODE,delta=1
    30                           	psect	text19,global,reloc=2,class=CODE,delta=1
    31                           	psect	text20,global,reloc=2,class=CODE,delta=1
    32                           	psect	text21,global,reloc=2,class=CODE,delta=1
    33                           	psect	text22,global,reloc=2,class=CODE,delta=1
    34                           	psect	text23,global,reloc=2,class=CODE,delta=1
    35                           	psect	text24,global,reloc=2,class=CODE,delta=1
    36                           	psect	text25,global,reloc=2,class=CODE,delta=1
    37                           	psect	text26,global,reloc=2,class=CODE,delta=1
    38                           	psect	text27,global,reloc=2,class=CODE,delta=1
    39                           	psect	text28,global,reloc=2,class=CODE,delta=1
    40                           	psect	text29,global,reloc=2,class=CODE,delta=1
    41                           	psect	text30,global,reloc=2,class=CODE,delta=1
    42                           	psect	intsave_regs,global,class=BIGRAM,space=1,delta=1,noexec
    43                           	psect	rparam,global,class=COMRAM,space=1,delta=1,noexec
    44                           	psect	temp,global,ovrld,common,class=COMRAM,space=1,delta=1
    45                           	psect	idloc,global,abs,ovrld,class=IDLOC,space=5,delta=1,noexec
    46                           	psect	config,global,abs,ovrld,class=CONFIG,space=4,delta=1,noexec
    47  0000                     
    48                           ; Version 2.20
    49                           ; Generated 12/02/2020 GMT
    50                           ; 
    51                           ; Copyright © 2020, Microchip Technology Inc. and its subsidiaries ("Microchip")
    52                           ; All rights reserved.
    53                           ; 
    54                           ; This software is developed by Microchip Technology Inc. and its subsidiaries ("Microch
      +                          ip").
    55                           ; 
    56                           ; Redistribution and use in source and binary forms, with or without modification, are
    57                           ; permitted provided that the following conditions are met:
    58                           ; 
    59                           ;     1. Redistributions of source code must retain the above copyright notice, this lis
      +                          t of
    60                           ;        conditions and the following disclaimer.
    61                           ; 
    62                           ;     2. Redistributions in binary form must reproduce the above copyright notice, this 
      +                          list
    63                           ;        of conditions and the following disclaimer in the documentation and/or other
    64                           ;        materials provided with the distribution.
    65                           ; 
    66                           ;     3. Microchip's name may not be used to endorse or promote products derived from th
      +                          is
    67                           ;        software without specific prior written permission.
    68                           ; 
    69                           ; THIS SOFTWARE IS PROVIDED BY MICROCHIP "AS IS" AND ANY EXPRESS OR IMPLIED WARRANTIES,
    70                           ; INCLUDING, BUT NOT LIMITED TO, THE IMPLIED WARRANTIES OF MERCHANTABILITY AND FITNESS F
      +                          OR
    71                           ; PURPOSE ARE DISCLAIMED.  IN NO EVENT SHALL MICROCHIP BE LIABLE FOR ANY DIRECT, INDIREC
      +                          T,
    72                           ; INCIDENTAL, SPECIAL, EXEMPLARY, OR CONSEQUENTIAL DAMAGES (INCLUDING BUT NOT LIMITED TO
    73                           ; PROCUREMENT OF SUBSTITUTE GOODS OR SERVICES; LOSS OF USE, DATA OR PROFITS; OR BUSINESS
    74                           ; INTERRUPTION) HOWSOEVER CAUSED AND ON ANY THEORY OF LIABILITY, WHETHER IN CONTRACT, ST
      +                          RICT
    75                           ; LIABILITY, OR TORT (INCLUDING NEGLIGENCE OR OTHERWISE) ARISING IN ANY WAY OUT OF THE U
      +                          SE OF
    76                           ; THIS SOFTWARE, EVEN IF ADVISED OF THE POSSIBILITY OF SUCH DAMAGE.
    77                           ; 
    78                           ; 
    79                           ; Code-generator required, PIC18F2620 Definitions
    80                           ; 
    81                           ; SFR Addresses
    82  0000                     
    83                           	psect	idataCOMRAM
    84  00118A                     __pidataCOMRAM:
    85                           	callstack 0
    86                           
    87                           ;initializer for _TargetTime
    88  00118A  00                 	db	0
    89  00118B  00                 	db	0
    90  00118C  12                 	db	18
    91  0000                     _TMR3	set	4018
    92  0000                     _SSPSTATbits	set	4039
    93  0000                     _SSPBUF	set	4041
    94  0000                     _SSPCON2bits	set	4037
    95  0000                     _LATB	set	3978
    96  0000                     _LATA	set	3977
    97  0000                     _T1CONbits	set	4045
    98  0000                     _T0CONbits	set	4053
    99  0000                     _PIR2bits	set	4001
   100  0000                     _PIR1bits	set	3998
   101  0000                     _OSCCON	set	4051
   102  0000                     _T2CONbits	set	4042
   103  0000                     _T2CON	set	4042
   104  0000                     _CCP1CON	set	4029
   105  0000                     _PR2	set	4043
   106  0000                     _INTCON3	set	4080
   107  0000                     _INTCON2	set	4081
   108  0000                     _PIE1	set	3997
   109  0000                     _PIE2	set	4000
   110  0000                     _INTCON	set	4082
   111  0000                     _T3CON	set	4017
   112  0000                     _T1CON	set	4045
   113  0000                     _T0CON	set	4053
   114  0000                     _SSPCON1	set	4038
   115  0000                     _SSPADD	set	4040
   116  0000                     _TRISCbits	set	3988
   117  0000                     _TRISB	set	3987
   118  0000                     _TRISA	set	3986
   119  0000                     _TRISC	set	3988
   120  0000                     _CCPR1L	set	4030
   121  0000                     _CCP1CONbits	set	4029
   122  0000                     _PORTCbits	set	3970
   123  0000                     _INTCON3bits	set	4080
   124  0000                     _INTCONbits	set	4082
   125  0000                     _PIE1bits	set	3997
   126  0000                     _PIE2bits	set	4000
   127  0000                     _ACKEN	set	32300
   128  0000                     _PEN	set	32298
   129  0000                     _SSPIF	set	31987
   130  0000                     _SEN	set	32296
   131                           
   132                           ; #config settings
   133                           
   134                           	psect	cinit
   135  000FA8                     __pcinit:
   136                           	callstack 0
   137  000FA8                     start_initialization:
   138                           	callstack 0
   139  000FA8                     __initialization:
   140                           	callstack 0
   141                           
   142                           ; Initialize objects allocated to COMRAM (3 bytes)
   143                           ; load TBLPTR registers with __pidataCOMRAM
   144  000FA8  0E8A               	movlw	low __pidataCOMRAM
   145  000FAA  6EF6               	movwf	tblptrl,c
   146  000FAC  0E11               	movlw	high __pidataCOMRAM
   147  000FAE  6EF7               	movwf	tblptrh,c
   148  000FB0  0E00               	movlw	low (__pidataCOMRAM shr (0+16))
   149  000FB2  6EF8               	movwf	tblptru,c
   150  000FB4  0009               	tblrd		*+	;fetch initializer
   151  000FB6  CFF5 F030          	movff	tablat,__pdataCOMRAM
   152  000FBA  0009               	tblrd		*+	;fetch initializer
   153  000FBC  CFF5 F031          	movff	tablat,__pdataCOMRAM+1
   154  000FC0  0009               	tblrd		*+	;fetch initializer
   155  000FC2  CFF5 F032          	movff	tablat,__pdataCOMRAM+2
   156                           
   157                           ; Clear objects allocated to COMRAM (28 bytes)
   158  000FC6  EE00  F001         	lfsr	0,__pbssCOMRAM
   159  000FCA  0E1C               	movlw	28
   160  000FCC                     clear_0:
   161  000FCC  6AEE               	clrf	postinc0,c
   162  000FCE  06E8               	decf	wreg,f,c
   163  000FD0  E1FD               	bnz	clear_0
   164  000FD2                     end_of_initialization:
   165                           	callstack 0
   166  000FD2                     __end_of__initialization:
   167                           	callstack 0
   168  000FD2  9033               	bcf	int$flags,0,c	;clear compiler interrupt flag (level 1)
   169  000FD4  9233               	bcf	int$flags,1,c	;clear compiler interrupt flag (level 2)
   170  000FD6  0E00               	movlw	low (__Lmediumconst shr (0+16))
   171  000FD8  6EF8               	movwf	tblptru,c
   172  000FDA  0100               	movlb	0
   173  000FDC  EF09  F000         	goto	_main	;jump to C main() function
   174                           
   175                           	psect	bssCOMRAM
   176  000001                     __pbssCOMRAM:
   177                           	callstack 0
   178  000001                     _WakeUpTime:
   179                           	callstack 0
   180  000001                     	ds	3
   181  000004                     _CurrentValveTime:
   182                           	callstack 0
   183  000004                     	ds	2
   184  000006                     _CurrentWateringTime:
   185                           	callstack 0
   186  000006                     	ds	2
   187  000008                     _LastSecond:
   188                           	callstack 0
   189  000008                     	ds	1
   190  000009                     _BuzzerFlag:
   191                           	callstack 0
   192  000009                     	ds	1
   193  00000A                     _UpdateTimePrescale:
   194                           	callstack 0
   195  00000A                     	ds	1
   196  00000B                     _ValveEnableLock:
   197                           	callstack 0
   198  00000B                     	ds	1
   199  00000C                     _ValveEnable:
   200                           	callstack 0
   201  00000C                     	ds	1
   202  00000D                     _WaterEnableLock:
   203                           	callstack 0
   204  00000D                     	ds	1
   205  00000E                     _WaterEnable:
   206                           	callstack 0
   207  00000E                     	ds	1
   208  00000F                     _UpdateTimeFlag:
   209                           	callstack 0
   210  00000F                     	ds	1
   211  000010                     _State:
   212                           	callstack 0
   213  000010                     	ds	1
   214  000011                     _Blink:
   215                           	callstack 0
   216  000011                     	ds	1
   217  000012                     _Blink_Second_Digit:
   218                           	callstack 0
   219  000012                     	ds	1
   220  000013                     _Blink_First_Digit:
   221                           	callstack 0
   222  000013                     	ds	1
   223  000014                     _ValveTime:
   224                           	callstack 0
   225  000014                     	ds	3
   226  000017                     _WateringTime:
   227                           	callstack 0
   228  000017                     	ds	3
   229  00001A                     _CurrentTime:
   230                           	callstack 0
   231  00001A                     	ds	3
   232                           
   233                           	psect	dataCOMRAM
   234  000030                     __pdataCOMRAM:
   235                           	callstack 0
   236  000030                     _TargetTime:
   237                           	callstack 0
   238  000030                     	ds	3
   239                           
   240                           	psect	cstackCOMRAM
   241  00001D                     __pcstackCOMRAM:
   242                           	callstack 0
   243  00001D                     ??_TMR0interruption:
   244  00001D                     ChangeTime@Time:
   245                           	callstack 0
   246  00001D                     i2AddBCD@Number2:
   247                           	callstack 0
   248  00001D                     i2SubBCD@Number2:
   249                           	callstack 0
   250                           
   251                           ; 1 bytes @ 0x0
   252  00001D                     	ds	1
   253  00001E                     ??i2_AddBCD:
   254  00001E                     ??i2_SubBCD:
   255  00001E                     ChangeTime@Address:
   256                           	callstack 0
   257                           
   258                           ; 1 bytes @ 0x1
   259  00001E                     	ds	1
   260  00001F                     i2AddBCD@Number1:
   261                           	callstack 0
   262  00001F                     i2SubBCD@Number1:
   263                           	callstack 0
   264                           
   265                           ; 1 bytes @ 0x2
   266  00001F                     	ds	1
   267  000020                     i2AddBCD@temp:
   268                           	callstack 0
   269  000020                     i2SubBCD@temp:
   270                           	callstack 0
   271                           
   272                           ; 1 bytes @ 0x3
   273  000020                     	ds	1
   274  000021                     ??i2_WakeUp:
   275  000021                     IncrementTime@Time:
   276                           	callstack 0
   277  000021                     IncrementTimeHour@Time:
   278                           	callstack 0
   279                           
   280                           ; 2 bytes @ 0x4
   281  000021                     	ds	1
   282  000022                     ??_INT0interruption:
   283  000022                     ??_INT2interruption:
   284                           
   285                           ; 1 bytes @ 0x5
   286  000022                     	ds	1
   287  000023                     
   288                           ; 1 bytes @ 0x6
   289  000023                     	ds	1
   290  000024                     ??_INT1interruption:
   291                           
   292                           ; 1 bytes @ 0x7
   293  000024                     	ds	2
   294  000026                     ??_my_isr_routine:
   295                           
   296                           ; 1 bytes @ 0x9
   297  000026                     	ds	2
   298  000028                     ??_BlinkDigit:
   299  000028                     AddBCD@Number2:
   300                           	callstack 0
   301  000028                     SubBCD@Number2:
   302                           	callstack 0
   303  000028                     Display@Minutes:
   304                           	callstack 0
   305                           
   306                           ; 1 bytes @ 0xB
   307  000028                     	ds	1
   308  000029                     ??_AddBCD:
   309  000029                     ??_SubBCD:
   310  000029                     Display@Upper_Hours:
   311                           	callstack 0
   312                           
   313                           ; 1 bytes @ 0xC
   314  000029                     	ds	1
   315  00002A                     BlinkDigit@index:
   316                           	callstack 0
   317  00002A                     AddBCD@Number1:
   318                           	callstack 0
   319  00002A                     SubBCD@Number1:
   320                           	callstack 0
   321  00002A                     Display@Lower_Hours:
   322                           	callstack 0
   323                           
   324                           ; 1 bytes @ 0xD
   325  00002A                     	ds	1
   326  00002B                     AddBCD@temp:
   327                           	callstack 0
   328  00002B                     SubBCD@temp:
   329                           	callstack 0
   330  00002B                     Display@Upper_Minutes:
   331                           	callstack 0
   332                           
   333                           ; 1 bytes @ 0xE
   334  00002B                     	ds	1
   335  00002C                     ??_WakeUp:
   336  00002C                     Display@Lower_Minutes:
   337                           	callstack 0
   338                           
   339                           ; 1 bytes @ 0xF
   340  00002C                     	ds	1
   341  00002D                     Display@Hours:
   342                           	callstack 0
   343                           
   344                           ; 1 bytes @ 0x10
   345  00002D                     	ds	1
   346  00002E                     ??_main:
   347                           
   348                           ; 1 bytes @ 0x11
   349  00002E                     	ds	2
   350                           
   351 ;;
   352 ;;Main: autosize = 0, tempsize = 2, incstack = 0, save=0
   353 ;;
   354 ;; *************** function _main *****************
   355 ;; Defined at:
   356 ;;		line 111 in file "main.c"
   357 ;; Parameters:    Size  Location     Type
   358 ;;		None
   359 ;; Auto vars:     Size  Location     Type
   360 ;;		None
   361 ;; Return value:  Size  Location     Type
   362 ;;                  1    wreg      void 
   363 ;; Registers used:
   364 ;;		wreg, status,2, status,0, cstack
   365 ;; Tracked objects:
   366 ;;		On entry : 0/0
   367 ;;		On exit  : 0/0
   368 ;;		Unchanged: 0/0
   369 ;; Data sizes:     COMRAM   BANK0   BANK1   BANK2   BANK3   BANK4   BANK5   BANK6   BANK7   BANK8   BANK9  BANK10  BANK1
      +1  BANK12  BANK13  BANK14  BANK15
   370 ;;      Params:         0       0       0       0       0       0       0       0       0       0       0       0       
      +0       0       0       0       0
   371 ;;      Locals:         0       0       0       0       0       0       0       0       0       0       0       0       
      +0       0       0       0       0
   372 ;;      Temps:          2       0       0       0       0       0       0       0       0       0       0       0       
      +0       0       0       0       0
   373 ;;      Totals:         2       0       0       0       0       0       0       0       0       0       0       0       
      +0       0       0       0       0
   374 ;;Total ram usage:        2 bytes
   375 ;; Hardware stack levels required when called: 6
   376 ;; This function calls:
   377 ;;		_AddBCD
   378 ;;		_BlinkDigit
   379 ;;		_Display
   380 ;;		_MCUconfig
   381 ;;		_MCUinit
   382 ;;		_UpdateCurrentTime
   383 ;;		_WakeUp
   384 ;; This function is called by:
   385 ;;		Startup code after reset
   386 ;; This function uses a non-reentrant model
   387 ;;
   388                           
   389                           	psect	text0
   390  000012                     __ptext0:
   391                           	callstack 0
   392  000012                     _main:
   393                           	callstack 25
   394  000012                     
   395                           ;main.c: 113:     MCUconfig();
   396  000012  EC8F  F008         	call	_MCUconfig	;wreg free
   397                           
   398                           ;main.c: 114:     MCUinit();
   399  000016  ECAE  F008         	call	_MCUinit	;wreg free
   400  00001A                     l2190:
   401                           
   402                           ;main.c: 118:         _delay((unsigned long)((1)*(4000000/4000.0)));
   403  00001A  0EC8               	movlw	200
   404  00001C                     u1887:
   405  00001C  D000               	nop2	
   406  00001E  2EE8               	decfsz	wreg,f,c
   407  000020  D7FD               	bra	u1887
   408                           
   409                           ;main.c: 120:         switch(State){
   410  000022  EFC6  F001         	goto	l2344
   411  000026                     l2192:
   412                           
   413                           ;main.c: 123:                 Display(CurrentTime[2], CurrentTime[1]);
   414  000026  C01B  F028         	movff	_CurrentTime+1,Display@Minutes
   415  00002A  501C               	movf	(_CurrentTime+2)^0,w,c
   416  00002C  ECF7  F004         	call	_Display
   417                           
   418                           ;main.c: 124:                 BlinkDigit(1);
   419  000030  0E01               	movlw	1
   420  000032  EC3C  F007         	call	_BlinkDigit
   421                           
   422                           ;main.c: 126:                 break;
   423  000036  EF0D  F000         	goto	l2190
   424  00003A                     l2194:
   425                           
   426                           ;main.c: 130:                 Display(CurrentTime[2], CurrentTime[1]);
   427  00003A  C01B  F028         	movff	_CurrentTime+1,Display@Minutes
   428  00003E  501C               	movf	(_CurrentTime+2)^0,w,c
   429  000040  ECF7  F004         	call	_Display
   430                           
   431                           ;main.c: 131:                 BlinkDigit(2);
   432  000044  0E02               	movlw	2
   433  000046  EC3C  F007         	call	_BlinkDigit
   434                           
   435                           ;main.c: 133:                 break;
   436  00004A  EF0D  F000         	goto	l2190
   437  00004E                     l170:
   438  00004E  0003               	sleep		;# 
   439                           
   440                           ;main.c: 139:                 break;
   441  000050  EF0D  F000         	goto	l2190
   442  000054                     l2196:
   443                           
   444                           ;main.c: 143:                 if(UpdateTimeFlag){
   445  000054  500F               	movf	_UpdateTimeFlag^0,w,c
   446  000056  B4D8               	btfsc	status,2,c
   447  000058  EF30  F000         	goto	u1651
   448  00005C  EF32  F000         	goto	u1650
   449  000060                     u1651:
   450  000060  EF50  F000         	goto	l2208
   451  000064                     u1650:
   452  000064                     
   453                           ;main.c: 145:                     UpdateCurrentTime();
   454  000064  EC0A  F003         	call	_UpdateCurrentTime	;wreg free
   455  000068                     
   456                           ;main.c: 147:                     if(CurrentTime[2] == TargetTime[2] && CurrentTime[1] =
      +                          = TargetTime[1]) {
   457  000068  5032               	movf	(_TargetTime+2)^0,w,c
   458  00006A  181C               	xorwf	(_CurrentTime+2)^0,w,c
   459  00006C  A4D8               	btfss	status,2,c
   460  00006E  EF3B  F000         	goto	u1661
   461  000072  EF3D  F000         	goto	u1660
   462  000076                     u1661:
   463  000076  EF4A  F000         	goto	l2206
   464  00007A                     u1660:
   465  00007A  5031               	movf	(_TargetTime+1)^0,w,c
   466  00007C  181B               	xorwf	(_CurrentTime+1)^0,w,c
   467  00007E  A4D8               	btfss	status,2,c
   468  000080  EF44  F000         	goto	u1671
   469  000084  EF46  F000         	goto	u1670
   470  000088                     u1671:
   471  000088  EF4A  F000         	goto	l2206
   472  00008C                     u1670:
   473  00008C                     
   474                           ;main.c: 148:                         WaterEnable = 1;
   475  00008C  0E01               	movlw	1
   476  00008E  6E0E               	movwf	_WaterEnable^0,c
   477                           
   478                           ;main.c: 149:                     }else{
   479  000090  EF4E  F000         	goto	l174
   480  000094                     l2206:
   481                           
   482                           ;main.c: 150:                         WaterEnable = 0;
   483  000094  0E00               	movlw	0
   484  000096  6E0E               	movwf	_WaterEnable^0,c
   485                           
   486                           ;main.c: 151:                         WaterEnableLock = 0;
   487  000098  0E00               	movlw	0
   488  00009A  6E0D               	movwf	_WaterEnableLock^0,c
   489  00009C                     l174:
   490                           
   491                           ;main.c: 154:                     UpdateTimeFlag = 0;
   492  00009C  0E00               	movlw	0
   493  00009E  6E0F               	movwf	_UpdateTimeFlag^0,c
   494  0000A0                     l2208:
   495                           
   496                           ;main.c: 157:                 Display(CurrentTime[2], CurrentTime[1]);
   497  0000A0  C01B  F028         	movff	_CurrentTime+1,Display@Minutes
   498  0000A4  501C               	movf	(_CurrentTime+2)^0,w,c
   499  0000A6  ECF7  F004         	call	_Display
   500  0000AA                     
   501                           ;main.c: 159:                 BlinkDigit(0);
   502  0000AA  0E00               	movlw	0
   503  0000AC  EC3C  F007         	call	_BlinkDigit
   504  0000B0                     
   505                           ;main.c: 161:                 if(WaterEnable == 1 && WaterEnableLock == 0) State = 10;
   506  0000B0  040E               	decf	_WaterEnable^0,w,c
   507  0000B2  A4D8               	btfss	status,2,c
   508  0000B4  EF5E  F000         	goto	u1681
   509  0000B8  EF60  F000         	goto	u1680
   510  0000BC                     u1681:
   511  0000BC  EF6C  F000         	goto	l2218
   512  0000C0                     u1680:
   513  0000C0  500D               	movf	_WaterEnableLock^0,w,c
   514  0000C2  A4D8               	btfss	status,2,c
   515  0000C4  EF66  F000         	goto	u1691
   516  0000C8  EF68  F000         	goto	u1690
   517  0000CC                     u1691:
   518  0000CC  EF6C  F000         	goto	l2218
   519  0000D0                     u1690:
   520  0000D0  0E0A               	movlw	10
   521  0000D2  6E10               	movwf	_State^0,c
   522  0000D4  EF0D  F000         	goto	l2190
   523  0000D8                     l2218:
   524  0000D8  501C               	movf	(_CurrentTime+2)^0,w,c
   525  0000DA  1803               	xorwf	(_WakeUpTime+2)^0,w,c
   526  0000DC  A4D8               	btfss	status,2,c
   527  0000DE  EF73  F000         	goto	u1701
   528  0000E2  EF75  F000         	goto	u1700
   529  0000E6                     u1701:
   530  0000E6  EF03  F002         	goto	l168
   531  0000EA                     u1700:
   532  0000EA  501B               	movf	(_CurrentTime+1)^0,w,c
   533  0000EC  1802               	xorwf	(_WakeUpTime+1)^0,w,c
   534  0000EE  A4D8               	btfss	status,2,c
   535  0000F0  EF7C  F000         	goto	u1711
   536  0000F4  EF7E  F000         	goto	u1710
   537  0000F8                     u1711:
   538  0000F8  EF03  F002         	goto	l168
   539  0000FC                     u1710:
   540  0000FC  0E02               	movlw	2
   541  0000FE  6E10               	movwf	_State^0,c
   542  000100  EF0D  F000         	goto	l2190
   543  000104                     l2224:
   544                           
   545                           ;main.c: 167:                 Display(TargetTime[2], TargetTime[1]);
   546  000104  C031  F028         	movff	_TargetTime+1,Display@Minutes
   547  000108  5032               	movf	(_TargetTime+2)^0,w,c
   548  00010A  ECF7  F004         	call	_Display
   549                           
   550                           ;main.c: 168:                 BlinkDigit(1);
   551  00010E  0E01               	movlw	1
   552  000110  EC3C  F007         	call	_BlinkDigit
   553                           
   554                           ;main.c: 169:                 break;
   555  000114  EF0D  F000         	goto	l2190
   556  000118                     l2226:
   557                           
   558                           ;main.c: 172:                 Display(TargetTime[2], TargetTime[1]);
   559  000118  C031  F028         	movff	_TargetTime+1,Display@Minutes
   560  00011C  5032               	movf	(_TargetTime+2)^0,w,c
   561  00011E  ECF7  F004         	call	_Display
   562                           
   563                           ;main.c: 173:                 BlinkDigit(2);
   564  000122  0E02               	movlw	2
   565  000124  EC3C  F007         	call	_BlinkDigit
   566                           
   567                           ;main.c: 174:                 break;
   568  000128  EF0D  F000         	goto	l2190
   569  00012C                     l2228:
   570                           
   571                           ;main.c: 177:                 Display(WateringTime[1], WateringTime[0]);
   572  00012C  C017  F028         	movff	_WateringTime,Display@Minutes
   573  000130  5018               	movf	(_WateringTime+1)^0,w,c
   574  000132  ECF7  F004         	call	_Display
   575                           
   576                           ;main.c: 178:                 BlinkDigit(1);
   577  000136  0E01               	movlw	1
   578  000138  EC3C  F007         	call	_BlinkDigit
   579                           
   580                           ;main.c: 179:                 break;
   581  00013C  EF0D  F000         	goto	l2190
   582  000140                     l2230:
   583                           
   584                           ;main.c: 182:                 Display(WateringTime[1], WateringTime[0]);
   585  000140  C017  F028         	movff	_WateringTime,Display@Minutes
   586  000144  5018               	movf	(_WateringTime+1)^0,w,c
   587  000146  ECF7  F004         	call	_Display
   588                           
   589                           ;main.c: 183:                 BlinkDigit(2);
   590  00014A  0E02               	movlw	2
   591  00014C  EC3C  F007         	call	_BlinkDigit
   592                           
   593                           ;main.c: 184:                 break;
   594  000150  EF0D  F000         	goto	l2190
   595  000154                     l2232:
   596                           
   597                           ;main.c: 187:                 Display(ValveTime[1], ValveTime[0]);
   598  000154  C014  F028         	movff	_ValveTime,Display@Minutes
   599  000158  5015               	movf	(_ValveTime+1)^0,w,c
   600  00015A  ECF7  F004         	call	_Display
   601                           
   602                           ;main.c: 188:                 BlinkDigit(1);
   603  00015E  0E01               	movlw	1
   604  000160  EC3C  F007         	call	_BlinkDigit
   605                           
   606                           ;main.c: 189:                 break;
   607  000164  EF0D  F000         	goto	l2190
   608  000168                     l2234:
   609                           
   610                           ;main.c: 192:                 Display(ValveTime[1], ValveTime[0]);
   611  000168  C014  F028         	movff	_ValveTime,Display@Minutes
   612  00016C  5015               	movf	(_ValveTime+1)^0,w,c
   613  00016E  ECF7  F004         	call	_Display
   614                           
   615                           ;main.c: 193:                 BlinkDigit(2);
   616  000172  0E02               	movlw	2
   617  000174  EC3C  F007         	call	_BlinkDigit
   618                           
   619                           ;main.c: 194:                 break;
   620  000178  EF0D  F000         	goto	l2190
   621  00017C                     l2236:
   622                           
   623                           ;main.c: 197:                 if(UpdateTimeFlag) {
   624  00017C  500F               	movf	_UpdateTimeFlag^0,w,c
   625  00017E  B4D8               	btfsc	status,2,c
   626  000180  EFC4  F000         	goto	u1721
   627  000184  EFC6  F000         	goto	u1720
   628  000188                     u1721:
   629  000188  EFF3  F000         	goto	l2254
   630  00018C                     u1720:
   631  00018C                     
   632                           ;main.c: 198:                     UpdateCurrentTime();
   633  00018C  EC0A  F003         	call	_UpdateCurrentTime	;wreg free
   634  000190                     
   635                           ;main.c: 199:                     if(CurrentTime[0] != LastSecond){
   636  000190  5008               	movf	_LastSecond^0,w,c
   637  000192  181A               	xorwf	_CurrentTime^0,w,c
   638  000194  B4D8               	btfsc	status,2,c
   639  000196  EFCF  F000         	goto	u1731
   640  00019A  EFD1  F000         	goto	u1730
   641  00019E                     u1731:
   642  00019E  EFF1  F000         	goto	l2252
   643  0001A2                     u1730:
   644  0001A2                     
   645                           ;main.c: 201:                         if(AddBCD(CurrentWateringTime[0], 0x01) > 0x59){
   646  0001A2  0E01               	movlw	1
   647  0001A4  6E28               	movwf	AddBCD@Number2^0,c
   648  0001A6  5006               	movf	_CurrentWateringTime^0,w,c
   649  0001A8  EC1D  F008         	call	_AddBCD
   650  0001AC  6E2E               	movwf	??_main^0,c
   651  0001AE  0E59               	movlw	89
   652  0001B0  642E               	cpfsgt	??_main^0,c
   653  0001B2  EFDD  F000         	goto	u1741
   654  0001B6  EFDF  F000         	goto	u1740
   655  0001BA                     u1741:
   656  0001BA  EFE9  F000         	goto	l2248
   657  0001BE                     u1740:
   658  0001BE                     
   659                           ;main.c: 202:                             CurrentWateringTime[1] = AddBCD(CurrentWaterin
      +                          gTime[1], 0x01);
   660  0001BE  0E01               	movlw	1
   661  0001C0  6E28               	movwf	AddBCD@Number2^0,c
   662  0001C2  5007               	movf	(_CurrentWateringTime+1)^0,w,c
   663  0001C4  EC1D  F008         	call	_AddBCD
   664  0001C8  6E07               	movwf	(_CurrentWateringTime+1)^0,c
   665  0001CA                     
   666                           ;main.c: 203:                             CurrentWateringTime[0] = 0x00;
   667  0001CA  0E00               	movlw	0
   668  0001CC  6E06               	movwf	_CurrentWateringTime^0,c
   669                           
   670                           ;main.c: 204:                         }else CurrentWateringTime[0] = AddBCD(CurrentWater
      +                          ingTime[0], 0x01);
   671  0001CE  EFEF  F000         	goto	l2250
   672  0001D2                     l2248:
   673  0001D2  0E01               	movlw	1
   674  0001D4  6E28               	movwf	AddBCD@Number2^0,c
   675  0001D6  5006               	movf	_CurrentWateringTime^0,w,c
   676  0001D8  EC1D  F008         	call	_AddBCD
   677  0001DC  6E06               	movwf	_CurrentWateringTime^0,c
   678  0001DE                     l2250:
   679                           
   680                           ;main.c: 206:                         LastSecond = CurrentTime[0];
   681  0001DE  C01A  F008         	movff	_CurrentTime,_LastSecond
   682  0001E2                     l2252:
   683                           
   684                           ;main.c: 209:                     UpdateTimeFlag = 0;
   685  0001E2  0E00               	movlw	0
   686  0001E4  6E0F               	movwf	_UpdateTimeFlag^0,c
   687  0001E6                     l2254:
   688                           
   689                           ;main.c: 211:                 PIE2bits.TMR3IE = 0;
   690  0001E6  92A0               	bcf	160,1,c	;volatile
   691  0001E8                     
   692                           ;main.c: 212:                 PIE1bits.TMR1IE = 0;
   693  0001E8  909D               	bcf	157,0,c	;volatile
   694  0001EA                     
   695                           ;main.c: 213:                 INTCONbits.INT0IE = 0;
   696  0001EA  98F2               	bcf	242,4,c	;volatile
   697  0001EC                     
   698                           ;main.c: 214:                 INTCON3bits.INT1IE = 0;
   699  0001EC  96F0               	bcf	240,3,c	;volatile
   700  0001EE                     
   701                           ;main.c: 215:                 INTCON3bits.INT2IE = 0;
   702  0001EE  98F0               	bcf	240,4,c	;volatile
   703  0001F0                     
   704                           ;main.c: 216:                 PORTCbits.RC0 = 0;
   705  0001F0  9082               	bcf	130,0,c	;volatile
   706  0001F2                     
   707                           ;main.c: 218:                 if(CurrentWateringTime[1] == 0x00 && CurrentWateringTime[0
      +                          ] == 0x01){
   708  0001F2  5007               	movf	(_CurrentWateringTime+1)^0,w,c
   709  0001F4  A4D8               	btfss	status,2,c
   710  0001F6  EFFF  F000         	goto	u1751
   711  0001FA  EF01  F001         	goto	u1750
   712  0001FE                     u1751:
   713  0001FE  EF0F  F001         	goto	l2274
   714  000202                     u1750:
   715  000202  0406               	decf	_CurrentWateringTime^0,w,c
   716  000204  A4D8               	btfss	status,2,c
   717  000206  EF07  F001         	goto	u1761
   718  00020A  EF09  F001         	goto	u1760
   719  00020E                     u1761:
   720  00020E  EF0F  F001         	goto	l2274
   721  000212                     u1760:
   722  000212                     
   723                           ;main.c: 219:                     CCP1CONbits.DC1B0 = 0;
   724  000212  98BD               	bcf	189,4,c	;volatile
   725                           
   726                           ;main.c: 220:                     CCP1CONbits.DC1B1 = 0;
   727  000214  9ABD               	bcf	189,5,c	;volatile
   728  000216                     
   729                           ;main.c: 221:                     CCPR1L = 0x19;
   730  000216  0E19               	movlw	25
   731  000218  6EBE               	movwf	190,c	;volatile
   732                           
   733                           ;main.c: 222:                 }else if(CurrentWateringTime[1] == 0x00 && CurrentWatering
      +                          Time[0] == 0x02){
   734  00021A  EF3A  F001         	goto	l2288
   735  00021E                     l2274:
   736  00021E  5007               	movf	(_CurrentWateringTime+1)^0,w,c
   737  000220  A4D8               	btfss	status,2,c
   738  000222  EF15  F001         	goto	u1771
   739  000226  EF17  F001         	goto	u1770
   740  00022A                     u1771:
   741  00022A  EF26  F001         	goto	l2282
   742  00022E                     u1770:
   743  00022E  0E02               	movlw	2
   744  000230  1806               	xorwf	_CurrentWateringTime^0,w,c
   745  000232  A4D8               	btfss	status,2,c
   746  000234  EF1E  F001         	goto	u1781
   747  000238  EF20  F001         	goto	u1780
   748  00023C                     u1781:
   749  00023C  EF26  F001         	goto	l2282
   750  000240                     u1780:
   751  000240                     
   752                           ;main.c: 223:                     CCP1CONbits.DC1B0 = 0;
   753  000240  98BD               	bcf	189,4,c	;volatile
   754                           
   755                           ;main.c: 224:                     CCP1CONbits.DC1B1 = 1;
   756  000242  8ABD               	bsf	189,5,c	;volatile
   757  000244                     
   758                           ;main.c: 225:                     CCPR1L = 0x25;
   759  000244  0E25               	movlw	37
   760  000246  6EBE               	movwf	190,c	;volatile
   761                           
   762                           ;main.c: 226:                 }else if(CurrentWateringTime[1] > 0x00 || CurrentWateringT
      +                          ime[0] >= 0x03){
   763  000248  EF3A  F001         	goto	l2288
   764  00024C                     l2282:
   765  00024C  5007               	movf	(_CurrentWateringTime+1)^0,w,c
   766  00024E  A4D8               	btfss	status,2,c
   767  000250  EF2C  F001         	goto	u1791
   768  000254  EF2E  F001         	goto	u1790
   769  000258                     u1791:
   770  000258  EF36  F001         	goto	l195
   771  00025C                     u1790:
   772  00025C  0E02               	movlw	2
   773  00025E  6406               	cpfsgt	_CurrentWateringTime^0,c
   774  000260  EF34  F001         	goto	u1801
   775  000264  EF36  F001         	goto	u1800
   776  000268                     u1801:
   777  000268  EF3A  F001         	goto	l2288
   778  00026C                     u1800:
   779  00026C                     l195:
   780                           
   781                           ;main.c: 227:                     CCP1CONbits.DC1B0 = 0;
   782  00026C  98BD               	bcf	189,4,c	;volatile
   783                           
   784                           ;main.c: 228:                     CCP1CONbits.DC1B1 = 0;
   785  00026E  9ABD               	bcf	189,5,c	;volatile
   786  000270                     
   787                           ;main.c: 229:                     CCPR1L = 0x32;
   788  000270  0E32               	movlw	50
   789  000272  6EBE               	movwf	190,c	;volatile
   790  000274                     l2288:
   791                           
   792                           ;main.c: 231:                 BlinkDigit(0);
   793  000274  0E00               	movlw	0
   794  000276  EC3C  F007         	call	_BlinkDigit
   795  00027A                     
   796                           ;main.c: 232:                 Display(CurrentWateringTime[1], CurrentWateringTime[0]);
   797  00027A  C006  F028         	movff	_CurrentWateringTime,Display@Minutes
   798  00027E  5007               	movf	(_CurrentWateringTime+1)^0,w,c
   799  000280  ECF7  F004         	call	_Display
   800  000284                     
   801                           ;main.c: 234:                 if(CurrentWateringTime[1] == WateringTime[1] && CurrentWat
      +                          eringTime[0] == WateringTime[0]){
   802  000284  5018               	movf	(_WateringTime+1)^0,w,c
   803  000286  1807               	xorwf	(_CurrentWateringTime+1)^0,w,c
   804  000288  A4D8               	btfss	status,2,c
   805  00028A  EF49  F001         	goto	u1811
   806  00028E  EF4B  F001         	goto	u1810
   807  000292                     u1811:
   808  000292  EF0D  F000         	goto	l2190
   809  000296                     u1810:
   810  000296  5017               	movf	_WateringTime^0,w,c
   811  000298  1806               	xorwf	_CurrentWateringTime^0,w,c
   812  00029A  A4D8               	btfss	status,2,c
   813  00029C  EF52  F001         	goto	u1821
   814  0002A0  EF54  F001         	goto	u1820
   815  0002A4                     u1821:
   816  0002A4  EF0D  F000         	goto	l2190
   817  0002A8                     u1820:
   818  0002A8                     
   819                           ;main.c: 235:                     CCP1CONbits.DC1B0 = 0;
   820  0002A8  98BD               	bcf	189,4,c	;volatile
   821                           
   822                           ;main.c: 236:                     CCP1CONbits.DC1B1 = 0;
   823  0002AA  9ABD               	bcf	189,5,c	;volatile
   824  0002AC                     
   825                           ;main.c: 237:                     CCPR1L = 0x00;
   826  0002AC  0E00               	movlw	0
   827  0002AE  6EBE               	movwf	190,c	;volatile
   828                           
   829                           ;main.c: 238:                     CurrentWateringTime[0] = 0x00;
   830  0002B0  0E00               	movlw	0
   831  0002B2  6E06               	movwf	_CurrentWateringTime^0,c
   832                           
   833                           ;main.c: 239:                     CurrentWateringTime[1] = 0x00;
   834  0002B4  0E00               	movlw	0
   835  0002B6  6E07               	movwf	(_CurrentWateringTime+1)^0,c
   836                           
   837                           ;main.c: 240:                     LastSecond = 0x00;
   838  0002B8  0E00               	movlw	0
   839  0002BA  6E08               	movwf	_LastSecond^0,c
   840                           
   841                           ;main.c: 241:                     State = 11;
   842  0002BC  0E0B               	movlw	11
   843  0002BE  6E10               	movwf	_State^0,c
   844  0002C0  EF0D  F000         	goto	l2190
   845  0002C4                     l2300:
   846                           
   847                           ;main.c: 246:                 if(UpdateTimeFlag) {
   848  0002C4  500F               	movf	_UpdateTimeFlag^0,w,c
   849  0002C6  B4D8               	btfsc	status,2,c
   850  0002C8  EF68  F001         	goto	u1831
   851  0002CC  EF6A  F001         	goto	u1830
   852  0002D0                     u1831:
   853  0002D0  EF97  F001         	goto	l2318
   854  0002D4                     u1830:
   855  0002D4                     
   856                           ;main.c: 247:                     UpdateCurrentTime();
   857  0002D4  EC0A  F003         	call	_UpdateCurrentTime	;wreg free
   858  0002D8                     
   859                           ;main.c: 248:                     if(CurrentTime[0] != LastSecond){
   860  0002D8  5008               	movf	_LastSecond^0,w,c
   861  0002DA  181A               	xorwf	_CurrentTime^0,w,c
   862  0002DC  B4D8               	btfsc	status,2,c
   863  0002DE  EF73  F001         	goto	u1841
   864  0002E2  EF75  F001         	goto	u1840
   865  0002E6                     u1841:
   866  0002E6  EF95  F001         	goto	l2316
   867  0002EA                     u1840:
   868  0002EA                     
   869                           ;main.c: 250:                         if(AddBCD(CurrentValveTime[0], 0x01) > 0x59){
   870  0002EA  0E01               	movlw	1
   871  0002EC  6E28               	movwf	AddBCD@Number2^0,c
   872  0002EE  5004               	movf	_CurrentValveTime^0,w,c
   873  0002F0  EC1D  F008         	call	_AddBCD
   874  0002F4  6E2E               	movwf	??_main^0,c
   875  0002F6  0E59               	movlw	89
   876  0002F8  642E               	cpfsgt	??_main^0,c
   877  0002FA  EF81  F001         	goto	u1851
   878  0002FE  EF83  F001         	goto	u1850
   879  000302                     u1851:
   880  000302  EF8D  F001         	goto	l2312
   881  000306                     u1850:
   882  000306                     
   883                           ;main.c: 251:                             CurrentValveTime[1] = AddBCD(CurrentValveTime[
      +                          1], 0x01);
   884  000306  0E01               	movlw	1
   885  000308  6E28               	movwf	AddBCD@Number2^0,c
   886  00030A  5005               	movf	(_CurrentValveTime+1)^0,w,c
   887  00030C  EC1D  F008         	call	_AddBCD
   888  000310  6E05               	movwf	(_CurrentValveTime+1)^0,c
   889  000312                     
   890                           ;main.c: 252:                             CurrentValveTime[0] = 0x00;
   891  000312  0E00               	movlw	0
   892  000314  6E04               	movwf	_CurrentValveTime^0,c
   893                           
   894                           ;main.c: 253:                         }else CurrentValveTime[0] = AddBCD(CurrentValveTim
      +                          e[0], 0x01);
   895  000316  EF93  F001         	goto	l2314
   896  00031A                     l2312:
   897  00031A  0E01               	movlw	1
   898  00031C  6E28               	movwf	AddBCD@Number2^0,c
   899  00031E  5004               	movf	_CurrentValveTime^0,w,c
   900  000320  EC1D  F008         	call	_AddBCD
   901  000324  6E04               	movwf	_CurrentValveTime^0,c
   902  000326                     l2314:
   903                           
   904                           ;main.c: 255:                         LastSecond = CurrentTime[0];
   905  000326  C01A  F008         	movff	_CurrentTime,_LastSecond
   906  00032A                     l2316:
   907                           
   908                           ;main.c: 258:                     UpdateTimeFlag = 0;
   909  00032A  0E00               	movlw	0
   910  00032C  6E0F               	movwf	_UpdateTimeFlag^0,c
   911  00032E                     l2318:
   912                           
   913                           ;main.c: 261:                 PORTCbits.RC0 = 0;
   914  00032E  9082               	bcf	130,0,c	;volatile
   915  000330                     
   916                           ;main.c: 264:                 PORTCbits.RC5 = 1;
   917  000330  8A82               	bsf	130,5,c	;volatile
   918  000332                     
   919                           ;main.c: 266:                 Display(CurrentValveTime[1], CurrentValveTime[0]);
   920  000332  C004  F028         	movff	_CurrentValveTime,Display@Minutes
   921  000336  5005               	movf	(_CurrentValveTime+1)^0,w,c
   922  000338  ECF7  F004         	call	_Display
   923  00033C                     
   924                           ;main.c: 268:                 if(CurrentValveTime[1] == ValveTime[1] && CurrentValveTime
      +                          [0] == ValveTime[0]){
   925  00033C  5015               	movf	(_ValveTime+1)^0,w,c
   926  00033E  1805               	xorwf	(_CurrentValveTime+1)^0,w,c
   927  000340  A4D8               	btfss	status,2,c
   928  000342  EFA5  F001         	goto	u1861
   929  000346  EFA7  F001         	goto	u1860
   930  00034A                     u1861:
   931  00034A  EF0D  F000         	goto	l2190
   932  00034E                     u1860:
   933  00034E  5014               	movf	_ValveTime^0,w,c
   934  000350  1804               	xorwf	_CurrentValveTime^0,w,c
   935  000352  A4D8               	btfss	status,2,c
   936  000354  EFAE  F001         	goto	u1871
   937  000358  EFB0  F001         	goto	u1870
   938  00035C                     u1871:
   939  00035C  EF0D  F000         	goto	l2190
   940  000360                     u1870:
   941  000360                     
   942                           ;main.c: 271:                     PORTCbits.RC5 = 0;
   943  000360  9A82               	bcf	130,5,c	;volatile
   944                           
   945                           ;main.c: 272:                     PIE2bits.TMR3IE = 1;
   946  000362  82A0               	bsf	160,1,c	;volatile
   947                           
   948                           ;main.c: 273:                     PIE1bits.TMR1IE = 1;
   949  000364  809D               	bsf	157,0,c	;volatile
   950                           
   951                           ;main.c: 274:                     INTCONbits.INT0IE = 1;
   952  000366  88F2               	bsf	242,4,c	;volatile
   953                           
   954                           ;main.c: 275:                     INTCON3bits.INT1IE = 1;
   955  000368  86F0               	bsf	240,3,c	;volatile
   956                           
   957                           ;main.c: 276:                     INTCON3bits.INT2IE = 1;
   958  00036A  88F0               	bsf	240,4,c	;volatile
   959  00036C                     
   960                           ;main.c: 278:                     WaterEnable = 0;
   961  00036C  0E00               	movlw	0
   962  00036E  6E0E               	movwf	_WaterEnable^0,c
   963                           
   964                           ;main.c: 279:                     WaterEnableLock = 1;
   965  000370  0E01               	movlw	1
   966  000372  6E0D               	movwf	_WaterEnableLock^0,c
   967  000374                     
   968                           ;main.c: 280:                     WakeUp();
   969  000374  EC5B  F006         	call	_WakeUp	;wreg free
   970  000378                     
   971                           ;main.c: 281:                     CurrentValveTime[0] = 0x00;
   972  000378  0E00               	movlw	0
   973  00037A  6E04               	movwf	_CurrentValveTime^0,c
   974  00037C                     
   975                           ;main.c: 282:                     CurrentValveTime[1] = 0x00;
   976  00037C  0E00               	movlw	0
   977  00037E  6E05               	movwf	(_CurrentValveTime+1)^0,c
   978  000380                     
   979                           ;main.c: 283:                     LastSecond = 0x00;
   980  000380  0E00               	movlw	0
   981  000382  6E08               	movwf	_LastSecond^0,c
   982  000384                     
   983                           ;main.c: 284:                     State = 3;
   984  000384  0E03               	movlw	3
   985  000386  6E10               	movwf	_State^0,c
   986  000388  EF0D  F000         	goto	l2190
   987  00038C                     l2344:
   988  00038C  5010               	movf	_State^0,w,c
   989  00038E  6E2E               	movwf	??_main^0,c
   990  000390  6A2F               	clrf	(??_main+1)^0,c
   991                           
   992                           ; Switch on 2 bytes has been partitioned into a top level switch of size 1, and 1 sub-sw
      +                          itches
   993                           ; Switch size 1, requested type "simple"
   994                           ; Number of cases is 1, Range of values is 0 to 0
   995                           ; switch strategies available:
   996                           ; Name         Instructions Cycles
   997                           ; simple_byte            4     3 (average)
   998                           ;	Chosen strategy is simple_byte
   999  000392  502F               	movf	(??_main+1)^0,w,c
  1000  000394  0A00               	xorlw	0	; case 0
  1001  000396  B4D8               	btfsc	status,2,c
  1002  000398  EFD0  F001         	goto	l2386
  1003  00039C  EF0D  F000         	goto	l2190
  1004  0003A0                     l2386:
  1005                           
  1006                           ; Switch size 1, requested type "simple"
  1007                           ; Number of cases is 12, Range of values is 0 to 11
  1008                           ; switch strategies available:
  1009                           ; Name         Instructions Cycles
  1010                           ; simple_byte           37    19 (average)
  1011                           ;	Chosen strategy is simple_byte
  1012  0003A0  502E               	movf	??_main^0,w,c
  1013  0003A2  0A00               	xorlw	0	; case 0
  1014  0003A4  B4D8               	btfsc	status,2,c
  1015  0003A6  EF13  F000         	goto	l2192
  1016  0003AA  0A01               	xorlw	1	; case 1
  1017  0003AC  B4D8               	btfsc	status,2,c
  1018  0003AE  EF1D  F000         	goto	l2194
  1019  0003B2  0A03               	xorlw	3	; case 2
  1020  0003B4  B4D8               	btfsc	status,2,c
  1021  0003B6  EF27  F000         	goto	l170
  1022  0003BA  0A01               	xorlw	1	; case 3
  1023  0003BC  B4D8               	btfsc	status,2,c
  1024  0003BE  EF2A  F000         	goto	l2196
  1025  0003C2  0A07               	xorlw	7	; case 4
  1026  0003C4  B4D8               	btfsc	status,2,c
  1027  0003C6  EF82  F000         	goto	l2224
  1028  0003CA  0A01               	xorlw	1	; case 5
  1029  0003CC  B4D8               	btfsc	status,2,c
  1030  0003CE  EF8C  F000         	goto	l2226
  1031  0003D2  0A03               	xorlw	3	; case 6
  1032  0003D4  B4D8               	btfsc	status,2,c
  1033  0003D6  EF96  F000         	goto	l2228
  1034  0003DA  0A01               	xorlw	1	; case 7
  1035  0003DC  B4D8               	btfsc	status,2,c
  1036  0003DE  EFA0  F000         	goto	l2230
  1037  0003E2  0A0F               	xorlw	15	; case 8
  1038  0003E4  B4D8               	btfsc	status,2,c
  1039  0003E6  EFAA  F000         	goto	l2232
  1040  0003EA  0A01               	xorlw	1	; case 9
  1041  0003EC  B4D8               	btfsc	status,2,c
  1042  0003EE  EFB4  F000         	goto	l2234
  1043  0003F2  0A03               	xorlw	3	; case 10
  1044  0003F4  B4D8               	btfsc	status,2,c
  1045  0003F6  EFBE  F000         	goto	l2236
  1046  0003FA  0A01               	xorlw	1	; case 11
  1047  0003FC  B4D8               	btfsc	status,2,c
  1048  0003FE  EF62  F001         	goto	l2300
  1049  000402  EF0D  F000         	goto	l2190
  1050  000406                     l168:
  1051  000406  EF0D  F000         	goto	l2190
  1052  00040A  EF07  F000         	goto	start
  1053  00040E                     __end_of_main:
  1054                           	callstack 0
  1055                           
  1056 ;; *************** function _WakeUp *****************
  1057 ;; Defined at:
  1058 ;;		line 658 in file "main.c"
  1059 ;; Parameters:    Size  Location     Type
  1060 ;;		None
  1061 ;; Auto vars:     Size  Location     Type
  1062 ;;		None
  1063 ;; Return value:  Size  Location     Type
  1064 ;;                  1    wreg      void 
  1065 ;; Registers used:
  1066 ;;		wreg, status,2, status,0, cstack
  1067 ;; Tracked objects:
  1068 ;;		On entry : 0/0
  1069 ;;		On exit  : 0/0
  1070 ;;		Unchanged: 0/0
  1071 ;; Data sizes:     COMRAM   BANK0   BANK1   BANK2   BANK3   BANK4   BANK5   BANK6   BANK7   BANK8   BANK9  BANK10  BANK1
      +1  BANK12  BANK13  BANK14  BANK15
  1072 ;;      Params:         0       0       0       0       0       0       0       0       0       0       0       0       
      +0       0       0       0       0
  1073 ;;      Locals:         0       0       0       0       0       0       0       0       0       0       0       0       
      +0       0       0       0       0
  1074 ;;      Temps:          1       0       0       0       0       0       0       0       0       0       0       0       
      +0       0       0       0       0
  1075 ;;      Totals:         1       0       0       0       0       0       0       0       0       0       0       0       
      +0       0       0       0       0
  1076 ;;Total ram usage:        1 bytes
  1077 ;; Hardware stack levels used: 1
  1078 ;; Hardware stack levels required when called: 5
  1079 ;; This function calls:
  1080 ;;		_AddBCD
  1081 ;;		_SubBCD
  1082 ;;		_UpdateCurrentTime
  1083 ;; This function is called by:
  1084 ;;		_main
  1085 ;; This function uses a non-reentrant model
  1086 ;;
  1087                           
  1088                           	psect	text1
  1089  000CB6                     __ptext1:
  1090                           	callstack 0
  1091  000CB6                     _WakeUp:
  1092                           	callstack 25
  1093  000CB6                     
  1094                           ;main.c: 659:     UpdateCurrentTime();
  1095  000CB6  EC0A  F003         	call	_UpdateCurrentTime	;wreg free
  1096  000CBA                     
  1097                           ;main.c: 661:     if (AddBCD(CurrentTime[1], 0x02) > 0x59) {
  1098  000CBA  0E02               	movlw	2
  1099  000CBC  6E28               	movwf	AddBCD@Number2^0,c
  1100  000CBE  501B               	movf	(_CurrentTime+1)^0,w,c
  1101  000CC0  EC1D  F008         	call	_AddBCD
  1102  000CC4  6E2C               	movwf	??_WakeUp^0,c
  1103  000CC6  0E59               	movlw	89
  1104  000CC8  642C               	cpfsgt	??_WakeUp^0,c
  1105  000CCA  EF69  F006         	goto	u1491
  1106  000CCE  EF6B  F006         	goto	u1490
  1107  000CD2                     u1491:
  1108  000CD2  EF9D  F006         	goto	l318
  1109  000CD6                     u1490:
  1110  000CD6                     
  1111                           ;main.c: 662:         if(AddBCD(CurrentTime[1], 0x01) > 0x23){
  1112  000CD6  0E01               	movlw	1
  1113  000CD8  6E28               	movwf	AddBCD@Number2^0,c
  1114  000CDA  501B               	movf	(_CurrentTime+1)^0,w,c
  1115  000CDC  EC1D  F008         	call	_AddBCD
  1116  000CE0  6E2C               	movwf	??_WakeUp^0,c
  1117  000CE2  0E23               	movlw	35
  1118  000CE4  642C               	cpfsgt	??_WakeUp^0,c
  1119  000CE6  EF77  F006         	goto	u1501
  1120  000CEA  EF79  F006         	goto	u1500
  1121  000CEE                     u1501:
  1122  000CEE  EF89  F006         	goto	l2008
  1123  000CF2                     u1500:
  1124  000CF2                     
  1125                           ;main.c: 663:             WakeUpTime[2] = 0x00;
  1126  000CF2  0E00               	movlw	0
  1127  000CF4  6E03               	movwf	(_WakeUpTime+2)^0,c
  1128  000CF6                     
  1129                           ;main.c: 664:             WakeUpTime[1] = AddBCD(CurrentTime[1], 0x02);
  1130  000CF6  0E02               	movlw	2
  1131  000CF8  6E28               	movwf	AddBCD@Number2^0,c
  1132  000CFA  501B               	movf	(_CurrentTime+1)^0,w,c
  1133  000CFC  EC1D  F008         	call	_AddBCD
  1134  000D00  6E02               	movwf	(_WakeUpTime+1)^0,c
  1135  000D02                     
  1136                           ;main.c: 665:             WakeUpTime[1] = SubBCD(CurrentTime[1], 0x60);
  1137  000D02  0E60               	movlw	96
  1138  000D04  6E28               	movwf	SubBCD@Number2^0,c
  1139  000D06  501B               	movf	(_CurrentTime+1)^0,w,c
  1140  000D08  EC07  F008         	call	_SubBCD
  1141  000D0C  6E02               	movwf	(_WakeUpTime+1)^0,c
  1142                           
  1143                           ;main.c: 666:         }else{
  1144  000D0E  EFA5  F006         	goto	l2012
  1145  000D12                     l2008:
  1146                           
  1147                           ;main.c: 667:             WakeUpTime[2] = AddBCD(CurrentTime[2], 0x01);
  1148  000D12  0E01               	movlw	1
  1149  000D14  6E28               	movwf	AddBCD@Number2^0,c
  1150  000D16  501C               	movf	(_CurrentTime+2)^0,w,c
  1151  000D18  EC1D  F008         	call	_AddBCD
  1152  000D1C  6E03               	movwf	(_WakeUpTime+2)^0,c
  1153                           
  1154                           ;main.c: 668:             WakeUpTime[1] = AddBCD(CurrentTime[1], 0x02);
  1155  000D1E  0E02               	movlw	2
  1156  000D20  6E28               	movwf	AddBCD@Number2^0,c
  1157  000D22  501B               	movf	(_CurrentTime+1)^0,w,c
  1158  000D24  EC1D  F008         	call	_AddBCD
  1159  000D28  6E02               	movwf	(_WakeUpTime+1)^0,c
  1160                           
  1161                           ;main.c: 669:             WakeUpTime[1] = SubBCD(CurrentTime[1], 0x60);
  1162  000D2A  0E60               	movlw	96
  1163  000D2C  6E28               	movwf	SubBCD@Number2^0,c
  1164  000D2E  501B               	movf	(_CurrentTime+1)^0,w,c
  1165  000D30  EC07  F008         	call	_SubBCD
  1166  000D34  6E02               	movwf	(_WakeUpTime+1)^0,c
  1167  000D36  EFA5  F006         	goto	l2012
  1168  000D3A                     l318:
  1169                           
  1170                           ;main.c: 672:         WakeUpTime[2] = CurrentTime[2];
  1171  000D3A  C01C  F003         	movff	_CurrentTime+2,_WakeUpTime+2
  1172  000D3E                     
  1173                           ;main.c: 673:         WakeUpTime[1] = AddBCD(CurrentTime[1], 0x02);
  1174  000D3E  0E02               	movlw	2
  1175  000D40  6E28               	movwf	AddBCD@Number2^0,c
  1176  000D42  501B               	movf	(_CurrentTime+1)^0,w,c
  1177  000D44  EC1D  F008         	call	_AddBCD
  1178  000D48  6E02               	movwf	(_WakeUpTime+1)^0,c
  1179  000D4A                     l2012:
  1180                           
  1181                           ;main.c: 675:     UpdateTimeFlag = 1;
  1182  000D4A  0E01               	movlw	1
  1183  000D4C  6E0F               	movwf	_UpdateTimeFlag^0,c
  1184  000D4E  0012               	return		;funcret
  1185  000D50                     __end_of_WakeUp:
  1186                           	callstack 0
  1187                           
  1188 ;; *************** function _UpdateCurrentTime *****************
  1189 ;; Defined at:
  1190 ;;		line 865 in file "main.c"
  1191 ;; Parameters:    Size  Location     Type
  1192 ;;		None
  1193 ;; Auto vars:     Size  Location     Type
  1194 ;;		None
  1195 ;; Return value:  Size  Location     Type
  1196 ;;                  1    wreg      void 
  1197 ;; Registers used:
  1198 ;;		wreg, status,2
  1199 ;; Tracked objects:
  1200 ;;		On entry : 0/0
  1201 ;;		On exit  : 0/0
  1202 ;;		Unchanged: 0/0
  1203 ;; Data sizes:     COMRAM   BANK0   BANK1   BANK2   BANK3   BANK4   BANK5   BANK6   BANK7   BANK8   BANK9  BANK10  BANK1
      +1  BANK12  BANK13  BANK14  BANK15
  1204 ;;      Params:         0       0       0       0       0       0       0       0       0       0       0       0       
      +0       0       0       0       0
  1205 ;;      Locals:         0       0       0       0       0       0       0       0       0       0       0       0       
      +0       0       0       0       0
  1206 ;;      Temps:          0       0       0       0       0       0       0       0       0       0       0       0       
      +0       0       0       0       0
  1207 ;;      Totals:         0       0       0       0       0       0       0       0       0       0       0       0       
      +0       0       0       0       0
  1208 ;;Total ram usage:        0 bytes
  1209 ;; Hardware stack levels used: 1
  1210 ;; Hardware stack levels required when called: 4
  1211 ;; This function calls:
  1212 ;;		Nothing
  1213 ;; This function is called by:
  1214 ;;		_main
  1215 ;;		_WakeUp
  1216 ;; This function uses a non-reentrant model
  1217 ;;
  1218                           
  1219                           	psect	text2
  1220  000614                     __ptext2:
  1221                           	callstack 0
  1222  000614                     _UpdateCurrentTime:
  1223                           	callstack 25
  1224  000614                     
  1225                           ;main.c: 866:     SSPCON2bits.SEN = 1;
  1226  000614  80C5               	bsf	197,0,c	;volatile
  1227  000616                     l438:
  1228  000616  B0C5               	btfsc	4037,0,c	;volatile
  1229  000618  EF10  F003         	goto	u291
  1230  00061C  EF12  F003         	goto	u290
  1231  000620                     u291:
  1232  000620  EF0B  F003         	goto	l438
  1233  000624                     u290:
  1234  000624                     
  1235                           ;main.c: 868:     PIR1bits.SSPIF = 0;
  1236  000624  969E               	bcf	158,3,c	;volatile
  1237  000626                     
  1238                           ;main.c: 870:     SSPBUF = 0xD0;
  1239  000626  0ED0               	movlw	208
  1240  000628  6EC9               	movwf	201,c	;volatile
  1241  00062A                     l441:
  1242  00062A  A69E               	btfss	3998,3,c	;volatile
  1243  00062C  EF1A  F003         	goto	u301
  1244  000630  EF1C  F003         	goto	u300
  1245  000634                     u301:
  1246  000634  EF15  F003         	goto	l441
  1247  000638                     u300:
  1248  000638                     
  1249                           ;main.c: 872:     PIR1bits.SSPIF = 0;
  1250  000638  969E               	bcf	158,3,c	;volatile
  1251                           
  1252                           ;main.c: 873:     if (SSPCON2bits.ACKSTAT){
  1253  00063A  ACC5               	btfss	197,6,c	;volatile
  1254  00063C  EF22  F003         	goto	u311
  1255  000640  EF24  F003         	goto	u310
  1256  000644                     u311:
  1257  000644  EF2E  F003         	goto	l1256
  1258  000648                     u310:
  1259  000648                     
  1260                           ;main.c: 874:         SSPCON2bits.PEN = 1;
  1261  000648  84C5               	bsf	197,2,c	;volatile
  1262  00064A                     l445:
  1263  00064A  B4C5               	btfsc	4037,2,c	;volatile
  1264  00064C  EF2A  F003         	goto	u321
  1265  000650  EF2C  F003         	goto	u320
  1266  000654                     u321:
  1267  000654  EF25  F003         	goto	l445
  1268  000658                     u320:
  1269  000658  EFAE  F003         	goto	l448
  1270  00065C                     l1256:
  1271                           
  1272                           ;main.c: 879:     SSPBUF = 0;
  1273  00065C  0E00               	movlw	0
  1274  00065E  6EC9               	movwf	201,c	;volatile
  1275  000660                     l449:
  1276  000660  A69E               	btfss	3998,3,c	;volatile
  1277  000662  EF35  F003         	goto	u331
  1278  000666  EF37  F003         	goto	u330
  1279  00066A                     u331:
  1280  00066A  EF30  F003         	goto	l449
  1281  00066E                     u330:
  1282  00066E                     
  1283                           ;main.c: 881:     PIR1bits.SSPIF = 0;
  1284  00066E  969E               	bcf	158,3,c	;volatile
  1285                           
  1286                           ;main.c: 882:     if (SSPCON2bits.ACKSTAT){
  1287  000670  ACC5               	btfss	197,6,c	;volatile
  1288  000672  EF3D  F003         	goto	u341
  1289  000676  EF3F  F003         	goto	u340
  1290  00067A                     u341:
  1291  00067A  EF49  F003         	goto	l452
  1292  00067E                     u340:
  1293  00067E                     
  1294                           ;main.c: 883:         SSPCON2bits.PEN = 1;
  1295  00067E  84C5               	bsf	197,2,c	;volatile
  1296  000680                     l453:
  1297  000680  B4C5               	btfsc	4037,2,c	;volatile
  1298  000682  EF45  F003         	goto	u351
  1299  000686  EF47  F003         	goto	u350
  1300  00068A                     u351:
  1301  00068A  EF40  F003         	goto	l453
  1302  00068E                     u350:
  1303  00068E  EFAE  F003         	goto	l448
  1304  000692                     l452:
  1305                           
  1306                           ;main.c: 888:     SSPCON2bits.RSEN = 1;
  1307  000692  82C5               	bsf	197,1,c	;volatile
  1308  000694                     l456:
  1309  000694  B2C5               	btfsc	197,1,c	;volatile
  1310  000696  EF4F  F003         	goto	u361
  1311  00069A  EF51  F003         	goto	u360
  1312  00069E                     u361:
  1313  00069E  EF4A  F003         	goto	l456
  1314  0006A2                     u360:
  1315  0006A2                     
  1316                           ;main.c: 890:     PIR1bits.SSPIF = 0;
  1317  0006A2  969E               	bcf	158,3,c	;volatile
  1318  0006A4                     
  1319                           ;main.c: 892:     SSPBUF = 0xD1;
  1320  0006A4  0ED1               	movlw	209
  1321  0006A6  6EC9               	movwf	201,c	;volatile
  1322  0006A8                     l459:
  1323  0006A8  A69E               	btfss	3998,3,c	;volatile
  1324  0006AA  EF59  F003         	goto	u371
  1325  0006AE  EF5B  F003         	goto	u370
  1326  0006B2                     u371:
  1327  0006B2  EF54  F003         	goto	l459
  1328  0006B6                     u370:
  1329  0006B6                     
  1330                           ;main.c: 894:     PIR1bits.SSPIF = 0;
  1331  0006B6  969E               	bcf	158,3,c	;volatile
  1332                           
  1333                           ;main.c: 895:     if (SSPCON2bits.ACKSTAT){
  1334  0006B8  ACC5               	btfss	197,6,c	;volatile
  1335  0006BA  EF61  F003         	goto	u381
  1336  0006BE  EF63  F003         	goto	u380
  1337  0006C2                     u381:
  1338  0006C2  EF6D  F003         	goto	l462
  1339  0006C6                     u380:
  1340  0006C6                     
  1341                           ;main.c: 896:         SSPCON2bits.PEN = 1;
  1342  0006C6  84C5               	bsf	197,2,c	;volatile
  1343  0006C8                     l463:
  1344  0006C8  B4C5               	btfsc	4037,2,c	;volatile
  1345  0006CA  EF69  F003         	goto	u391
  1346  0006CE  EF6B  F003         	goto	u390
  1347  0006D2                     u391:
  1348  0006D2  EF64  F003         	goto	l463
  1349  0006D6                     u390:
  1350  0006D6  EFAE  F003         	goto	l448
  1351  0006DA                     l462:
  1352                           
  1353                           ;main.c: 901:     SSPCON2bits.RCEN = 1;
  1354  0006DA  86C5               	bsf	197,3,c	;volatile
  1355  0006DC                     l466:
  1356  0006DC  A0C7               	btfss	199,0,c	;volatile
  1357  0006DE  EF73  F003         	goto	u401
  1358  0006E2  EF75  F003         	goto	u400
  1359  0006E6                     u401:
  1360  0006E6  EF6E  F003         	goto	l466
  1361  0006EA                     u400:
  1362  0006EA                     
  1363                           ;main.c: 903:     CurrentTime[0] = SSPBUF;
  1364  0006EA  CFC9 F01A          	movff	4041,_CurrentTime	;volatile
  1365                           
  1366                           ;main.c: 905:     SSPCON2bits.ACKDT = 0;
  1367  0006EE  9AC5               	bcf	197,5,c	;volatile
  1368                           
  1369                           ;main.c: 906:     SSPCON2bits.ACKEN = 1;
  1370  0006F0  88C5               	bsf	197,4,c	;volatile
  1371  0006F2                     l469:
  1372  0006F2  B8C5               	btfsc	4037,4,c	;volatile
  1373  0006F4  EF7E  F003         	goto	u411
  1374  0006F8  EF80  F003         	goto	u410
  1375  0006FC                     u411:
  1376  0006FC  EF79  F003         	goto	l469
  1377  000700                     u410:
  1378  000700                     
  1379                           ;main.c: 909:     SSPCON2bits.RCEN = 1;
  1380  000700  86C5               	bsf	197,3,c	;volatile
  1381  000702                     l472:
  1382  000702  A0C7               	btfss	199,0,c	;volatile
  1383  000704  EF86  F003         	goto	u421
  1384  000708  EF88  F003         	goto	u420
  1385  00070C                     u421:
  1386  00070C  EF81  F003         	goto	l472
  1387  000710                     u420:
  1388  000710                     
  1389                           ;main.c: 911:     CurrentTime[1] = SSPBUF;
  1390  000710  CFC9 F01B          	movff	4041,_CurrentTime+1	;volatile
  1391                           
  1392                           ;main.c: 913:     SSPCON2bits.ACKDT = 0;
  1393  000714  9AC5               	bcf	197,5,c	;volatile
  1394                           
  1395                           ;main.c: 914:     SSPCON2bits.ACKEN = 1;
  1396  000716  88C5               	bsf	197,4,c	;volatile
  1397  000718                     l475:
  1398  000718  B8C5               	btfsc	4037,4,c	;volatile
  1399  00071A  EF91  F003         	goto	u431
  1400  00071E  EF93  F003         	goto	u430
  1401  000722                     u431:
  1402  000722  EF8C  F003         	goto	l475
  1403  000726                     u430:
  1404  000726                     
  1405                           ;main.c: 917:     SSPCON2bits.RCEN = 1;
  1406  000726  86C5               	bsf	197,3,c	;volatile
  1407  000728                     l478:
  1408  000728  A0C7               	btfss	199,0,c	;volatile
  1409  00072A  EF99  F003         	goto	u441
  1410  00072E  EF9B  F003         	goto	u440
  1411  000732                     u441:
  1412  000732  EF94  F003         	goto	l478
  1413  000736                     u440:
  1414  000736                     
  1415                           ;main.c: 919:     CurrentTime[2] = SSPBUF;
  1416  000736  CFC9 F01C          	movff	4041,_CurrentTime+2	;volatile
  1417                           
  1418                           ;main.c: 921:     SSPCON2bits.ACKDT = 1;
  1419  00073A  8AC5               	bsf	197,5,c	;volatile
  1420                           
  1421                           ;main.c: 922:     SSPCON2bits.ACKEN = 1;
  1422  00073C  88C5               	bsf	197,4,c	;volatile
  1423  00073E                     l481:
  1424  00073E  B8C5               	btfsc	4037,4,c	;volatile
  1425  000740  EFA4  F003         	goto	u451
  1426  000744  EFA6  F003         	goto	u450
  1427  000748                     u451:
  1428  000748  EF9F  F003         	goto	l481
  1429  00074C                     u450:
  1430  00074C                     
  1431                           ;main.c: 925:     SSPCON2bits.PEN = 1;
  1432  00074C  84C5               	bsf	197,2,c	;volatile
  1433  00074E                     l484:
  1434  00074E  B4C5               	btfsc	4037,2,c	;volatile
  1435  000750  EFAC  F003         	goto	u461
  1436  000754  EFAE  F003         	goto	u460
  1437  000758                     u461:
  1438  000758  EFA7  F003         	goto	l484
  1439  00075C                     u460:
  1440  00075C                     l448:
  1441  00075C  0012               	return		;funcret
  1442  00075E                     __end_of_UpdateCurrentTime:
  1443                           	callstack 0
  1444                           
  1445 ;; *************** function _SubBCD *****************
  1446 ;; Defined at:
  1447 ;;		line 720 in file "main.c"
  1448 ;; Parameters:    Size  Location     Type
  1449 ;;  Number1         1    wreg     unsigned char 
  1450 ;;  Number2         1   11[COMRAM] unsigned char 
  1451 ;; Auto vars:     Size  Location     Type
  1452 ;;  Number1         1   13[COMRAM] unsigned char 
  1453 ;;  temp            1   14[COMRAM] unsigned char 
  1454 ;; Return value:  Size  Location     Type
  1455 ;;                  1    wreg      unsigned char 
  1456 ;; Registers used:
  1457 ;;		wreg, status,2, status,0
  1458 ;; Tracked objects:
  1459 ;;		On entry : 0/0
  1460 ;;		On exit  : 0/0
  1461 ;;		Unchanged: 0/0
  1462 ;; Data sizes:     COMRAM   BANK0   BANK1   BANK2   BANK3   BANK4   BANK5   BANK6   BANK7   BANK8   BANK9  BANK10  BANK1
      +1  BANK12  BANK13  BANK14  BANK15
  1463 ;;      Params:         1       0       0       0       0       0       0       0       0       0       0       0       
      +0       0       0       0       0
  1464 ;;      Locals:         2       0       0       0       0       0       0       0       0       0       0       0       
      +0       0       0       0       0
  1465 ;;      Temps:          1       0       0       0       0       0       0       0       0       0       0       0       
      +0       0       0       0       0
  1466 ;;      Totals:         4       0       0       0       0       0       0       0       0       0       0       0       
      +0       0       0       0       0
  1467 ;;Total ram usage:        4 bytes
  1468 ;; Hardware stack levels used: 1
  1469 ;; Hardware stack levels required when called: 4
  1470 ;; This function calls:
  1471 ;;		Nothing
  1472 ;; This function is called by:
  1473 ;;		_WakeUp
  1474 ;; This function uses a non-reentrant model
  1475 ;;
  1476                           
  1477                           	psect	text3
  1478  00100E                     __ptext3:
  1479                           	callstack 0
  1480  00100E                     _SubBCD:
  1481                           	callstack 25
  1482                           
  1483                           ;incstack = 0
  1484                           ;SubBCD@Number1 stored from wreg
  1485  00100E  6E2A               	movwf	SubBCD@Number1^0,c
  1486  001010                     
  1487                           ;main.c: 721:     char temp = Number1 - Number2;
  1488  001010  5028               	movf	SubBCD@Number2^0,w,c
  1489  001012  5C2A               	subwf	SubBCD@Number1^0,w,c
  1490  001014  6E2B               	movwf	SubBCD@temp^0,c
  1491                           
  1492                           ;main.c: 723:     if ((temp & 0x0F) > 9) return temp - 0x06;
  1493  001016  C02B  F029         	movff	SubBCD@temp,??_SubBCD
  1494  00101A  0E0F               	movlw	15
  1495  00101C  1629               	andwf	??_SubBCD^0,f,c
  1496  00101E  0E09               	movlw	9
  1497  001020  6429               	cpfsgt	??_SubBCD^0,c
  1498  001022  EF15  F008         	goto	u1461
  1499  001026  EF17  F008         	goto	u1460
  1500  00102A                     u1461:
  1501  00102A  EF1B  F008         	goto	l1972
  1502  00102E                     u1460:
  1503  00102E  502B               	movf	SubBCD@temp^0,w,c
  1504  001030  0FFA               	addlw	250
  1505  001032  EF1C  F008         	goto	l355
  1506  001036                     l1972:
  1507  001036  502B               	movf	SubBCD@temp^0,w,c
  1508  001038                     l355:
  1509  001038  0012               	return		;funcret
  1510  00103A                     __end_of_SubBCD:
  1511                           	callstack 0
  1512                           
  1513 ;; *************** function _AddBCD *****************
  1514 ;; Defined at:
  1515 ;;		line 714 in file "main.c"
  1516 ;; Parameters:    Size  Location     Type
  1517 ;;  Number1         1    wreg     unsigned char 
  1518 ;;  Number2         1   11[COMRAM] unsigned char 
  1519 ;; Auto vars:     Size  Location     Type
  1520 ;;  Number1         1   13[COMRAM] unsigned char 
  1521 ;;  temp            1   14[COMRAM] unsigned char 
  1522 ;; Return value:  Size  Location     Type
  1523 ;;                  1    wreg      unsigned char 
  1524 ;; Registers used:
  1525 ;;		wreg, status,2, status,0
  1526 ;; Tracked objects:
  1527 ;;		On entry : 0/0
  1528 ;;		On exit  : 0/0
  1529 ;;		Unchanged: 0/0
  1530 ;; Data sizes:     COMRAM   BANK0   BANK1   BANK2   BANK3   BANK4   BANK5   BANK6   BANK7   BANK8   BANK9  BANK10  BANK1
      +1  BANK12  BANK13  BANK14  BANK15
  1531 ;;      Params:         1       0       0       0       0       0       0       0       0       0       0       0       
      +0       0       0       0       0
  1532 ;;      Locals:         2       0       0       0       0       0       0       0       0       0       0       0       
      +0       0       0       0       0
  1533 ;;      Temps:          1       0       0       0       0       0       0       0       0       0       0       0       
      +0       0       0       0       0
  1534 ;;      Totals:         4       0       0       0       0       0       0       0       0       0       0       0       
      +0       0       0       0       0
  1535 ;;Total ram usage:        4 bytes
  1536 ;; Hardware stack levels used: 1
  1537 ;; Hardware stack levels required when called: 4
  1538 ;; This function calls:
  1539 ;;		Nothing
  1540 ;; This function is called by:
  1541 ;;		_main
  1542 ;;		_WakeUp
  1543 ;; This function uses a non-reentrant model
  1544 ;;
  1545                           
  1546                           	psect	text4
  1547  00103A                     __ptext4:
  1548                           	callstack 0
  1549  00103A                     _AddBCD:
  1550                           	callstack 25
  1551                           
  1552                           ;incstack = 0
  1553                           ;AddBCD@Number1 stored from wreg
  1554  00103A  6E2A               	movwf	AddBCD@Number1^0,c
  1555  00103C                     
  1556                           ;main.c: 715:     char temp = Number1 + Number2;
  1557  00103C  502A               	movf	AddBCD@Number1^0,w,c
  1558  00103E  2428               	addwf	AddBCD@Number2^0,w,c
  1559  001040  6E2B               	movwf	AddBCD@temp^0,c
  1560                           
  1561                           ;main.c: 717:     if ((temp & 0x0F) > 9) return temp + 0x06;
  1562  001042  C02B  F029         	movff	AddBCD@temp,??_AddBCD
  1563  001046  0E0F               	movlw	15
  1564  001048  1629               	andwf	??_AddBCD^0,f,c
  1565  00104A  0E09               	movlw	9
  1566  00104C  6429               	cpfsgt	??_AddBCD^0,c
  1567  00104E  EF2B  F008         	goto	u1341
  1568  001052  EF2D  F008         	goto	u1340
  1569  001056                     u1341:
  1570  001056  EF31  F008         	goto	l1938
  1571  00105A                     u1340:
  1572  00105A  502B               	movf	AddBCD@temp^0,w,c
  1573  00105C  0F06               	addlw	6
  1574  00105E  EF32  F008         	goto	l350
  1575  001062                     l1938:
  1576  001062  502B               	movf	AddBCD@temp^0,w,c
  1577  001064                     l350:
  1578  001064  0012               	return		;funcret
  1579  001066                     __end_of_AddBCD:
  1580                           	callstack 0
  1581                           
  1582 ;; *************** function _MCUinit *****************
  1583 ;; Defined at:
  1584 ;;		line 653 in file "main.c"
  1585 ;; Parameters:    Size  Location     Type
  1586 ;;		None
  1587 ;; Auto vars:     Size  Location     Type
  1588 ;;		None
  1589 ;; Return value:  Size  Location     Type
  1590 ;;                  1    wreg      void 
  1591 ;; Registers used:
  1592 ;;		wreg, status,2, status,0, cstack
  1593 ;; Tracked objects:
  1594 ;;		On entry : 0/0
  1595 ;;		On exit  : 0/0
  1596 ;;		Unchanged: 0/0
  1597 ;; Data sizes:     COMRAM   BANK0   BANK1   BANK2   BANK3   BANK4   BANK5   BANK6   BANK7   BANK8   BANK9  BANK10  BANK1
      +1  BANK12  BANK13  BANK14  BANK15
  1598 ;;      Params:         0       0       0       0       0       0       0       0       0       0       0       0       
      +0       0       0       0       0
  1599 ;;      Locals:         0       0       0       0       0       0       0       0       0       0       0       0       
      +0       0       0       0       0
  1600 ;;      Temps:          0       0       0       0       0       0       0       0       0       0       0       0       
      +0       0       0       0       0
  1601 ;;      Totals:         0       0       0       0       0       0       0       0       0       0       0       0       
      +0       0       0       0       0
  1602 ;;Total ram usage:        0 bytes
  1603 ;; Hardware stack levels used: 1
  1604 ;; Hardware stack levels required when called: 5
  1605 ;; This function calls:
  1606 ;;		_Display
  1607 ;; This function is called by:
  1608 ;;		_main
  1609 ;; This function uses a non-reentrant model
  1610 ;;
  1611                           
  1612                           	psect	text5
  1613  00115C                     __ptext5:
  1614                           	callstack 0
  1615  00115C                     _MCUinit:
  1616                           	callstack 25
  1617  00115C                     
  1618                           ;main.c: 654:     Display(0x88, 0x88);
  1619  00115C  0E88               	movlw	136
  1620  00115E  6E28               	movwf	Display@Minutes^0,c
  1621  001160  0E88               	movlw	136
  1622  001162  ECF7  F004         	call	_Display
  1623  001166  0012               	return		;funcret
  1624  001168                     __end_of_MCUinit:
  1625                           	callstack 0
  1626                           
  1627 ;; *************** function _Display *****************
  1628 ;; Defined at:
  1629 ;;		line 726 in file "main.c"
  1630 ;; Parameters:    Size  Location     Type
  1631 ;;  Hours           1    wreg     unsigned char 
  1632 ;;  Minutes         1   11[COMRAM] unsigned char 
  1633 ;; Auto vars:     Size  Location     Type
  1634 ;;  Hours           1   16[COMRAM] unsigned char 
  1635 ;;  Lower_Minute    1   15[COMRAM] unsigned char 
  1636 ;;  Upper_Minute    1   14[COMRAM] unsigned char 
  1637 ;;  Lower_Hours     1   13[COMRAM] unsigned char 
  1638 ;;  Upper_Hours     1   12[COMRAM] unsigned char 
  1639 ;; Return value:  Size  Location     Type
  1640 ;;                  1    wreg      void 
  1641 ;; Registers used:
  1642 ;;		wreg, status,2, status,0
  1643 ;; Tracked objects:
  1644 ;;		On entry : 0/0
  1645 ;;		On exit  : 0/0
  1646 ;;		Unchanged: 0/0
  1647 ;; Data sizes:     COMRAM   BANK0   BANK1   BANK2   BANK3   BANK4   BANK5   BANK6   BANK7   BANK8   BANK9  BANK10  BANK1
      +1  BANK12  BANK13  BANK14  BANK15
  1648 ;;      Params:         1       0       0       0       0       0       0       0       0       0       0       0       
      +0       0       0       0       0
  1649 ;;      Locals:         5       0       0       0       0       0       0       0       0       0       0       0       
      +0       0       0       0       0
  1650 ;;      Temps:          0       0       0       0       0       0       0       0       0       0       0       0       
      +0       0       0       0       0
  1651 ;;      Totals:         6       0       0       0       0       0       0       0       0       0       0       0       
      +0       0       0       0       0
  1652 ;;Total ram usage:        6 bytes
  1653 ;; Hardware stack levels used: 1
  1654 ;; Hardware stack levels required when called: 4
  1655 ;; This function calls:
  1656 ;;		Nothing
  1657 ;; This function is called by:
  1658 ;;		_main
  1659 ;;		_MCUinit
  1660 ;; This function uses a non-reentrant model
  1661 ;;
  1662                           
  1663                           	psect	text6
  1664  0009EE                     __ptext6:
  1665                           	callstack 0
  1666  0009EE                     _Display:
  1667                           	callstack 25
  1668                           
  1669                           ;incstack = 0
  1670                           ;Display@Hours stored from wreg
  1671  0009EE  6E2D               	movwf	Display@Hours^0,c
  1672  0009F0                     
  1673                           ;main.c: 727:     char Upper_Hours = ((Hours & 0xF0) >> 4);
  1674  0009F0  382D               	swapf	Display@Hours^0,w,c
  1675  0009F2  0B0F               	andlw	15
  1676  0009F4  0B0F               	andlw	15
  1677  0009F6  6E29               	movwf	Display@Upper_Hours^0,c
  1678                           
  1679                           ;main.c: 728:     char Lower_Hours = Hours & 0x0F;
  1680  0009F8  502D               	movf	Display@Hours^0,w,c
  1681  0009FA  0B0F               	andlw	15
  1682  0009FC  6E2A               	movwf	Display@Lower_Hours^0,c
  1683                           
  1684                           ;main.c: 730:     char Upper_Minutes = ((Minutes & 0xF0) >> 4);
  1685  0009FE  3828               	swapf	Display@Minutes^0,w,c
  1686  000A00  0B0F               	andlw	15
  1687  000A02  0B0F               	andlw	15
  1688  000A04  6E2B               	movwf	Display@Upper_Minutes^0,c
  1689                           
  1690                           ;main.c: 731:     char Lower_Minutes = Minutes & 0x0F;
  1691  000A06  5028               	movf	Display@Minutes^0,w,c
  1692  000A08  0B0F               	andlw	15
  1693  000A0A  6E2C               	movwf	Display@Lower_Minutes^0,c
  1694  000A0C                     
  1695                           ;main.c: 733:     if(Blink_First_Digit && Blink) {
  1696  000A0C  5013               	movf	_Blink_First_Digit^0,w,c
  1697  000A0E  B4D8               	btfsc	status,2,c
  1698  000A10  EF0C  F005         	goto	u1261
  1699  000A14  EF0E  F005         	goto	u1260
  1700  000A18                     u1261:
  1701  000A18  EF1D  F005         	goto	l359
  1702  000A1C                     u1260:
  1703  000A1C  5011               	movf	_Blink^0,w,c
  1704  000A1E  B4D8               	btfsc	status,2,c
  1705  000A20  EF14  F005         	goto	u1271
  1706  000A24  EF16  F005         	goto	u1270
  1707  000A28                     u1271:
  1708  000A28  EF1D  F005         	goto	l359
  1709  000A2C                     u1270:
  1710  000A2C                     
  1711                           ;main.c: 734:         LATA |= 0x00;
  1712  000A2C  5089               	movf	137,w,c	;volatile
  1713                           
  1714                           ;main.c: 735:         _delay((unsigned long)((800)*(4000000/4000000.0)));
  1715  000A2E  0EA0               	movlw	160
  1716  000A30                     u1897:
  1717  000A30  D000               	nop2	
  1718  000A32  2EE8               	decfsz	wreg,f,c
  1719  000A34  D7FD               	bra	u1897
  1720                           
  1721                           ;main.c: 736:     }
  1722  000A36  EF25  F005         	goto	l1894
  1723  000A3A                     l359:
  1724                           
  1725                           ;main.c: 738:         LATA = Upper_Hours;
  1726  000A3A  C029  FF89         	movff	Display@Upper_Hours,3977	;volatile
  1727  000A3E                     
  1728                           ;main.c: 739:         LATB |= 0x10;
  1729  000A3E  888A               	bsf	138,4,c	;volatile
  1730  000A40                     
  1731                           ;main.c: 740:         _delay((unsigned long)((800)*(4000000/4000000.0)));
  1732  000A40  0EA0               	movlw	160
  1733  000A42                     u1907:
  1734  000A42  D000               	nop2	
  1735  000A44  2EE8               	decfsz	wreg,f,c
  1736  000A46  D7FD               	bra	u1907
  1737  000A48                     
  1738                           ;main.c: 741:         LATB &= ~(0x10);
  1739  000A48  988A               	bcf	138,4,c	;volatile
  1740  000A4A                     l1894:
  1741                           
  1742                           ;main.c: 744:     if(Blink_First_Digit && Blink) {
  1743  000A4A  5013               	movf	_Blink_First_Digit^0,w,c
  1744  000A4C  B4D8               	btfsc	status,2,c
  1745  000A4E  EF2B  F005         	goto	u1281
  1746  000A52  EF2D  F005         	goto	u1280
  1747  000A56                     u1281:
  1748  000A56  EF3C  F005         	goto	l361
  1749  000A5A                     u1280:
  1750  000A5A  5011               	movf	_Blink^0,w,c
  1751  000A5C  B4D8               	btfsc	status,2,c
  1752  000A5E  EF33  F005         	goto	u1291
  1753  000A62  EF35  F005         	goto	u1290
  1754  000A66                     u1291:
  1755  000A66  EF3C  F005         	goto	l361
  1756  000A6A                     u1290:
  1757  000A6A                     
  1758                           ;main.c: 745:         LATA |= 0x00;
  1759  000A6A  5089               	movf	137,w,c	;volatile
  1760                           
  1761                           ;main.c: 746:         _delay((unsigned long)((800)*(4000000/4000000.0)));
  1762  000A6C  0EA0               	movlw	160
  1763  000A6E                     u1917:
  1764  000A6E  D000               	nop2	
  1765  000A70  2EE8               	decfsz	wreg,f,c
  1766  000A72  D7FD               	bra	u1917
  1767                           
  1768                           ;main.c: 747:     }
  1769  000A74  EF44  F005         	goto	l1906
  1770  000A78                     l361:
  1771                           
  1772                           ;main.c: 749:         LATA = Lower_Hours;
  1773  000A78  C02A  FF89         	movff	Display@Lower_Hours,3977	;volatile
  1774  000A7C                     
  1775                           ;main.c: 750:         LATB |= 0x20;
  1776  000A7C  8A8A               	bsf	138,5,c	;volatile
  1777  000A7E                     
  1778                           ;main.c: 751:         _delay((unsigned long)((800)*(4000000/4000000.0)));
  1779  000A7E  0EA0               	movlw	160
  1780  000A80                     u1927:
  1781  000A80  D000               	nop2	
  1782  000A82  2EE8               	decfsz	wreg,f,c
  1783  000A84  D7FD               	bra	u1927
  1784  000A86                     
  1785                           ;main.c: 752:         LATB &= ~(0x20);
  1786  000A86  9A8A               	bcf	138,5,c	;volatile
  1787  000A88                     l1906:
  1788                           
  1789                           ;main.c: 755:     if(Blink_Second_Digit && Blink) {
  1790  000A88  5012               	movf	_Blink_Second_Digit^0,w,c
  1791  000A8A  B4D8               	btfsc	status,2,c
  1792  000A8C  EF4A  F005         	goto	u1301
  1793  000A90  EF4C  F005         	goto	u1300
  1794  000A94                     u1301:
  1795  000A94  EF5B  F005         	goto	l363
  1796  000A98                     u1300:
  1797  000A98  5011               	movf	_Blink^0,w,c
  1798  000A9A  B4D8               	btfsc	status,2,c
  1799  000A9C  EF52  F005         	goto	u1311
  1800  000AA0  EF54  F005         	goto	u1310
  1801  000AA4                     u1311:
  1802  000AA4  EF5B  F005         	goto	l363
  1803  000AA8                     u1310:
  1804  000AA8                     
  1805                           ;main.c: 756:         LATA |= 0x00;
  1806  000AA8  5089               	movf	137,w,c	;volatile
  1807                           
  1808                           ;main.c: 757:         _delay((unsigned long)((800)*(4000000/4000000.0)));
  1809  000AAA  0EA0               	movlw	160
  1810  000AAC                     u1937:
  1811  000AAC  D000               	nop2	
  1812  000AAE  2EE8               	decfsz	wreg,f,c
  1813  000AB0  D7FD               	bra	u1937
  1814                           
  1815                           ;main.c: 758:     }
  1816  000AB2  EF63  F005         	goto	l1918
  1817  000AB6                     l363:
  1818                           
  1819                           ;main.c: 760:         LATA = Upper_Minutes;
  1820  000AB6  C02B  FF89         	movff	Display@Upper_Minutes,3977	;volatile
  1821  000ABA                     
  1822                           ;main.c: 761:         LATB |= 0x40;
  1823  000ABA  8C8A               	bsf	138,6,c	;volatile
  1824  000ABC                     
  1825                           ;main.c: 762:         _delay((unsigned long)((800)*(4000000/4000000.0)));
  1826  000ABC  0EA0               	movlw	160
  1827  000ABE                     u1947:
  1828  000ABE  D000               	nop2	
  1829  000AC0  2EE8               	decfsz	wreg,f,c
  1830  000AC2  D7FD               	bra	u1947
  1831  000AC4                     
  1832                           ;main.c: 763:         LATB &= ~(0x40);
  1833  000AC4  9C8A               	bcf	138,6,c	;volatile
  1834  000AC6                     l1918:
  1835                           
  1836                           ;main.c: 766:     if(Blink_Second_Digit && Blink) {
  1837  000AC6  5012               	movf	_Blink_Second_Digit^0,w,c
  1838  000AC8  B4D8               	btfsc	status,2,c
  1839  000ACA  EF69  F005         	goto	u1321
  1840  000ACE  EF6B  F005         	goto	u1320
  1841  000AD2                     u1321:
  1842  000AD2  EF7A  F005         	goto	l365
  1843  000AD6                     u1320:
  1844  000AD6  5011               	movf	_Blink^0,w,c
  1845  000AD8  B4D8               	btfsc	status,2,c
  1846  000ADA  EF71  F005         	goto	u1331
  1847  000ADE  EF73  F005         	goto	u1330
  1848  000AE2                     u1331:
  1849  000AE2  EF7A  F005         	goto	l365
  1850  000AE6                     u1330:
  1851  000AE6                     
  1852                           ;main.c: 767:         LATA |= 0x00;
  1853  000AE6  5089               	movf	137,w,c	;volatile
  1854                           
  1855                           ;main.c: 768:         _delay((unsigned long)((800)*(4000000/4000000.0)));
  1856  000AE8  0EA0               	movlw	160
  1857  000AEA                     u1957:
  1858  000AEA  D000               	nop2	
  1859  000AEC  2EE8               	decfsz	wreg,f,c
  1860  000AEE  D7FD               	bra	u1957
  1861                           
  1862                           ;main.c: 769:     }else {
  1863  000AF0  EF82  F005         	goto	l367
  1864  000AF4                     l365:
  1865                           
  1866                           ;main.c: 770:         LATA = Lower_Minutes;
  1867  000AF4  C02C  FF89         	movff	Display@Lower_Minutes,3977	;volatile
  1868  000AF8                     
  1869                           ;main.c: 771:         LATB |= 0x80;
  1870  000AF8  8E8A               	bsf	138,7,c	;volatile
  1871  000AFA                     
  1872                           ;main.c: 772:         _delay((unsigned long)((800)*(4000000/4000000.0)));
  1873  000AFA  0EA0               	movlw	160
  1874  000AFC                     u1967:
  1875  000AFC  D000               	nop2	
  1876  000AFE  2EE8               	decfsz	wreg,f,c
  1877  000B00  D7FD               	bra	u1967
  1878  000B02                     
  1879                           ;main.c: 773:         LATB &= ~(0x80);
  1880  000B02  9E8A               	bcf	138,7,c	;volatile
  1881  000B04                     l367:
  1882  000B04  0012               	return		;funcret
  1883  000B06                     __end_of_Display:
  1884                           	callstack 0
  1885                           
  1886 ;; *************** function _MCUconfig *****************
  1887 ;; Defined at:
  1888 ;;		line 395 in file "main.c"
  1889 ;; Parameters:    Size  Location     Type
  1890 ;;		None
  1891 ;; Auto vars:     Size  Location     Type
  1892 ;;		None
  1893 ;; Return value:  Size  Location     Type
  1894 ;;                  1    wreg      void 
  1895 ;; Registers used:
  1896 ;;		wreg, status,2, status,0, cstack
  1897 ;; Tracked objects:
  1898 ;;		On entry : 0/0
  1899 ;;		On exit  : 0/0
  1900 ;;		Unchanged: 0/0
  1901 ;; Data sizes:     COMRAM   BANK0   BANK1   BANK2   BANK3   BANK4   BANK5   BANK6   BANK7   BANK8   BANK9  BANK10  BANK1
      +1  BANK12  BANK13  BANK14  BANK15
  1902 ;;      Params:         0       0       0       0       0       0       0       0       0       0       0       0       
      +0       0       0       0       0
  1903 ;;      Locals:         0       0       0       0       0       0       0       0       0       0       0       0       
      +0       0       0       0       0
  1904 ;;      Temps:          0       0       0       0       0       0       0       0       0       0       0       0       
      +0       0       0       0       0
  1905 ;;      Totals:         0       0       0       0       0       0       0       0       0       0       0       0       
      +0       0       0       0       0
  1906 ;;Total ram usage:        0 bytes
  1907 ;; Hardware stack levels used: 1
  1908 ;; Hardware stack levels required when called: 5
  1909 ;; This function calls:
  1910 ;;		_GPIOconfig
  1911 ;;		_I2Cconfig
  1912 ;;		_INTconfig
  1913 ;;		_PWMconfig
  1914 ;;		_TIMERconfig
  1915 ;; This function is called by:
  1916 ;;		_main
  1917 ;; This function uses a non-reentrant model
  1918 ;;
  1919                           
  1920                           	psect	text7
  1921  00111E                     __ptext7:
  1922                           	callstack 0
  1923  00111E                     _MCUconfig:
  1924                           	callstack 25
  1925  00111E                     
  1926                           ;main.c: 396:     OSCCON |= 0xE2;
  1927  00111E  0EE2               	movlw	226
  1928  001120  12D3               	iorwf	211,f,c	;volatile
  1929  001122                     
  1930                           ;main.c: 398:     GPIOconfig();
  1931  001122  EC80  F008         	call	_GPIOconfig	;wreg free
  1932  001126                     
  1933                           ;main.c: 401:     I2Cconfig();
  1934  001126  ECBA  F008         	call	_I2Cconfig	;wreg free
  1935  00112A                     
  1936                           ;main.c: 403:     TIMERconfig();
  1937  00112A  ECA7  F008         	call	_TIMERconfig	;wreg free
  1938  00112E                     
  1939                           ;main.c: 405:     INTconfig();
  1940  00112E  EC9C  F008         	call	_INTconfig	;wreg free
  1941  001132                     
  1942                           ;main.c: 407:     PWMconfig();
  1943  001132  EC70  F008         	call	_PWMconfig	;wreg free
  1944  001136  0012               	return		;funcret
  1945  001138                     __end_of_MCUconfig:
  1946                           	callstack 0
  1947                           
  1948 ;; *************** function _TIMERconfig *****************
  1949 ;; Defined at:
  1950 ;;		line 335 in file "main.c"
  1951 ;; Parameters:    Size  Location     Type
  1952 ;;		None
  1953 ;; Auto vars:     Size  Location     Type
  1954 ;;		None
  1955 ;; Return value:  Size  Location     Type
  1956 ;;                  1    wreg      void 
  1957 ;; Registers used:
  1958 ;;		wreg, status,2
  1959 ;; Tracked objects:
  1960 ;;		On entry : 0/0
  1961 ;;		On exit  : 0/0
  1962 ;;		Unchanged: 0/0
  1963 ;; Data sizes:     COMRAM   BANK0   BANK1   BANK2   BANK3   BANK4   BANK5   BANK6   BANK7   BANK8   BANK9  BANK10  BANK1
      +1  BANK12  BANK13  BANK14  BANK15
  1964 ;;      Params:         0       0       0       0       0       0       0       0       0       0       0       0       
      +0       0       0       0       0
  1965 ;;      Locals:         0       0       0       0       0       0       0       0       0       0       0       0       
      +0       0       0       0       0
  1966 ;;      Temps:          0       0       0       0       0       0       0       0       0       0       0       0       
      +0       0       0       0       0
  1967 ;;      Totals:         0       0       0       0       0       0       0       0       0       0       0       0       
      +0       0       0       0       0
  1968 ;;Total ram usage:        0 bytes
  1969 ;; Hardware stack levels used: 1
  1970 ;; Hardware stack levels required when called: 4
  1971 ;; This function calls:
  1972 ;;		Nothing
  1973 ;; This function is called by:
  1974 ;;		_MCUconfig
  1975 ;; This function uses a non-reentrant model
  1976 ;;
  1977                           
  1978                           	psect	text8
  1979  00114E                     __ptext8:
  1980                           	callstack 0
  1981  00114E                     _TIMERconfig:
  1982                           	callstack 25
  1983  00114E                     
  1984                           ;main.c: 336:     T0CON = 0x83;
  1985  00114E  0E83               	movlw	131
  1986  001150  6ED5               	movwf	213,c	;volatile
  1987                           
  1988                           ;main.c: 341:     T1CON = 0xB1;
  1989  001152  0EB1               	movlw	177
  1990  001154  6ECD               	movwf	205,c	;volatile
  1991                           
  1992                           ;main.c: 345:     T3CON = 0x91;
  1993  001156  0E91               	movlw	145
  1994  001158  6EB1               	movwf	177,c	;volatile
  1995  00115A  0012               	return		;funcret
  1996  00115C                     __end_of_TIMERconfig:
  1997                           	callstack 0
  1998                           
  1999 ;; *************** function _PWMconfig *****************
  2000 ;; Defined at:
  2001 ;;		line 367 in file "main.c"
  2002 ;; Parameters:    Size  Location     Type
  2003 ;;		None
  2004 ;; Auto vars:     Size  Location     Type
  2005 ;;		None
  2006 ;; Return value:  Size  Location     Type
  2007 ;;                  1    wreg      void 
  2008 ;; Registers used:
  2009 ;;		wreg, status,2
  2010 ;; Tracked objects:
  2011 ;;		On entry : 0/0
  2012 ;;		On exit  : 0/0
  2013 ;;		Unchanged: 0/0
  2014 ;; Data sizes:     COMRAM   BANK0   BANK1   BANK2   BANK3   BANK4   BANK5   BANK6   BANK7   BANK8   BANK9  BANK10  BANK1
      +1  BANK12  BANK13  BANK14  BANK15
  2015 ;;      Params:         0       0       0       0       0       0       0       0       0       0       0       0       
      +0       0       0       0       0
  2016 ;;      Locals:         0       0       0       0       0       0       0       0       0       0       0       0       
      +0       0       0       0       0
  2017 ;;      Temps:          0       0       0       0       0       0       0       0       0       0       0       0       
      +0       0       0       0       0
  2018 ;;      Totals:         0       0       0       0       0       0       0       0       0       0       0       0       
      +0       0       0       0       0
  2019 ;;Total ram usage:        0 bytes
  2020 ;; Hardware stack levels used: 1
  2021 ;; Hardware stack levels required when called: 4
  2022 ;; This function calls:
  2023 ;;		Nothing
  2024 ;; This function is called by:
  2025 ;;		_MCUconfig
  2026 ;; This function uses a non-reentrant model
  2027 ;;
  2028                           
  2029                           	psect	text9
  2030  0010E0                     __ptext9:
  2031                           	callstack 0
  2032  0010E0                     _PWMconfig:
  2033                           	callstack 25
  2034  0010E0                     
  2035                           ;main.c: 369:     PR2 = 49;
  2036  0010E0  0E31               	movlw	49
  2037  0010E2  6ECB               	movwf	203,c	;volatile
  2038                           
  2039                           ;main.c: 375:     CCP1CON = 0x00;
  2040  0010E4  0E00               	movlw	0
  2041  0010E6  6EBD               	movwf	189,c	;volatile
  2042                           
  2043                           ;main.c: 376:     CCPR1L = 0x19;
  2044  0010E8  0E19               	movlw	25
  2045  0010EA  6EBE               	movwf	190,c	;volatile
  2046  0010EC                     
  2047                           ;main.c: 381:     TRISCbits.RC2 = 0;
  2048  0010EC  9494               	bcf	148,2,c	;volatile
  2049                           
  2050                           ;main.c: 384:     T2CON = 0x01;
  2051  0010EE  0E01               	movlw	1
  2052  0010F0  6ECA               	movwf	202,c	;volatile
  2053  0010F2                     
  2054                           ;main.c: 386:     T2CONbits.TMR2ON = 1;
  2055  0010F2  84CA               	bsf	202,2,c	;volatile
  2056                           
  2057                           ;main.c: 389:     CCP1CON = 0x0C;
  2058  0010F4  0E0C               	movlw	12
  2059  0010F6  6EBD               	movwf	189,c	;volatile
  2060  0010F8                     
  2061                           ;main.c: 391:     _delay((unsigned long)((1)*(4000000/4000000.0)));
  2062  0010F8  F000               	nop	
  2063                           
  2064                           ;main.c: 393:     CCPR1L = 0x00;
  2065  0010FA  0E00               	movlw	0
  2066  0010FC  6EBE               	movwf	190,c	;volatile
  2067  0010FE  0012               	return		;funcret
  2068  001100                     __end_of_PWMconfig:
  2069                           	callstack 0
  2070                           
  2071 ;; *************** function _INTconfig *****************
  2072 ;; Defined at:
  2073 ;;		line 349 in file "main.c"
  2074 ;; Parameters:    Size  Location     Type
  2075 ;;		None
  2076 ;; Auto vars:     Size  Location     Type
  2077 ;;		None
  2078 ;; Return value:  Size  Location     Type
  2079 ;;                  1    wreg      void 
  2080 ;; Registers used:
  2081 ;;		wreg, status,2, status,0
  2082 ;; Tracked objects:
  2083 ;;		On entry : 0/0
  2084 ;;		On exit  : 0/0
  2085 ;;		Unchanged: 0/0
  2086 ;; Data sizes:     COMRAM   BANK0   BANK1   BANK2   BANK3   BANK4   BANK5   BANK6   BANK7   BANK8   BANK9  BANK10  BANK1
      +1  BANK12  BANK13  BANK14  BANK15
  2087 ;;      Params:         0       0       0       0       0       0       0       0       0       0       0       0       
      +0       0       0       0       0
  2088 ;;      Locals:         0       0       0       0       0       0       0       0       0       0       0       0       
      +0       0       0       0       0
  2089 ;;      Temps:          0       0       0       0       0       0       0       0       0       0       0       0       
      +0       0       0       0       0
  2090 ;;      Totals:         0       0       0       0       0       0       0       0       0       0       0       0       
      +0       0       0       0       0
  2091 ;;Total ram usage:        0 bytes
  2092 ;; Hardware stack levels used: 1
  2093 ;; Hardware stack levels required when called: 4
  2094 ;; This function calls:
  2095 ;;		Nothing
  2096 ;; This function is called by:
  2097 ;;		_MCUconfig
  2098 ;; This function uses a non-reentrant model
  2099 ;;
  2100                           
  2101                           	psect	text10
  2102  001138                     __ptext10:
  2103                           	callstack 0
  2104  001138                     _INTconfig:
  2105                           	callstack 25
  2106  001138                     
  2107                           ;main.c: 350:     INTCON = 0xF0;
  2108  001138  0EF0               	movlw	240
  2109  00113A  6EF2               	movwf	242,c	;volatile
  2110                           
  2111                           ;main.c: 357:     PIE2 = 0x02;
  2112  00113C  0E02               	movlw	2
  2113  00113E  6EA0               	movwf	160,c	;volatile
  2114                           
  2115                           ;main.c: 360:     PIE1 = 0x01;
  2116  001140  0E01               	movlw	1
  2117  001142  6E9D               	movwf	157,c	;volatile
  2118  001144                     
  2119                           ;main.c: 362:     INTCON2 &= ~(0xF0);
  2120  001144  0E0F               	movlw	15
  2121  001146  16F1               	andwf	241,f,c	;volatile
  2122  001148                     
  2123                           ;main.c: 364:     INTCON3 = 0x18;
  2124  001148  0E18               	movlw	24
  2125  00114A  6EF0               	movwf	240,c	;volatile
  2126  00114C  0012               	return		;funcret
  2127  00114E                     __end_of_INTconfig:
  2128                           	callstack 0
  2129                           
  2130 ;; *************** function _I2Cconfig *****************
  2131 ;; Defined at:
  2132 ;;		line 329 in file "main.c"
  2133 ;; Parameters:    Size  Location     Type
  2134 ;;		None
  2135 ;; Auto vars:     Size  Location     Type
  2136 ;;		None
  2137 ;; Return value:  Size  Location     Type
  2138 ;;                  1    wreg      void 
  2139 ;; Registers used:
  2140 ;;		wreg, status,2
  2141 ;; Tracked objects:
  2142 ;;		On entry : 0/0
  2143 ;;		On exit  : 0/0
  2144 ;;		Unchanged: 0/0
  2145 ;; Data sizes:     COMRAM   BANK0   BANK1   BANK2   BANK3   BANK4   BANK5   BANK6   BANK7   BANK8   BANK9  BANK10  BANK1
      +1  BANK12  BANK13  BANK14  BANK15
  2146 ;;      Params:         0       0       0       0       0       0       0       0       0       0       0       0       
      +0       0       0       0       0
  2147 ;;      Locals:         0       0       0       0       0       0       0       0       0       0       0       0       
      +0       0       0       0       0
  2148 ;;      Temps:          0       0       0       0       0       0       0       0       0       0       0       0       
      +0       0       0       0       0
  2149 ;;      Totals:         0       0       0       0       0       0       0       0       0       0       0       0       
      +0       0       0       0       0
  2150 ;;Total ram usage:        0 bytes
  2151 ;; Hardware stack levels used: 1
  2152 ;; Hardware stack levels required when called: 4
  2153 ;; This function calls:
  2154 ;;		Nothing
  2155 ;; This function is called by:
  2156 ;;		_MCUconfig
  2157 ;; This function uses a non-reentrant model
  2158 ;;
  2159                           
  2160                           	psect	text11
  2161  001174                     __ptext11:
  2162                           	callstack 0
  2163  001174                     _I2Cconfig:
  2164                           	callstack 25
  2165  001174                     
  2166                           ;main.c: 331:     SSPADD = 9;
  2167  001174  0E09               	movlw	9
  2168  001176  6EC8               	movwf	200,c	;volatile
  2169                           
  2170                           ;main.c: 333:     SSPCON1 = 0x28;
  2171  001178  0E28               	movlw	40
  2172  00117A  6EC6               	movwf	198,c	;volatile
  2173  00117C  0012               	return		;funcret
  2174  00117E                     __end_of_I2Cconfig:
  2175                           	callstack 0
  2176                           
  2177 ;; *************** function _GPIOconfig *****************
  2178 ;; Defined at:
  2179 ;;		line 310 in file "main.c"
  2180 ;; Parameters:    Size  Location     Type
  2181 ;;		None
  2182 ;; Auto vars:     Size  Location     Type
  2183 ;;		None
  2184 ;; Return value:  Size  Location     Type
  2185 ;;                  1    wreg      void 
  2186 ;; Registers used:
  2187 ;;		wreg, status,2, status,0
  2188 ;; Tracked objects:
  2189 ;;		On entry : 0/0
  2190 ;;		On exit  : 0/0
  2191 ;;		Unchanged: 0/0
  2192 ;; Data sizes:     COMRAM   BANK0   BANK1   BANK2   BANK3   BANK4   BANK5   BANK6   BANK7   BANK8   BANK9  BANK10  BANK1
      +1  BANK12  BANK13  BANK14  BANK15
  2193 ;;      Params:         0       0       0       0       0       0       0       0       0       0       0       0       
      +0       0       0       0       0
  2194 ;;      Locals:         0       0       0       0       0       0       0       0       0       0       0       0       
      +0       0       0       0       0
  2195 ;;      Temps:          0       0       0       0       0       0       0       0       0       0       0       0       
      +0       0       0       0       0
  2196 ;;      Totals:         0       0       0       0       0       0       0       0       0       0       0       0       
      +0       0       0       0       0
  2197 ;;Total ram usage:        0 bytes
  2198 ;; Hardware stack levels used: 1
  2199 ;; Hardware stack levels required when called: 4
  2200 ;; This function calls:
  2201 ;;		Nothing
  2202 ;; This function is called by:
  2203 ;;		_MCUconfig
  2204 ;; This function uses a non-reentrant model
  2205 ;;
  2206                           
  2207                           	psect	text12
  2208  001100                     __ptext12:
  2209                           	callstack 0
  2210  001100                     _GPIOconfig:
  2211                           	callstack 25
  2212  001100                     
  2213                           ;main.c: 312:     TRISC = 0;
  2214  001100  0E00               	movlw	0
  2215  001102  6E94               	movwf	148,c	;volatile
  2216  001104                     
  2217                           ;main.c: 314:     TRISC |= 0x18;
  2218  001104  0E18               	movlw	24
  2219  001106  1294               	iorwf	148,f,c	;volatile
  2220  001108                     
  2221                           ;main.c: 316:     TRISA = 0;
  2222  001108  0E00               	movlw	0
  2223  00110A  6E92               	movwf	146,c	;volatile
  2224  00110C                     
  2225                           ;main.c: 318:     TRISB = 0x07;
  2226  00110C  0E07               	movlw	7
  2227  00110E  6E93               	movwf	147,c	;volatile
  2228  001110                     
  2229                           ;main.c: 320:     TRISCbits.RC0 = 0;
  2230  001110  9094               	bcf	148,0,c	;volatile
  2231  001112                     
  2232                           ;main.c: 321:     PORTCbits.RC0 = 1;
  2233  001112  8082               	bsf	130,0,c	;volatile
  2234  001114                     
  2235                           ;main.c: 323:     TRISCbits.RC2 = 0;
  2236  001114  9494               	bcf	148,2,c	;volatile
  2237  001116                     
  2238                           ;main.c: 324:     PORTCbits.RC2 = 1;
  2239  001116  8482               	bsf	130,2,c	;volatile
  2240  001118                     
  2241                           ;main.c: 326:     TRISCbits.RC5 = 0;
  2242  001118  9A94               	bcf	148,5,c	;volatile
  2243  00111A                     
  2244                           ;main.c: 327:     PORTCbits.RC5 = 0;
  2245  00111A  9A82               	bcf	130,5,c	;volatile
  2246  00111C  0012               	return		;funcret
  2247  00111E                     __end_of_GPIOconfig:
  2248                           	callstack 0
  2249                           
  2250 ;; *************** function _BlinkDigit *****************
  2251 ;; Defined at:
  2252 ;;		line 677 in file "main.c"
  2253 ;; Parameters:    Size  Location     Type
  2254 ;;  index           1    wreg     unsigned char 
  2255 ;; Auto vars:     Size  Location     Type
  2256 ;;  index           1   13[COMRAM] unsigned char 
  2257 ;; Return value:  Size  Location     Type
  2258 ;;                  1    wreg      void 
  2259 ;; Registers used:
  2260 ;;		wreg, status,2, status,0
  2261 ;; Tracked objects:
  2262 ;;		On entry : 0/0
  2263 ;;		On exit  : 0/0
  2264 ;;		Unchanged: 0/0
  2265 ;; Data sizes:     COMRAM   BANK0   BANK1   BANK2   BANK3   BANK4   BANK5   BANK6   BANK7   BANK8   BANK9  BANK10  BANK1
      +1  BANK12  BANK13  BANK14  BANK15
  2266 ;;      Params:         0       0       0       0       0       0       0       0       0       0       0       0       
      +0       0       0       0       0
  2267 ;;      Locals:         1       0       0       0       0       0       0       0       0       0       0       0       
      +0       0       0       0       0
  2268 ;;      Temps:          2       0       0       0       0       0       0       0       0       0       0       0       
      +0       0       0       0       0
  2269 ;;      Totals:         3       0       0       0       0       0       0       0       0       0       0       0       
      +0       0       0       0       0
  2270 ;;Total ram usage:        3 bytes
  2271 ;; Hardware stack levels used: 1
  2272 ;; Hardware stack levels required when called: 4
  2273 ;; This function calls:
  2274 ;;		Nothing
  2275 ;; This function is called by:
  2276 ;;		_main
  2277 ;; This function uses a non-reentrant model
  2278 ;;
  2279                           
  2280                           	psect	text13
  2281  000E78                     __ptext13:
  2282                           	callstack 0
  2283  000E78                     _BlinkDigit:
  2284                           	callstack 26
  2285                           
  2286                           ;incstack = 0
  2287                           ;BlinkDigit@index stored from wreg
  2288  000E78  6E2A               	movwf	BlinkDigit@index^0,c
  2289  000E7A                     
  2290                           ;main.c: 678:     switch(index){
  2291  000E7A  EF51  F007         	goto	l1398
  2292  000E7E                     l1390:
  2293                           
  2294                           ;main.c: 680:             Blink_First_Digit = 0;
  2295  000E7E  0E00               	movlw	0
  2296  000E80  6E13               	movwf	_Blink_First_Digit^0,c
  2297                           
  2298                           ;main.c: 681:             Blink_Second_Digit = 0;
  2299  000E82  0E00               	movlw	0
  2300  000E84  6E12               	movwf	_Blink_Second_Digit^0,c
  2301                           
  2302                           ;main.c: 682:         break;
  2303  000E86  EF6A  F007         	goto	l330
  2304  000E8A                     l1392:
  2305                           
  2306                           ;main.c: 685:             Blink_First_Digit = 0;
  2307  000E8A  0E00               	movlw	0
  2308  000E8C  6E13               	movwf	_Blink_First_Digit^0,c
  2309                           
  2310                           ;main.c: 686:             Blink_Second_Digit = 1;
  2311  000E8E  0E01               	movlw	1
  2312  000E90  6E12               	movwf	_Blink_Second_Digit^0,c
  2313                           
  2314                           ;main.c: 687:         break;
  2315  000E92  EF6A  F007         	goto	l330
  2316  000E96                     l1394:
  2317                           
  2318                           ;main.c: 690:             Blink_First_Digit = 1;
  2319  000E96  0E01               	movlw	1
  2320  000E98  6E13               	movwf	_Blink_First_Digit^0,c
  2321                           
  2322                           ;main.c: 691:             Blink_Second_Digit = 0;
  2323  000E9A  0E00               	movlw	0
  2324  000E9C  6E12               	movwf	_Blink_Second_Digit^0,c
  2325                           
  2326                           ;main.c: 692:         break;
  2327  000E9E  EF6A  F007         	goto	l330
  2328  000EA2                     l1398:
  2329  000EA2  502A               	movf	BlinkDigit@index^0,w,c
  2330  000EA4  6E28               	movwf	??_BlinkDigit^0,c
  2331  000EA6  6A29               	clrf	(??_BlinkDigit+1)^0,c
  2332                           
  2333                           ; Switch on 2 bytes has been partitioned into a top level switch of size 1, and 1 sub-sw
      +                          itches
  2334                           ; Switch size 1, requested type "simple"
  2335                           ; Number of cases is 1, Range of values is 0 to 0
  2336                           ; switch strategies available:
  2337                           ; Name         Instructions Cycles
  2338                           ; simple_byte            4     3 (average)
  2339                           ;	Chosen strategy is simple_byte
  2340  000EA8  5029               	movf	(??_BlinkDigit+1)^0,w,c
  2341  000EAA  0A00               	xorlw	0	; case 0
  2342  000EAC  B4D8               	btfsc	status,2,c
  2343  000EAE  EF5B  F007         	goto	l2388
  2344  000EB2  EF6A  F007         	goto	l330
  2345  000EB6                     l2388:
  2346                           
  2347                           ; Switch size 1, requested type "simple"
  2348                           ; Number of cases is 3, Range of values is 0 to 2
  2349                           ; switch strategies available:
  2350                           ; Name         Instructions Cycles
  2351                           ; simple_byte           10     6 (average)
  2352                           ;	Chosen strategy is simple_byte
  2353  000EB6  5028               	movf	??_BlinkDigit^0,w,c
  2354  000EB8  0A00               	xorlw	0	; case 0
  2355  000EBA  B4D8               	btfsc	status,2,c
  2356  000EBC  EF3F  F007         	goto	l1390
  2357  000EC0  0A01               	xorlw	1	; case 1
  2358  000EC2  B4D8               	btfsc	status,2,c
  2359  000EC4  EF45  F007         	goto	l1392
  2360  000EC8  0A03               	xorlw	3	; case 2
  2361  000ECA  B4D8               	btfsc	status,2,c
  2362  000ECC  EF4B  F007         	goto	l1394
  2363  000ED0  EF6A  F007         	goto	l330
  2364  000ED4                     l330:
  2365  000ED4  0012               	return		;funcret
  2366  000ED6                     __end_of_BlinkDigit:
  2367                           	callstack 0
  2368                           
  2369 ;; *************** function _my_isr_routine *****************
  2370 ;; Defined at:
  2371 ;;		line 298 in file "main.c"
  2372 ;; Parameters:    Size  Location     Type
  2373 ;;		None
  2374 ;; Auto vars:     Size  Location     Type
  2375 ;;		None
  2376 ;; Return value:  Size  Location     Type
  2377 ;;                  1    wreg      void 
  2378 ;; Registers used:
  2379 ;;		wreg, fsr2l, fsr2h, status,2, status,0, cstack
  2380 ;; Tracked objects:
  2381 ;;		On entry : 0/0
  2382 ;;		On exit  : 0/0
  2383 ;;		Unchanged: 0/0
  2384 ;; Data sizes:     COMRAM   BANK0   BANK1   BANK2   BANK3   BANK4   BANK5   BANK6   BANK7   BANK8   BANK9  BANK10  BANK1
      +1  BANK12  BANK13  BANK14  BANK15
  2385 ;;      Params:         0       0       0       0       0       0       0       0       0       0       0       0       
      +0       0       0       0       0
  2386 ;;      Locals:         0       0       0       0       0       0       0       0       0       0       0       0       
      +0       0       0       0       0
  2387 ;;      Temps:          2       0       0       0       0       0       0       0       0       0       0       0       
      +0       0       0       0       0
  2388 ;;      Totals:         2       0       0       0       0       0       0       0       0       0       0       0       
      +0       0       0       0       0
  2389 ;;Total ram usage:        2 bytes
  2390 ;; Hardware stack levels used: 1
  2391 ;; Hardware stack levels required when called: 3
  2392 ;; This function calls:
  2393 ;;		_INT0interruption
  2394 ;;		_INT1interruption
  2395 ;;		_INT2interruption
  2396 ;;		_TMR0interruption
  2397 ;;		_TMR1interruption
  2398 ;;		_TMR3interruption
  2399 ;; This function is called by:
  2400 ;;		Interrupt level 2
  2401 ;; This function uses a non-reentrant model
  2402 ;;
  2403                           
  2404                           	psect	intcode
  2405  000008                     __pintcode:
  2406                           	callstack 0
  2407  000008                     _my_isr_routine:
  2408                           	callstack 25
  2409                           
  2410                           ;incstack = 0
  2411  000008  8233               	bsf	int$flags,1,c	;set compiler interrupt flag (level 2)
  2412  00000A  EDF0  F007         	call	int_func,f	;refresh shadow registers
  2413                           
  2414                           	psect	intcode_body
  2415  000FE0                     __pintcode_body:
  2416                           	callstack 25
  2417  000FE0                     int_func:
  2418                           	callstack 25
  2419  000FE0  0006               	pop		; remove dummy address from shadow register refresh
  2420  000FE2  CFD9 F026          	movff	fsr2l,??_my_isr_routine
  2421  000FE6  CFDA F027          	movff	fsr2h,??_my_isr_routine+1
  2422  000FEA                     
  2423                           ;main.c: 300:     TMR0interruption();
  2424  000FEA  ECF5  F006         	call	_TMR0interruption	;wreg free
  2425  000FEE                     
  2426                           ;main.c: 301:     TMR1interruption();
  2427  000FEE  EC5F  F008         	call	_TMR1interruption	;wreg free
  2428  000FF2                     
  2429                           ;main.c: 302:     TMR3interruption();
  2430  000FF2  ECB3  F007         	call	_TMR3interruption	;wreg free
  2431  000FF6                     
  2432                           ;main.c: 305:     INT0interruption();
  2433  000FF6  EC83  F005         	call	_INT0interruption	;wreg free
  2434  000FFA                     
  2435                           ;main.c: 306:     INT1interruption();
  2436  000FFA  EC54  F004         	call	_INT1interruption	;wreg free
  2437  000FFE                     
  2438                           ;main.c: 307:     INT2interruption();
  2439  000FFE  EC07  F002         	call	_INT2interruption	;wreg free
  2440  001002  C027  FFDA         	movff	??_my_isr_routine+1,fsr2h
  2441  001006  C026  FFD9         	movff	??_my_isr_routine,fsr2l
  2442  00100A  9233               	bcf	int$flags,1,c	;clear compiler interrupt flag (level 2)
  2443  00100C  0011               	retfie		f
  2444  00100E                     __end_of_my_isr_routine:
  2445                           	callstack 0
  2446                           
  2447 ;; *************** function _TMR3interruption *****************
  2448 ;; Defined at:
  2449 ;;		line 442 in file "main.c"
  2450 ;; Parameters:    Size  Location     Type
  2451 ;;		None
  2452 ;; Auto vars:     Size  Location     Type
  2453 ;;		None
  2454 ;; Return value:  Size  Location     Type
  2455 ;;                  1    wreg      void 
  2456 ;; Registers used:
  2457 ;;		wreg, status,2
  2458 ;; Tracked objects:
  2459 ;;		On entry : 0/0
  2460 ;;		On exit  : 0/0
  2461 ;;		Unchanged: 0/0
  2462 ;; Data sizes:     COMRAM   BANK0   BANK1   BANK2   BANK3   BANK4   BANK5   BANK6   BANK7   BANK8   BANK9  BANK10  BANK1
      +1  BANK12  BANK13  BANK14  BANK15
  2463 ;;      Params:         0       0       0       0       0       0       0       0       0       0       0       0       
      +0       0       0       0       0
  2464 ;;      Locals:         0       0       0       0       0       0       0       0       0       0       0       0       
      +0       0       0       0       0
  2465 ;;      Temps:          0       0       0       0       0       0       0       0       0       0       0       0       
      +0       0       0       0       0
  2466 ;;      Totals:         0       0       0       0       0       0       0       0       0       0       0       0       
      +0       0       0       0       0
  2467 ;;Total ram usage:        0 bytes
  2468 ;; Hardware stack levels used: 1
  2469 ;; This function calls:
  2470 ;;		Nothing
  2471 ;; This function is called by:
  2472 ;;		_my_isr_routine
  2473 ;; This function uses a non-reentrant model
  2474 ;;
  2475                           
  2476                           	psect	text15
  2477  000F66                     __ptext15:
  2478                           	callstack 0
  2479  000F66                     _TMR3interruption:
  2480                           	callstack 27
  2481  000F66                     
  2482                           ;main.c: 444:     if(PIE2bits.TMR3IE == 1 && PIR2bits.TMR3IF == 1){
  2483  000F66  A2A0               	btfss	160,1,c	;volatile
  2484  000F68  EFB8  F007         	goto	i2u70_41
  2485  000F6C  EFBA  F007         	goto	i2u70_40
  2486  000F70                     i2u70_41:
  2487  000F70  EFD3  F007         	goto	i2l248
  2488  000F74                     i2u70_40:
  2489  000F74  A2A1               	btfss	161,1,c	;volatile
  2490  000F76  EFBF  F007         	goto	i2u71_41
  2491  000F7A  EFC1  F007         	goto	i2u71_40
  2492  000F7E                     i2u71_41:
  2493  000F7E  EFD3  F007         	goto	i2l248
  2494  000F82                     i2u71_40:
  2495  000F82                     
  2496                           ;main.c: 446:         if(BuzzerFlag){
  2497  000F82  5009               	movf	_BuzzerFlag^0,w,c
  2498  000F84  B4D8               	btfsc	status,2,c
  2499  000F86  EFC7  F007         	goto	i2u72_41
  2500  000F8A  EFC9  F007         	goto	i2u72_40
  2501  000F8E                     i2u72_41:
  2502  000F8E  EFCF  F007         	goto	i2l246
  2503  000F92                     i2u72_40:
  2504  000F92                     
  2505                           ;main.c: 447:             PORTCbits.RC0 = 0;
  2506  000F92  9082               	bcf	130,0,c	;volatile
  2507                           
  2508                           ;main.c: 448:             PIE2bits.TMR3IE = 0;
  2509  000F94  92A0               	bcf	160,1,c	;volatile
  2510  000F96                     
  2511                           ;main.c: 449:             BuzzerFlag = 0;
  2512  000F96  0E00               	movlw	0
  2513  000F98  6E09               	movwf	_BuzzerFlag^0,c
  2514                           
  2515                           ;main.c: 450:         }else{
  2516  000F9A  EFD2  F007         	goto	i2l1468
  2517  000F9E                     i2l246:
  2518                           
  2519                           ;main.c: 451:             PORTCbits.RC0 = 1;
  2520  000F9E  8082               	bsf	130,0,c	;volatile
  2521  000FA0                     
  2522                           ;main.c: 452:             BuzzerFlag = 1;
  2523  000FA0  0E01               	movlw	1
  2524  000FA2  6E09               	movwf	_BuzzerFlag^0,c
  2525  000FA4                     i2l1468:
  2526                           
  2527                           ;main.c: 456:         PIR2bits.TMR3IF = 0;
  2528  000FA4  92A1               	bcf	161,1,c	;volatile
  2529  000FA6                     i2l248:
  2530  000FA6  0012               	return		;funcret
  2531  000FA8                     __end_of_TMR3interruption:
  2532                           	callstack 0
  2533                           
  2534 ;; *************** function _TMR1interruption *****************
  2535 ;; Defined at:
  2536 ;;		line 433 in file "main.c"
  2537 ;; Parameters:    Size  Location     Type
  2538 ;;		None
  2539 ;; Auto vars:     Size  Location     Type
  2540 ;;		None
  2541 ;; Return value:  Size  Location     Type
  2542 ;;                  1    wreg      void 
  2543 ;; Registers used:
  2544 ;;		status,2, status,0
  2545 ;; Tracked objects:
  2546 ;;		On entry : 0/0
  2547 ;;		On exit  : 0/0
  2548 ;;		Unchanged: 0/0
  2549 ;; Data sizes:     COMRAM   BANK0   BANK1   BANK2   BANK3   BANK4   BANK5   BANK6   BANK7   BANK8   BANK9  BANK10  BANK1
      +1  BANK12  BANK13  BANK14  BANK15
  2550 ;;      Params:         0       0       0       0       0       0       0       0       0       0       0       0       
      +0       0       0       0       0
  2551 ;;      Locals:         0       0       0       0       0       0       0       0       0       0       0       0       
      +0       0       0       0       0
  2552 ;;      Temps:          0       0       0       0       0       0       0       0       0       0       0       0       
      +0       0       0       0       0
  2553 ;;      Totals:         0       0       0       0       0       0       0       0       0       0       0       0       
      +0       0       0       0       0
  2554 ;;Total ram usage:        0 bytes
  2555 ;; Hardware stack levels used: 1
  2556 ;; This function calls:
  2557 ;;		Nothing
  2558 ;; This function is called by:
  2559 ;;		_my_isr_routine
  2560 ;; This function uses a non-reentrant model
  2561 ;;
  2562                           
  2563                           	psect	text16
  2564  0010BE                     __ptext16:
  2565                           	callstack 0
  2566  0010BE                     _TMR1interruption:
  2567                           	callstack 27
  2568  0010BE                     
  2569                           ;main.c: 435:     if(PIE1bits.TMR1IE == 1 && PIR1bits.TMR1IF == 1){
  2570  0010BE  A09D               	btfss	157,0,c	;volatile
  2571  0010C0  EF64  F008         	goto	i2u68_41
  2572  0010C4  EF66  F008         	goto	i2u68_40
  2573  0010C8                     i2u68_41:
  2574  0010C8  EF6F  F008         	goto	i2l242
  2575  0010CC                     i2u68_40:
  2576  0010CC  A09E               	btfss	158,0,c	;volatile
  2577  0010CE  EF6B  F008         	goto	i2u69_41
  2578  0010D2  EF6D  F008         	goto	i2u69_40
  2579  0010D6                     i2u69_41:
  2580  0010D6  EF6F  F008         	goto	i2l242
  2581  0010DA                     i2u69_40:
  2582  0010DA                     
  2583                           ;main.c: 437:         Blink = ~Blink;
  2584  0010DA  1E11               	comf	_Blink^0,f,c
  2585  0010DC                     
  2586                           ;main.c: 439:         PIR1bits.TMR1IF = 0;
  2587  0010DC  909E               	bcf	158,0,c	;volatile
  2588  0010DE                     i2l242:
  2589  0010DE  0012               	return		;funcret
  2590  0010E0                     __end_of_TMR1interruption:
  2591                           	callstack 0
  2592                           
  2593 ;; *************** function _TMR0interruption *****************
  2594 ;; Defined at:
  2595 ;;		line 409 in file "main.c"
  2596 ;; Parameters:    Size  Location     Type
  2597 ;;		None
  2598 ;; Auto vars:     Size  Location     Type
  2599 ;;		None
  2600 ;; Return value:  Size  Location     Type
  2601 ;;                  1    wreg      void 
  2602 ;; Registers used:
  2603 ;;		wreg, status,2, status,0, cstack
  2604 ;; Tracked objects:
  2605 ;;		On entry : 0/0
  2606 ;;		On exit  : 0/0
  2607 ;;		Unchanged: 0/0
  2608 ;; Data sizes:     COMRAM   BANK0   BANK1   BANK2   BANK3   BANK4   BANK5   BANK6   BANK7   BANK8   BANK9  BANK10  BANK1
      +1  BANK12  BANK13  BANK14  BANK15
  2609 ;;      Params:         0       0       0       0       0       0       0       0       0       0       0       0       
      +0       0       0       0       0
  2610 ;;      Locals:         0       0       0       0       0       0       0       0       0       0       0       0       
      +0       0       0       0       0
  2611 ;;      Temps:          2       0       0       0       0       0       0       0       0       0       0       0       
      +0       0       0       0       0
  2612 ;;      Totals:         2       0       0       0       0       0       0       0       0       0       0       0       
      +0       0       0       0       0
  2613 ;;Total ram usage:        2 bytes
  2614 ;; Hardware stack levels used: 1
  2615 ;; Hardware stack levels required when called: 1
  2616 ;; This function calls:
  2617 ;;		i2_UpdateCurrentTime
  2618 ;; This function is called by:
  2619 ;;		_my_isr_routine
  2620 ;; This function uses a non-reentrant model
  2621 ;;
  2622                           
  2623                           	psect	text17
  2624  000DEA                     __ptext17:
  2625                           	callstack 0
  2626  000DEA                     _TMR0interruption:
  2627                           	callstack 26
  2628  000DEA                     
  2629                           ;main.c: 411:     if(INTCONbits.TMR0IE && INTCONbits.TMR0IF){
  2630  000DEA  AAF2               	btfss	242,5,c	;volatile
  2631  000DEC  EFFA  F006         	goto	i2u64_41
  2632  000DF0  EFFC  F006         	goto	i2u64_40
  2633  000DF4                     i2u64_41:
  2634  000DF4  EF3B  F007         	goto	i2l238
  2635  000DF8                     i2u64_40:
  2636  000DF8  A4F2               	btfss	242,2,c	;volatile
  2637  000DFA  EF01  F007         	goto	i2u65_41
  2638  000DFE  EF03  F007         	goto	i2u65_40
  2639  000E02                     i2u65_41:
  2640  000E02  EF3B  F007         	goto	i2l238
  2641  000E06                     i2u65_40:
  2642  000E06  EF29  F007         	goto	i2l1442
  2643  000E0A                     i2l1428:
  2644                           
  2645                           ;main.c: 415:                 UpdateCurrentTime();
  2646  000E0A  ECAF  F003         	call	i2_UpdateCurrentTime	;wreg free
  2647  000E0E                     
  2648                           ;main.c: 417:                 if(CurrentTime[2] == TargetTime[2] && CurrentTime[1] == Ta
      +                          rgetTime[1]) {
  2649  000E0E  5032               	movf	(_TargetTime+2)^0,w,c
  2650  000E10  181C               	xorwf	(_CurrentTime+2)^0,w,c
  2651  000E12  A4D8               	btfss	status,2,c
  2652  000E14  EF0E  F007         	goto	i2u66_41
  2653  000E18  EF10  F007         	goto	i2u66_40
  2654  000E1C                     i2u66_41:
  2655  000E1C  EF1F  F007         	goto	i2l1436
  2656  000E20                     i2u66_40:
  2657  000E20  5031               	movf	(_TargetTime+1)^0,w,c
  2658  000E22  181B               	xorwf	(_CurrentTime+1)^0,w,c
  2659  000E24  A4D8               	btfss	status,2,c
  2660  000E26  EF17  F007         	goto	i2u67_41
  2661  000E2A  EF19  F007         	goto	i2u67_40
  2662  000E2E                     i2u67_41:
  2663  000E2E  EF1F  F007         	goto	i2l1436
  2664  000E32                     i2u67_40:
  2665  000E32                     
  2666                           ;main.c: 418:                     WaterEnable = 1;
  2667  000E32  0E01               	movlw	1
  2668  000E34  6E0E               	movwf	_WaterEnable^0,c
  2669                           
  2670                           ;main.c: 420:                     State = 3;
  2671  000E36  0E03               	movlw	3
  2672  000E38  6E10               	movwf	_State^0,c
  2673                           
  2674                           ;main.c: 421:                 }else{
  2675  000E3A  EF3A  F007         	goto	i2l236
  2676  000E3E                     i2l1436:
  2677                           
  2678                           ;main.c: 422:                     WaterEnable = 0;
  2679  000E3E  0E00               	movlw	0
  2680  000E40  6E0E               	movwf	_WaterEnable^0,c
  2681                           
  2682                           ;main.c: 423:                     WaterEnableLock = 0;
  2683  000E42  0E00               	movlw	0
  2684  000E44  6E0D               	movwf	_WaterEnableLock^0,c
  2685  000E46  EF3A  F007         	goto	i2l236
  2686  000E4A                     i2l1438:
  2687                           
  2688                           ;main.c: 427:                 UpdateTimeFlag = 1;
  2689  000E4A  0E01               	movlw	1
  2690  000E4C  6E0F               	movwf	_UpdateTimeFlag^0,c
  2691                           
  2692                           ;main.c: 428:                 break;
  2693  000E4E  EF3A  F007         	goto	i2l236
  2694  000E52                     i2l1442:
  2695  000E52  5010               	movf	_State^0,w,c
  2696  000E54  6E1D               	movwf	??_TMR0interruption^0,c
  2697  000E56  6A1E               	clrf	(??_TMR0interruption+1)^0,c
  2698                           
  2699                           ; Switch on 2 bytes has been partitioned into a top level switch of size 1, and 1 sub-sw
      +                          itches
  2700                           ; Switch size 1, requested type "simple"
  2701                           ; Number of cases is 1, Range of values is 0 to 0
  2702                           ; switch strategies available:
  2703                           ; Name         Instructions Cycles
  2704                           ; simple_byte            4     3 (average)
  2705                           ;	Chosen strategy is simple_byte
  2706  000E58  501E               	movf	(??_TMR0interruption+1)^0,w,c
  2707  000E5A  0A00               	xorlw	0	; case 0
  2708  000E5C  B4D8               	btfsc	status,2,c
  2709  000E5E  EF33  F007         	goto	i2l2390
  2710  000E62  EF25  F007         	goto	i2l1438
  2711  000E66                     i2l2390:
  2712                           
  2713                           ; Switch size 1, requested type "simple"
  2714                           ; Number of cases is 1, Range of values is 2 to 2
  2715                           ; switch strategies available:
  2716                           ; Name         Instructions Cycles
  2717                           ; simple_byte            4     3 (average)
  2718                           ;	Chosen strategy is simple_byte
  2719  000E66  501D               	movf	??_TMR0interruption^0,w,c
  2720  000E68  0A02               	xorlw	2	; case 2
  2721  000E6A  B4D8               	btfsc	status,2,c
  2722  000E6C  EF05  F007         	goto	i2l1428
  2723  000E70  EF25  F007         	goto	i2l1438
  2724  000E74                     i2l236:
  2725                           
  2726                           ;main.c: 430:         INTCONbits.TMR0IF = 0;
  2727  000E74  94F2               	bcf	242,2,c	;volatile
  2728  000E76                     i2l238:
  2729  000E76  0012               	return		;funcret
  2730  000E78                     __end_of_TMR0interruption:
  2731                           	callstack 0
  2732                           
  2733 ;; *************** function _INT2interruption *****************
  2734 ;; Defined at:
  2735 ;;		line 583 in file "main.c"
  2736 ;; Parameters:    Size  Location     Type
  2737 ;;		None
  2738 ;; Auto vars:     Size  Location     Type
  2739 ;;		None
  2740 ;; Return value:  Size  Location     Type
  2741 ;;                  1    wreg      void 
  2742 ;; Registers used:
  2743 ;;		wreg, status,2, status,0, cstack
  2744 ;; Tracked objects:
  2745 ;;		On entry : 0/0
  2746 ;;		On exit  : 0/0
  2747 ;;		Unchanged: 0/0
  2748 ;; Data sizes:     COMRAM   BANK0   BANK1   BANK2   BANK3   BANK4   BANK5   BANK6   BANK7   BANK8   BANK9  BANK10  BANK1
      +1  BANK12  BANK13  BANK14  BANK15
  2749 ;;      Params:         0       0       0       0       0       0       0       0       0       0       0       0       
      +0       0       0       0       0
  2750 ;;      Locals:         0       0       0       0       0       0       0       0       0       0       0       0       
      +0       0       0       0       0
  2751 ;;      Temps:          2       0       0       0       0       0       0       0       0       0       0       0       
      +0       0       0       0       0
  2752 ;;      Totals:         2       0       0       0       0       0       0       0       0       0       0       0       
      +0       0       0       0       0
  2753 ;;Total ram usage:        2 bytes
  2754 ;; Hardware stack levels used: 1
  2755 ;; Hardware stack levels required when called: 2
  2756 ;; This function calls:
  2757 ;;		_Buzz
  2758 ;;		_ChangeTime
  2759 ;;		i2_SubBCD
  2760 ;;		i2_WakeUp
  2761 ;; This function is called by:
  2762 ;;		_my_isr_routine
  2763 ;; This function uses a non-reentrant model
  2764 ;;
  2765                           
  2766                           	psect	text18
  2767  00040E                     __ptext18:
  2768                           	callstack 0
  2769  00040E                     _INT2interruption:
  2770                           	callstack 25
  2771  00040E                     
  2772                           ;main.c: 585:     if(INTCON3bits.INT2IE == 1 && INTCON3bits.INT2IF == 1){
  2773  00040E  A8F0               	btfss	240,4,c	;volatile
  2774  000410  EF0C  F002         	goto	i2u155_41
  2775  000414  EF0E  F002         	goto	i2u155_40
  2776  000418                     i2u155_41:
  2777  000418  EF09  F003         	goto	i2l312
  2778  00041C                     i2u155_40:
  2779  00041C  A2F0               	btfss	240,1,c	;volatile
  2780  00041E  EF13  F002         	goto	i2u156_41
  2781  000422  EF15  F002         	goto	i2u156_40
  2782  000426                     i2u156_41:
  2783  000426  EF09  F003         	goto	i2l312
  2784  00042A                     i2u156_40:
  2785  00042A                     
  2786                           ;main.c: 587:         Buzz();
  2787  00042A  ECB4  F008         	call	_Buzz	;wreg free
  2788                           
  2789                           ;main.c: 590:         switch(State){
  2790  00042E  EFD3  F002         	goto	i2l2182
  2791  000432                     i2l2120:
  2792                           
  2793                           ;main.c: 593:                 if(CurrentTime[1] == 0x00) CurrentTime[1] = 0x59;
  2794  000432  501B               	movf	(_CurrentTime+1)^0,w,c
  2795  000434  A4D8               	btfss	status,2,c
  2796  000436  EF1F  F002         	goto	i2u157_41
  2797  00043A  EF21  F002         	goto	i2u157_40
  2798  00043E                     i2u157_41:
  2799  00043E  EF25  F002         	goto	i2l2124
  2800  000442                     i2u157_40:
  2801  000442  0E59               	movlw	89
  2802  000444  6E1B               	movwf	(_CurrentTime+1)^0,c
  2803  000446  EF2B  F002         	goto	i2l2126
  2804  00044A                     i2l2124:
  2805  00044A  0E01               	movlw	1
  2806  00044C  6E1D               	movwf	i2SubBCD@Number2^0,c
  2807  00044E  501B               	movf	(_CurrentTime+1)^0,w,c
  2808  000450  EC33  F008         	call	i2_SubBCD
  2809  000454  6E1B               	movwf	(_CurrentTime+1)^0,c
  2810  000456                     i2l2126:
  2811                           
  2812                           ;main.c: 596:                 ChangeTime(0x00, 0x00);
  2813  000456  0E00               	movlw	0
  2814  000458  6E1D               	movwf	ChangeTime@Time^0,c
  2815  00045A  0E00               	movlw	0
  2816  00045C  EC08  F006         	call	_ChangeTime
  2817  000460                     
  2818                           ;main.c: 597:                 ChangeTime(0x01, CurrentTime[1]);
  2819  000460  C01B  F01D         	movff	_CurrentTime+1,ChangeTime@Time
  2820  000464  0E01               	movlw	1
  2821  000466  EC08  F006         	call	_ChangeTime
  2822                           
  2823                           ;main.c: 598:                 break;
  2824  00046A  EF08  F003         	goto	i2l288
  2825  00046E                     i2l2130:
  2826                           
  2827                           ;main.c: 600:                 if(CurrentTime[2] == 0x00) CurrentTime[2] = 0x23;
  2828  00046E  501C               	movf	(_CurrentTime+2)^0,w,c
  2829  000470  A4D8               	btfss	status,2,c
  2830  000472  EF3D  F002         	goto	i2u158_41
  2831  000476  EF3F  F002         	goto	i2u158_40
  2832  00047A                     i2u158_41:
  2833  00047A  EF43  F002         	goto	i2l2134
  2834  00047E                     i2u158_40:
  2835  00047E  0E23               	movlw	35
  2836  000480  6E1C               	movwf	(_CurrentTime+2)^0,c
  2837  000482  EF49  F002         	goto	i2l2136
  2838  000486                     i2l2134:
  2839  000486  0E01               	movlw	1
  2840  000488  6E1D               	movwf	i2SubBCD@Number2^0,c
  2841  00048A  501C               	movf	(_CurrentTime+2)^0,w,c
  2842  00048C  EC33  F008         	call	i2_SubBCD
  2843  000490  6E1C               	movwf	(_CurrentTime+2)^0,c
  2844  000492                     i2l2136:
  2845                           
  2846                           ;main.c: 603:                 ChangeTime(0x00, 0x00);
  2847  000492  0E00               	movlw	0
  2848  000494  6E1D               	movwf	ChangeTime@Time^0,c
  2849  000496  0E00               	movlw	0
  2850  000498  EC08  F006         	call	_ChangeTime
  2851  00049C                     
  2852                           ;main.c: 604:                 ChangeTime(0x02, CurrentTime[2]);
  2853  00049C  C01C  F01D         	movff	_CurrentTime+2,ChangeTime@Time
  2854  0004A0  0E02               	movlw	2
  2855  0004A2  EC08  F006         	call	_ChangeTime
  2856                           
  2857                           ;main.c: 605:                 break;
  2858  0004A6  EF08  F003         	goto	i2l288
  2859  0004AA                     i2l2140:
  2860                           
  2861                           ;main.c: 609:                 WakeUp();
  2862  0004AA  ECA8  F006         	call	i2_WakeUp	;wreg free
  2863  0004AE                     
  2864                           ;main.c: 611:                 State = 3;
  2865  0004AE  0E03               	movlw	3
  2866  0004B0  6E10               	movwf	_State^0,c
  2867                           
  2868                           ;main.c: 613:                 break;
  2869  0004B2  EF08  F003         	goto	i2l288
  2870  0004B6                     i2l2144:
  2871                           
  2872                           ;main.c: 620:                 if(TargetTime[1] == 0x00) TargetTime[1] = 0x59;
  2873  0004B6  5031               	movf	(_TargetTime+1)^0,w,c
  2874  0004B8  A4D8               	btfss	status,2,c
  2875  0004BA  EF61  F002         	goto	i2u159_41
  2876  0004BE  EF63  F002         	goto	i2u159_40
  2877  0004C2                     i2u159_41:
  2878  0004C2  EF67  F002         	goto	i2l2148
  2879  0004C6                     i2u159_40:
  2880  0004C6  0E59               	movlw	89
  2881  0004C8  6E31               	movwf	(_TargetTime+1)^0,c
  2882  0004CA  EF08  F003         	goto	i2l288
  2883  0004CE                     i2l2148:
  2884  0004CE  0E01               	movlw	1
  2885  0004D0  6E1D               	movwf	i2SubBCD@Number2^0,c
  2886  0004D2  5031               	movf	(_TargetTime+1)^0,w,c
  2887  0004D4  EC33  F008         	call	i2_SubBCD
  2888  0004D8  6E31               	movwf	(_TargetTime+1)^0,c
  2889  0004DA  EF08  F003         	goto	i2l288
  2890  0004DE                     i2l2150:
  2891                           
  2892                           ;main.c: 625:                 if(TargetTime[2] == 0x00) TargetTime[2] = 0x23;
  2893  0004DE  5032               	movf	(_TargetTime+2)^0,w,c
  2894  0004E0  A4D8               	btfss	status,2,c
  2895  0004E2  EF75  F002         	goto	i2u160_41
  2896  0004E6  EF77  F002         	goto	i2u160_40
  2897  0004EA                     i2u160_41:
  2898  0004EA  EF7B  F002         	goto	i2l2154
  2899  0004EE                     i2u160_40:
  2900  0004EE  0E23               	movlw	35
  2901  0004F0  6E32               	movwf	(_TargetTime+2)^0,c
  2902  0004F2  EF08  F003         	goto	i2l288
  2903  0004F6                     i2l2154:
  2904  0004F6  0E01               	movlw	1
  2905  0004F8  6E1D               	movwf	i2SubBCD@Number2^0,c
  2906  0004FA  5032               	movf	(_TargetTime+2)^0,w,c
  2907  0004FC  EC33  F008         	call	i2_SubBCD
  2908  000500  6E32               	movwf	(_TargetTime+2)^0,c
  2909  000502  EF08  F003         	goto	i2l288
  2910  000506                     i2l2156:
  2911                           
  2912                           ;main.c: 629:                 if(WateringTime[0] == 0x00) WateringTime[0] = 0x59;
  2913  000506  5017               	movf	_WateringTime^0,w,c
  2914  000508  A4D8               	btfss	status,2,c
  2915  00050A  EF89  F002         	goto	i2u161_41
  2916  00050E  EF8B  F002         	goto	i2u161_40
  2917  000512                     i2u161_41:
  2918  000512  EF8F  F002         	goto	i2l2160
  2919  000516                     i2u161_40:
  2920  000516  0E59               	movlw	89
  2921  000518  6E17               	movwf	_WateringTime^0,c
  2922  00051A  EF08  F003         	goto	i2l288
  2923  00051E                     i2l2160:
  2924  00051E  0E01               	movlw	1
  2925  000520  6E1D               	movwf	i2SubBCD@Number2^0,c
  2926  000522  5017               	movf	_WateringTime^0,w,c
  2927  000524  EC33  F008         	call	i2_SubBCD
  2928  000528  6E17               	movwf	_WateringTime^0,c
  2929  00052A  EF08  F003         	goto	i2l288
  2930  00052E                     i2l2162:
  2931                           
  2932                           ;main.c: 634:                 if(WateringTime[1] == 0x00) WateringTime[1] = 0x59;
  2933  00052E  5018               	movf	(_WateringTime+1)^0,w,c
  2934  000530  A4D8               	btfss	status,2,c
  2935  000532  EF9D  F002         	goto	i2u162_41
  2936  000536  EF9F  F002         	goto	i2u162_40
  2937  00053A                     i2u162_41:
  2938  00053A  EFA3  F002         	goto	i2l2166
  2939  00053E                     i2u162_40:
  2940  00053E  0E59               	movlw	89
  2941  000540  6E18               	movwf	(_WateringTime+1)^0,c
  2942  000542  EF08  F003         	goto	i2l288
  2943  000546                     i2l2166:
  2944  000546  0E01               	movlw	1
  2945  000548  6E1D               	movwf	i2SubBCD@Number2^0,c
  2946  00054A  5018               	movf	(_WateringTime+1)^0,w,c
  2947  00054C  EC33  F008         	call	i2_SubBCD
  2948  000550  6E18               	movwf	(_WateringTime+1)^0,c
  2949  000552  EF08  F003         	goto	i2l288
  2950  000556                     i2l2168:
  2951                           
  2952                           ;main.c: 639:                 if(ValveTime[0] == 0x00) ValveTime[0] = 0x59;
  2953  000556  5014               	movf	_ValveTime^0,w,c
  2954  000558  A4D8               	btfss	status,2,c
  2955  00055A  EFB1  F002         	goto	i2u163_41
  2956  00055E  EFB3  F002         	goto	i2u163_40
  2957  000562                     i2u163_41:
  2958  000562  EFB7  F002         	goto	i2l2172
  2959  000566                     i2u163_40:
  2960  000566  0E59               	movlw	89
  2961  000568  6E14               	movwf	_ValveTime^0,c
  2962  00056A  EF08  F003         	goto	i2l288
  2963  00056E                     i2l2172:
  2964  00056E  0E01               	movlw	1
  2965  000570  6E1D               	movwf	i2SubBCD@Number2^0,c
  2966  000572  5014               	movf	_ValveTime^0,w,c
  2967  000574  EC33  F008         	call	i2_SubBCD
  2968  000578  6E14               	movwf	_ValveTime^0,c
  2969  00057A  EF08  F003         	goto	i2l288
  2970  00057E                     i2l2174:
  2971                           
  2972                           ;main.c: 644:                 if(ValveTime[1] == 0x00) ValveTime[1] = 0x59;
  2973  00057E  5015               	movf	(_ValveTime+1)^0,w,c
  2974  000580  A4D8               	btfss	status,2,c
  2975  000582  EFC5  F002         	goto	i2u164_41
  2976  000586  EFC7  F002         	goto	i2u164_40
  2977  00058A                     i2u164_41:
  2978  00058A  EFCB  F002         	goto	i2l2178
  2979  00058E                     i2u164_40:
  2980  00058E  0E59               	movlw	89
  2981  000590  6E15               	movwf	(_ValveTime+1)^0,c
  2982  000592  EF08  F003         	goto	i2l288
  2983  000596                     i2l2178:
  2984  000596  0E01               	movlw	1
  2985  000598  6E1D               	movwf	i2SubBCD@Number2^0,c
  2986  00059A  5015               	movf	(_ValveTime+1)^0,w,c
  2987  00059C  EC33  F008         	call	i2_SubBCD
  2988  0005A0  6E15               	movwf	(_ValveTime+1)^0,c
  2989  0005A2  EF08  F003         	goto	i2l288
  2990  0005A6                     i2l2182:
  2991  0005A6  5010               	movf	_State^0,w,c
  2992  0005A8  6E22               	movwf	??_INT2interruption^0,c
  2993  0005AA  6A23               	clrf	(??_INT2interruption+1)^0,c
  2994                           
  2995                           ; Switch on 2 bytes has been partitioned into a top level switch of size 1, and 1 sub-sw
      +                          itches
  2996                           ; Switch size 1, requested type "simple"
  2997                           ; Number of cases is 1, Range of values is 0 to 0
  2998                           ; switch strategies available:
  2999                           ; Name         Instructions Cycles
  3000                           ; simple_byte            4     3 (average)
  3001                           ;	Chosen strategy is simple_byte
  3002  0005AC  5023               	movf	(??_INT2interruption+1)^0,w,c
  3003  0005AE  0A00               	xorlw	0	; case 0
  3004  0005B0  B4D8               	btfsc	status,2,c
  3005  0005B2  EFDD  F002         	goto	i2l2392
  3006  0005B6  EF08  F003         	goto	i2l288
  3007  0005BA                     i2l2392:
  3008                           
  3009                           ; Switch size 1, requested type "simple"
  3010                           ; Number of cases is 10, Range of values is 0 to 9
  3011                           ; switch strategies available:
  3012                           ; Name         Instructions Cycles
  3013                           ; simple_byte           31    16 (average)
  3014                           ;	Chosen strategy is simple_byte
  3015  0005BA  5022               	movf	??_INT2interruption^0,w,c
  3016  0005BC  0A00               	xorlw	0	; case 0
  3017  0005BE  B4D8               	btfsc	status,2,c
  3018  0005C0  EF19  F002         	goto	i2l2120
  3019  0005C4  0A01               	xorlw	1	; case 1
  3020  0005C6  B4D8               	btfsc	status,2,c
  3021  0005C8  EF37  F002         	goto	i2l2130
  3022  0005CC  0A03               	xorlw	3	; case 2
  3023  0005CE  B4D8               	btfsc	status,2,c
  3024  0005D0  EF55  F002         	goto	i2l2140
  3025  0005D4  0A01               	xorlw	1	; case 3
  3026  0005D6  B4D8               	btfsc	status,2,c
  3027  0005D8  EF08  F003         	goto	i2l288
  3028  0005DC  0A07               	xorlw	7	; case 4
  3029  0005DE  B4D8               	btfsc	status,2,c
  3030  0005E0  EF5B  F002         	goto	i2l2144
  3031  0005E4  0A01               	xorlw	1	; case 5
  3032  0005E6  B4D8               	btfsc	status,2,c
  3033  0005E8  EF6F  F002         	goto	i2l2150
  3034  0005EC  0A03               	xorlw	3	; case 6
  3035  0005EE  B4D8               	btfsc	status,2,c
  3036  0005F0  EF83  F002         	goto	i2l2156
  3037  0005F4  0A01               	xorlw	1	; case 7
  3038  0005F6  B4D8               	btfsc	status,2,c
  3039  0005F8  EF97  F002         	goto	i2l2162
  3040  0005FC  0A0F               	xorlw	15	; case 8
  3041  0005FE  B4D8               	btfsc	status,2,c
  3042  000600  EFAB  F002         	goto	i2l2168
  3043  000604  0A01               	xorlw	1	; case 9
  3044  000606  B4D8               	btfsc	status,2,c
  3045  000608  EFBF  F002         	goto	i2l2174
  3046  00060C  EF08  F003         	goto	i2l288
  3047  000610                     i2l288:
  3048                           
  3049                           ;main.c: 649:         INTCON3bits.INT2IF = 0;
  3050  000610  92F0               	bcf	240,1,c	;volatile
  3051  000612                     i2l312:
  3052  000612  0012               	return		;funcret
  3053  000614                     __end_of_INT2interruption:
  3054                           	callstack 0
  3055                           
  3056 ;; *************** function _INT1interruption *****************
  3057 ;; Defined at:
  3058 ;;		line 526 in file "main.c"
  3059 ;; Parameters:    Size  Location     Type
  3060 ;;		None
  3061 ;; Auto vars:     Size  Location     Type
  3062 ;;		None
  3063 ;; Return value:  Size  Location     Type
  3064 ;;                  1    wreg      void 
  3065 ;; Registers used:
  3066 ;;		wreg, fsr2l, fsr2h, status,2, status,0, cstack
  3067 ;; Tracked objects:
  3068 ;;		On entry : 0/0
  3069 ;;		On exit  : 0/0
  3070 ;;		Unchanged: 0/0
  3071 ;; Data sizes:     COMRAM   BANK0   BANK1   BANK2   BANK3   BANK4   BANK5   BANK6   BANK7   BANK8   BANK9  BANK10  BANK1
      +1  BANK12  BANK13  BANK14  BANK15
  3072 ;;      Params:         0       0       0       0       0       0       0       0       0       0       0       0       
      +0       0       0       0       0
  3073 ;;      Locals:         0       0       0       0       0       0       0       0       0       0       0       0       
      +0       0       0       0       0
  3074 ;;      Temps:          2       0       0       0       0       0       0       0       0       0       0       0       
      +0       0       0       0       0
  3075 ;;      Totals:         2       0       0       0       0       0       0       0       0       0       0       0       
      +0       0       0       0       0
  3076 ;;Total ram usage:        2 bytes
  3077 ;; Hardware stack levels used: 1
  3078 ;; Hardware stack levels required when called: 2
  3079 ;; This function calls:
  3080 ;;		_Buzz
  3081 ;;		_ChangeTime
  3082 ;;		_IncrementTime
  3083 ;;		_IncrementTimeHour
  3084 ;;		i2_WakeUp
  3085 ;; This function is called by:
  3086 ;;		_my_isr_routine
  3087 ;; This function uses a non-reentrant model
  3088 ;;
  3089                           
  3090                           	psect	text19
  3091  0008A8                     __ptext19:
  3092                           	callstack 0
  3093  0008A8                     _INT1interruption:
  3094                           	callstack 25
  3095  0008A8                     
  3096                           ;main.c: 528:     if(INTCON3bits.INT1IE == 1 && INTCON3bits.INT1IF == 1){
  3097  0008A8  A6F0               	btfss	240,3,c	;volatile
  3098  0008AA  EF59  F004         	goto	i2u153_41
  3099  0008AE  EF5B  F004         	goto	i2u153_40
  3100  0008B2                     i2u153_41:
  3101  0008B2  EFF6  F004         	goto	i2l280
  3102  0008B6                     i2u153_40:
  3103  0008B6  A0F0               	btfss	240,0,c	;volatile
  3104  0008B8  EF60  F004         	goto	i2u154_41
  3105  0008BC  EF62  F004         	goto	i2u154_40
  3106  0008C0                     i2u154_41:
  3107  0008C0  EFF6  F004         	goto	i2l280
  3108  0008C4                     i2u154_40:
  3109  0008C4                     
  3110                           ;main.c: 530:         Buzz();
  3111  0008C4  ECB4  F008         	call	_Buzz	;wreg free
  3112                           
  3113                           ;main.c: 533:         switch(State){
  3114  0008C8  EFC0  F004         	goto	i2l2108
  3115  0008CC                     i2l2078:
  3116                           
  3117                           ;main.c: 535:                 IncrementTime(&CurrentTime[1]);
  3118  0008CC  0E1B               	movlw	low (_CurrentTime+1)
  3119  0008CE  6E21               	movwf	IncrementTime@Time^0,c
  3120  0008D0  0E00               	movlw	high (_CurrentTime+1)
  3121  0008D2  6E22               	movwf	(IncrementTime@Time+1)^0,c
  3122  0008D4  EC8F  F007         	call	_IncrementTime	;wreg free
  3123  0008D8                     
  3124                           ;main.c: 536:                 ChangeTime(0x00, 0x00);
  3125  0008D8  0E00               	movlw	0
  3126  0008DA  6E1D               	movwf	ChangeTime@Time^0,c
  3127  0008DC  0E00               	movlw	0
  3128  0008DE  EC08  F006         	call	_ChangeTime
  3129  0008E2                     
  3130                           ;main.c: 537:                 ChangeTime(0x01, CurrentTime[1]);
  3131  0008E2  C01B  F01D         	movff	_CurrentTime+1,ChangeTime@Time
  3132  0008E6  0E01               	movlw	1
  3133  0008E8  EC08  F006         	call	_ChangeTime
  3134                           
  3135                           ;main.c: 538:                 break;
  3136  0008EC  EFF5  F004         	goto	i2l270
  3137  0008F0                     i2l2084:
  3138                           
  3139                           ;main.c: 541:                 IncrementTimeHour(&CurrentTime[2]);
  3140  0008F0  0E1C               	movlw	low (_CurrentTime+2)
  3141  0008F2  6E21               	movwf	IncrementTimeHour@Time^0,c
  3142  0008F4  0E00               	movlw	high (_CurrentTime+2)
  3143  0008F6  6E22               	movwf	(IncrementTimeHour@Time+1)^0,c
  3144  0008F8  EC6B  F007         	call	_IncrementTimeHour	;wreg free
  3145  0008FC                     
  3146                           ;main.c: 542:                 ChangeTime(0x00, 0x00);
  3147  0008FC  0E00               	movlw	0
  3148  0008FE  6E1D               	movwf	ChangeTime@Time^0,c
  3149  000900  0E00               	movlw	0
  3150  000902  EC08  F006         	call	_ChangeTime
  3151  000906                     
  3152                           ;main.c: 543:                 ChangeTime(0x02, CurrentTime[2]);
  3153  000906  C01C  F01D         	movff	_CurrentTime+2,ChangeTime@Time
  3154  00090A  0E02               	movlw	2
  3155  00090C  EC08  F006         	call	_ChangeTime
  3156                           
  3157                           ;main.c: 544:                 break;
  3158  000910  EFF5  F004         	goto	i2l270
  3159  000914                     i2l2090:
  3160                           
  3161                           ;main.c: 547:                 WakeUp();
  3162  000914  ECA8  F006         	call	i2_WakeUp	;wreg free
  3163  000918                     
  3164                           ;main.c: 548:                 State = 3;
  3165  000918  0E03               	movlw	3
  3166  00091A  6E10               	movwf	_State^0,c
  3167                           
  3168                           ;main.c: 549:                 break;
  3169  00091C  EFF5  F004         	goto	i2l270
  3170  000920                     i2l2094:
  3171                           
  3172                           ;main.c: 556:                 IncrementTime(&TargetTime[1]);
  3173  000920  0E31               	movlw	low (_TargetTime+1)
  3174  000922  6E21               	movwf	IncrementTime@Time^0,c
  3175  000924  0E00               	movlw	high (_TargetTime+1)
  3176  000926  6E22               	movwf	(IncrementTime@Time+1)^0,c
  3177  000928  EC8F  F007         	call	_IncrementTime	;wreg free
  3178                           
  3179                           ;main.c: 557:                 break;
  3180  00092C  EFF5  F004         	goto	i2l270
  3181  000930                     i2l2096:
  3182                           
  3183                           ;main.c: 560:                 IncrementTimeHour(&TargetTime[2]);
  3184  000930  0E32               	movlw	low (_TargetTime+2)
  3185  000932  6E21               	movwf	IncrementTimeHour@Time^0,c
  3186  000934  0E00               	movlw	high (_TargetTime+2)
  3187  000936  6E22               	movwf	(IncrementTimeHour@Time+1)^0,c
  3188  000938  EC6B  F007         	call	_IncrementTimeHour	;wreg free
  3189                           
  3190                           ;main.c: 561:                 break;
  3191  00093C  EFF5  F004         	goto	i2l270
  3192  000940                     i2l2098:
  3193                           
  3194                           ;main.c: 564:                 IncrementTime(&WateringTime[0]);
  3195  000940  0E17               	movlw	low _WateringTime
  3196  000942  6E21               	movwf	IncrementTime@Time^0,c
  3197  000944  0E00               	movlw	high _WateringTime
  3198  000946  6E22               	movwf	(IncrementTime@Time+1)^0,c
  3199  000948  EC8F  F007         	call	_IncrementTime	;wreg free
  3200                           
  3201                           ;main.c: 565:                 break;
  3202  00094C  EFF5  F004         	goto	i2l270
  3203  000950                     i2l2100:
  3204                           
  3205                           ;main.c: 568:                 IncrementTime(&WateringTime[1]);
  3206  000950  0E18               	movlw	low (_WateringTime+1)
  3207  000952  6E21               	movwf	IncrementTime@Time^0,c
  3208  000954  0E00               	movlw	high (_WateringTime+1)
  3209  000956  6E22               	movwf	(IncrementTime@Time+1)^0,c
  3210  000958  EC8F  F007         	call	_IncrementTime	;wreg free
  3211                           
  3212                           ;main.c: 569:                 break;
  3213  00095C  EFF5  F004         	goto	i2l270
  3214  000960                     i2l2102:
  3215                           
  3216                           ;main.c: 572:                 IncrementTime(&ValveTime[0]);
  3217  000960  0E14               	movlw	low _ValveTime
  3218  000962  6E21               	movwf	IncrementTime@Time^0,c
  3219  000964  0E00               	movlw	high _ValveTime
  3220  000966  6E22               	movwf	(IncrementTime@Time+1)^0,c
  3221  000968  EC8F  F007         	call	_IncrementTime	;wreg free
  3222                           
  3223                           ;main.c: 573:                 break;
  3224  00096C  EFF5  F004         	goto	i2l270
  3225  000970                     i2l2104:
  3226                           
  3227                           ;main.c: 576:                 IncrementTime(&ValveTime[1]);
  3228  000970  0E15               	movlw	low (_ValveTime+1)
  3229  000972  6E21               	movwf	IncrementTime@Time^0,c
  3230  000974  0E00               	movlw	high (_ValveTime+1)
  3231  000976  6E22               	movwf	(IncrementTime@Time+1)^0,c
  3232  000978  EC8F  F007         	call	_IncrementTime	;wreg free
  3233                           
  3234                           ;main.c: 577:                 break;
  3235  00097C  EFF5  F004         	goto	i2l270
  3236  000980                     i2l2108:
  3237  000980  5010               	movf	_State^0,w,c
  3238  000982  6E24               	movwf	??_INT1interruption^0,c
  3239  000984  6A25               	clrf	(??_INT1interruption+1)^0,c
  3240                           
  3241                           ; Switch on 2 bytes has been partitioned into a top level switch of size 1, and 1 sub-sw
      +                          itches
  3242                           ; Switch size 1, requested type "simple"
  3243                           ; Number of cases is 1, Range of values is 0 to 0
  3244                           ; switch strategies available:
  3245                           ; Name         Instructions Cycles
  3246                           ; simple_byte            4     3 (average)
  3247                           ;	Chosen strategy is simple_byte
  3248  000986  5025               	movf	(??_INT1interruption+1)^0,w,c
  3249  000988  0A00               	xorlw	0	; case 0
  3250  00098A  B4D8               	btfsc	status,2,c
  3251  00098C  EFCA  F004         	goto	i2l2394
  3252  000990  EFF5  F004         	goto	i2l270
  3253  000994                     i2l2394:
  3254                           
  3255                           ; Switch size 1, requested type "simple"
  3256                           ; Number of cases is 10, Range of values is 0 to 9
  3257                           ; switch strategies available:
  3258                           ; Name         Instructions Cycles
  3259                           ; simple_byte           31    16 (average)
  3260                           ;	Chosen strategy is simple_byte
  3261  000994  5024               	movf	??_INT1interruption^0,w,c
  3262  000996  0A00               	xorlw	0	; case 0
  3263  000998  B4D8               	btfsc	status,2,c
  3264  00099A  EF66  F004         	goto	i2l2078
  3265  00099E  0A01               	xorlw	1	; case 1
  3266  0009A0  B4D8               	btfsc	status,2,c
  3267  0009A2  EF78  F004         	goto	i2l2084
  3268  0009A6  0A03               	xorlw	3	; case 2
  3269  0009A8  B4D8               	btfsc	status,2,c
  3270  0009AA  EF8A  F004         	goto	i2l2090
  3271  0009AE  0A01               	xorlw	1	; case 3
  3272  0009B0  B4D8               	btfsc	status,2,c
  3273  0009B2  EFF5  F004         	goto	i2l270
  3274  0009B6  0A07               	xorlw	7	; case 4
  3275  0009B8  B4D8               	btfsc	status,2,c
  3276  0009BA  EF90  F004         	goto	i2l2094
  3277  0009BE  0A01               	xorlw	1	; case 5
  3278  0009C0  B4D8               	btfsc	status,2,c
  3279  0009C2  EF98  F004         	goto	i2l2096
  3280  0009C6  0A03               	xorlw	3	; case 6
  3281  0009C8  B4D8               	btfsc	status,2,c
  3282  0009CA  EFA0  F004         	goto	i2l2098
  3283  0009CE  0A01               	xorlw	1	; case 7
  3284  0009D0  B4D8               	btfsc	status,2,c
  3285  0009D2  EFA8  F004         	goto	i2l2100
  3286  0009D6  0A0F               	xorlw	15	; case 8
  3287  0009D8  B4D8               	btfsc	status,2,c
  3288  0009DA  EFB0  F004         	goto	i2l2102
  3289  0009DE  0A01               	xorlw	1	; case 9
  3290  0009E0  B4D8               	btfsc	status,2,c
  3291  0009E2  EFB8  F004         	goto	i2l2104
  3292  0009E6  EFF5  F004         	goto	i2l270
  3293  0009EA                     i2l270:
  3294                           
  3295                           ;main.c: 580:         INTCON3bits.INT1IF = 0;
  3296  0009EA  90F0               	bcf	240,0,c	;volatile
  3297  0009EC                     i2l280:
  3298  0009EC  0012               	return		;funcret
  3299  0009EE                     __end_of_INT1interruption:
  3300                           	callstack 0
  3301                           
  3302 ;; *************** function _IncrementTimeHour *****************
  3303 ;; Defined at:
  3304 ;;		line 709 in file "main.c"
  3305 ;; Parameters:    Size  Location     Type
  3306 ;;  Time            2    4[COMRAM] PTR unsigned char 
  3307 ;;		 -> TargetTime(3), CurrentTime(3), 
  3308 ;; Auto vars:     Size  Location     Type
  3309 ;;		None
  3310 ;; Return value:  Size  Location     Type
  3311 ;;                  1    wreg      void 
  3312 ;; Registers used:
  3313 ;;		wreg, fsr2l, fsr2h, status,2, status,0, cstack
  3314 ;; Tracked objects:
  3315 ;;		On entry : 0/0
  3316 ;;		On exit  : 0/0
  3317 ;;		Unchanged: 0/0
  3318 ;; Data sizes:     COMRAM   BANK0   BANK1   BANK2   BANK3   BANK4   BANK5   BANK6   BANK7   BANK8   BANK9  BANK10  BANK1
      +1  BANK12  BANK13  BANK14  BANK15
  3319 ;;      Params:         2       0       0       0       0       0       0       0       0       0       0       0       
      +0       0       0       0       0
  3320 ;;      Locals:         0       0       0       0       0       0       0       0       0       0       0       0       
      +0       0       0       0       0
  3321 ;;      Temps:          1       0       0       0       0       0       0       0       0       0       0       0       
      +0       0       0       0       0
  3322 ;;      Totals:         3       0       0       0       0       0       0       0       0       0       0       0       
      +0       0       0       0       0
  3323 ;;Total ram usage:        3 bytes
  3324 ;; Hardware stack levels used: 1
  3325 ;; Hardware stack levels required when called: 1
  3326 ;; This function calls:
  3327 ;;		i2_AddBCD
  3328 ;; This function is called by:
  3329 ;;		_INT1interruption
  3330 ;; This function uses a non-reentrant model
  3331 ;;
  3332                           
  3333                           	psect	text20
  3334  000ED6                     __ptext20:
  3335                           	callstack 0
  3336  000ED6                     _IncrementTimeHour:
  3337                           	callstack 25
  3338  000ED6                     
  3339                           ;main.c: 710:     if(*Time == 0x23) *Time = 0x00;
  3340  000ED6  C021  FFD9         	movff	IncrementTimeHour@Time,fsr2l
  3341  000EDA  C022  FFDA         	movff	IncrementTimeHour@Time+1,fsr2h
  3342  000EDE  0E23               	movlw	35
  3343  000EE0  18DE               	xorwf	postinc2,w,c
  3344  000EE2  A4D8               	btfss	status,2,c
  3345  000EE4  EF76  F007         	goto	i2u145_41
  3346  000EE8  EF78  F007         	goto	i2u145_40
  3347  000EEC                     i2u145_41:
  3348  000EEC  EF80  F007         	goto	i2l1962
  3349  000EF0                     i2u145_40:
  3350  000EF0  C021  FFD9         	movff	IncrementTimeHour@Time,fsr2l
  3351  000EF4  C022  FFDA         	movff	IncrementTimeHour@Time+1,fsr2h
  3352  000EF8  0E00               	movlw	0
  3353  000EFA  6EDF               	movwf	indf2,c
  3354  000EFC  EF8E  F007         	goto	i2l346
  3355  000F00                     i2l1962:
  3356  000F00  0E01               	movlw	1
  3357  000F02  6E1D               	movwf	i2AddBCD@Number2^0,c
  3358  000F04  C021  FFD9         	movff	IncrementTimeHour@Time,fsr2l
  3359  000F08  C022  FFDA         	movff	IncrementTimeHour@Time+1,fsr2h
  3360  000F0C  50DF               	movf	indf2,w,c
  3361  000F0E  EC49  F008         	call	i2_AddBCD
  3362  000F12  C021  FFD9         	movff	IncrementTimeHour@Time,fsr2l
  3363  000F16  C022  FFDA         	movff	IncrementTimeHour@Time+1,fsr2h
  3364  000F1A  6EDF               	movwf	indf2,c
  3365  000F1C                     i2l346:
  3366  000F1C  0012               	return		;funcret
  3367  000F1E                     __end_of_IncrementTimeHour:
  3368                           	callstack 0
  3369                           
  3370 ;; *************** function _IncrementTime *****************
  3371 ;; Defined at:
  3372 ;;		line 705 in file "main.c"
  3373 ;; Parameters:    Size  Location     Type
  3374 ;;  Time            2    4[COMRAM] PTR unsigned char 
  3375 ;;		 -> ValveTime(3), WateringTime(3), TargetTime(3), CurrentTime(3), 
  3376 ;; Auto vars:     Size  Location     Type
  3377 ;;		None
  3378 ;; Return value:  Size  Location     Type
  3379 ;;                  1    wreg      void 
  3380 ;; Registers used:
  3381 ;;		wreg, fsr2l, fsr2h, status,2, status,0, cstack
  3382 ;; Tracked objects:
  3383 ;;		On entry : 0/0
  3384 ;;		On exit  : 0/0
  3385 ;;		Unchanged: 0/0
  3386 ;; Data sizes:     COMRAM   BANK0   BANK1   BANK2   BANK3   BANK4   BANK5   BANK6   BANK7   BANK8   BANK9  BANK10  BANK1
      +1  BANK12  BANK13  BANK14  BANK15
  3387 ;;      Params:         2       0       0       0       0       0       0       0       0       0       0       0       
      +0       0       0       0       0
  3388 ;;      Locals:         0       0       0       0       0       0       0       0       0       0       0       0       
      +0       0       0       0       0
  3389 ;;      Temps:          1       0       0       0       0       0       0       0       0       0       0       0       
      +0       0       0       0       0
  3390 ;;      Totals:         3       0       0       0       0       0       0       0       0       0       0       0       
      +0       0       0       0       0
  3391 ;;Total ram usage:        3 bytes
  3392 ;; Hardware stack levels used: 1
  3393 ;; Hardware stack levels required when called: 1
  3394 ;; This function calls:
  3395 ;;		i2_AddBCD
  3396 ;; This function is called by:
  3397 ;;		_INT1interruption
  3398 ;; This function uses a non-reentrant model
  3399 ;;
  3400                           
  3401                           	psect	text21
  3402  000F1E                     __ptext21:
  3403                           	callstack 0
  3404  000F1E                     _IncrementTime:
  3405                           	callstack 25
  3406  000F1E                     
  3407                           ;main.c: 706:     if(*Time == 0x59) *Time = 0x00;
  3408  000F1E  C021  FFD9         	movff	IncrementTime@Time,fsr2l
  3409  000F22  C022  FFDA         	movff	IncrementTime@Time+1,fsr2h
  3410  000F26  0E59               	movlw	89
  3411  000F28  18DE               	xorwf	postinc2,w,c
  3412  000F2A  A4D8               	btfss	status,2,c
  3413  000F2C  EF9A  F007         	goto	i2u135_41
  3414  000F30  EF9C  F007         	goto	i2u135_40
  3415  000F34                     i2u135_41:
  3416  000F34  EFA4  F007         	goto	i2l1946
  3417  000F38                     i2u135_40:
  3418  000F38  C021  FFD9         	movff	IncrementTime@Time,fsr2l
  3419  000F3C  C022  FFDA         	movff	IncrementTime@Time+1,fsr2h
  3420  000F40  0E00               	movlw	0
  3421  000F42  6EDF               	movwf	indf2,c
  3422  000F44  EFB2  F007         	goto	i2l341
  3423  000F48                     i2l1946:
  3424  000F48  0E01               	movlw	1
  3425  000F4A  6E1D               	movwf	i2AddBCD@Number2^0,c
  3426  000F4C  C021  FFD9         	movff	IncrementTime@Time,fsr2l
  3427  000F50  C022  FFDA         	movff	IncrementTime@Time+1,fsr2h
  3428  000F54  50DF               	movf	indf2,w,c
  3429  000F56  EC49  F008         	call	i2_AddBCD
  3430  000F5A  C021  FFD9         	movff	IncrementTime@Time,fsr2l
  3431  000F5E  C022  FFDA         	movff	IncrementTime@Time+1,fsr2h
  3432  000F62  6EDF               	movwf	indf2,c
  3433  000F64                     i2l341:
  3434  000F64  0012               	return		;funcret
  3435  000F66                     __end_of_IncrementTime:
  3436                           	callstack 0
  3437                           
  3438 ;; *************** function _ChangeTime *****************
  3439 ;; Defined at:
  3440 ;;		line 781 in file "main.c"
  3441 ;; Parameters:    Size  Location     Type
  3442 ;;  Address         1    wreg     unsigned char 
  3443 ;;  Time            1    0[COMRAM] unsigned char 
  3444 ;; Auto vars:     Size  Location     Type
  3445 ;;  Address         1    1[COMRAM] unsigned char 
  3446 ;; Return value:  Size  Location     Type
  3447 ;;                  1    wreg      void 
  3448 ;; Registers used:
  3449 ;;		wreg, status,2
  3450 ;; Tracked objects:
  3451 ;;		On entry : 0/0
  3452 ;;		On exit  : 0/0
  3453 ;;		Unchanged: 0/0
  3454 ;; Data sizes:     COMRAM   BANK0   BANK1   BANK2   BANK3   BANK4   BANK5   BANK6   BANK7   BANK8   BANK9  BANK10  BANK1
      +1  BANK12  BANK13  BANK14  BANK15
  3455 ;;      Params:         1       0       0       0       0       0       0       0       0       0       0       0       
      +0       0       0       0       0
  3456 ;;      Locals:         1       0       0       0       0       0       0       0       0       0       0       0       
      +0       0       0       0       0
  3457 ;;      Temps:          0       0       0       0       0       0       0       0       0       0       0       0       
      +0       0       0       0       0
  3458 ;;      Totals:         2       0       0       0       0       0       0       0       0       0       0       0       
      +0       0       0       0       0
  3459 ;;Total ram usage:        2 bytes
  3460 ;; Hardware stack levels used: 1
  3461 ;; This function calls:
  3462 ;;		Nothing
  3463 ;; This function is called by:
  3464 ;;		_INT1interruption
  3465 ;;		_INT2interruption
  3466 ;; This function uses a non-reentrant model
  3467 ;;
  3468                           
  3469                           	psect	text22
  3470  000C10                     __ptext22:
  3471                           	callstack 0
  3472  000C10                     _ChangeTime:
  3473                           	callstack 26
  3474                           
  3475                           ;incstack = 0
  3476                           ;ChangeTime@Address stored from wreg
  3477  000C10  6E1E               	movwf	ChangeTime@Address^0,c
  3478  000C12                     
  3479                           ;main.c: 783:     SSPCON2bits.SEN = 1;
  3480  000C12  80C5               	bsf	197,0,c	;volatile
  3481  000C14                     i2l373:
  3482  000C14  B0C5               	btfsc	4037,0,c	;volatile
  3483  000C16  EF0F  F006         	goto	i2u136_41
  3484  000C1A  EF11  F006         	goto	i2u136_40
  3485  000C1E                     i2u136_41:
  3486  000C1E  EF0A  F006         	goto	i2l373
  3487  000C22                     i2u136_40:
  3488  000C22                     
  3489                           ;main.c: 785:     PIR1bits.SSPIF = 0;
  3490  000C22  969E               	bcf	158,3,c	;volatile
  3491  000C24                     
  3492                           ;main.c: 787:     SSPBUF = 0xD0;
  3493  000C24  0ED0               	movlw	208
  3494  000C26  6EC9               	movwf	201,c	;volatile
  3495  000C28                     i2l376:
  3496  000C28  A69E               	btfss	3998,3,c	;volatile
  3497  000C2A  EF19  F006         	goto	i2u137_41
  3498  000C2E  EF1B  F006         	goto	i2u137_40
  3499  000C32                     i2u137_41:
  3500  000C32  EF14  F006         	goto	i2l376
  3501  000C36                     i2u137_40:
  3502  000C36                     
  3503                           ;main.c: 789:     PIR1bits.SSPIF = 0;
  3504  000C36  969E               	bcf	158,3,c	;volatile
  3505                           
  3506                           ;main.c: 790:     if (SSPCON2bits.ACKSTAT){
  3507  000C38  ACC5               	btfss	197,6,c	;volatile
  3508  000C3A  EF21  F006         	goto	i2u138_41
  3509  000C3E  EF23  F006         	goto	i2u138_40
  3510  000C42                     i2u138_41:
  3511  000C42  EF2D  F006         	goto	i2l1954
  3512  000C46                     i2u138_40:
  3513  000C46                     
  3514                           ;main.c: 791:         SSPCON2bits.PEN = 1;
  3515  000C46  84C5               	bsf	197,2,c	;volatile
  3516  000C48                     i2l380:
  3517  000C48  B4C5               	btfsc	4037,2,c	;volatile
  3518  000C4A  EF29  F006         	goto	i2u139_41
  3519  000C4E  EF2B  F006         	goto	i2u139_40
  3520  000C52                     i2u139_41:
  3521  000C52  EF24  F006         	goto	i2l380
  3522  000C56                     i2u139_40:
  3523  000C56  EF5A  F006         	goto	i2l383
  3524  000C5A                     i2l1954:
  3525                           
  3526                           ;main.c: 796:     SSPBUF = Address;
  3527  000C5A  C01E  FFC9         	movff	ChangeTime@Address,4041	;volatile
  3528  000C5E                     i2l384:
  3529  000C5E  A69E               	btfss	3998,3,c	;volatile
  3530  000C60  EF34  F006         	goto	i2u140_41
  3531  000C64  EF36  F006         	goto	i2u140_40
  3532  000C68                     i2u140_41:
  3533  000C68  EF2F  F006         	goto	i2l384
  3534  000C6C                     i2u140_40:
  3535  000C6C                     
  3536                           ;main.c: 798:     PIR1bits.SSPIF = 0;
  3537  000C6C  969E               	bcf	158,3,c	;volatile
  3538                           
  3539                           ;main.c: 799:     if (SSPCON2bits.ACKSTAT){
  3540  000C6E  ACC5               	btfss	197,6,c	;volatile
  3541  000C70  EF3C  F006         	goto	i2u141_41
  3542  000C74  EF3E  F006         	goto	i2u141_40
  3543  000C78                     i2u141_41:
  3544  000C78  EF48  F006         	goto	i2l387
  3545  000C7C                     i2u141_40:
  3546  000C7C                     
  3547                           ;main.c: 800:         SSPCON2bits.PEN = 1;
  3548  000C7C  84C5               	bsf	197,2,c	;volatile
  3549  000C7E                     i2l388:
  3550  000C7E  B4C5               	btfsc	4037,2,c	;volatile
  3551  000C80  EF44  F006         	goto	i2u142_41
  3552  000C84  EF46  F006         	goto	i2u142_40
  3553  000C88                     i2u142_41:
  3554  000C88  EF3F  F006         	goto	i2l388
  3555  000C8C                     i2u142_40:
  3556  000C8C  EF5A  F006         	goto	i2l383
  3557  000C90                     i2l387:
  3558                           
  3559                           ;main.c: 805:     SSPBUF = Time;
  3560  000C90  C01D  FFC9         	movff	ChangeTime@Time,4041	;volatile
  3561  000C94                     i2l391:
  3562  000C94  A69E               	btfss	3998,3,c	;volatile
  3563  000C96  EF4F  F006         	goto	i2u143_41
  3564  000C9A  EF51  F006         	goto	i2u143_40
  3565  000C9E                     i2u143_41:
  3566  000C9E  EF4A  F006         	goto	i2l391
  3567  000CA2                     i2u143_40:
  3568  000CA2                     
  3569                           ;main.c: 807:     PIR1bits.SSPIF = 0;
  3570  000CA2  969E               	bcf	158,3,c	;volatile
  3571                           
  3572                           ;main.c: 810:     SSPCON2bits.PEN = 1;
  3573  000CA4  84C5               	bsf	197,2,c	;volatile
  3574  000CA6                     i2l394:
  3575  000CA6  B4C5               	btfsc	4037,2,c	;volatile
  3576  000CA8  EF58  F006         	goto	i2u144_41
  3577  000CAC  EF5A  F006         	goto	i2u144_40
  3578  000CB0                     i2u144_41:
  3579  000CB0  EF53  F006         	goto	i2l394
  3580  000CB4                     i2u144_40:
  3581  000CB4                     i2l383:
  3582  000CB4  0012               	return		;funcret
  3583  000CB6                     __end_of_ChangeTime:
  3584                           	callstack 0
  3585                           
  3586 ;; *************** function _INT0interruption *****************
  3587 ;; Defined at:
  3588 ;;		line 459 in file "main.c"
  3589 ;; Parameters:    Size  Location     Type
  3590 ;;		None
  3591 ;; Auto vars:     Size  Location     Type
  3592 ;;		None
  3593 ;; Return value:  Size  Location     Type
  3594 ;;                  1    wreg      void 
  3595 ;; Registers used:
  3596 ;;		wreg, status,2, status,0, cstack
  3597 ;; Tracked objects:
  3598 ;;		On entry : 0/0
  3599 ;;		On exit  : 0/0
  3600 ;;		Unchanged: 0/0
  3601 ;; Data sizes:     COMRAM   BANK0   BANK1   BANK2   BANK3   BANK4   BANK5   BANK6   BANK7   BANK8   BANK9  BANK10  BANK1
      +1  BANK12  BANK13  BANK14  BANK15
  3602 ;;      Params:         0       0       0       0       0       0       0       0       0       0       0       0       
      +0       0       0       0       0
  3603 ;;      Locals:         0       0       0       0       0       0       0       0       0       0       0       0       
      +0       0       0       0       0
  3604 ;;      Temps:          2       0       0       0       0       0       0       0       0       0       0       0       
      +0       0       0       0       0
  3605 ;;      Totals:         2       0       0       0       0       0       0       0       0       0       0       0       
      +0       0       0       0       0
  3606 ;;Total ram usage:        2 bytes
  3607 ;; Hardware stack levels used: 1
  3608 ;; Hardware stack levels required when called: 2
  3609 ;; This function calls:
  3610 ;;		_Buzz
  3611 ;;		_TMR0enable
  3612 ;;		_TMR1enable
  3613 ;;		i2_WakeUp
  3614 ;; This function is called by:
  3615 ;;		_my_isr_routine
  3616 ;; This function uses a non-reentrant model
  3617 ;;
  3618                           
  3619                           	psect	text23
  3620  000B06                     __ptext23:
  3621                           	callstack 0
  3622  000B06                     _INT0interruption:
  3623                           	callstack 25
  3624  000B06                     
  3625                           ;main.c: 461:     if(INTCONbits.INT0IE == 1 && INTCONbits.INT0IF == 1){
  3626  000B06  A8F2               	btfss	242,4,c	;volatile
  3627  000B08  EF88  F005         	goto	i2u151_41
  3628  000B0C  EF8A  F005         	goto	i2u151_40
  3629  000B10                     i2u151_41:
  3630  000B10  EF07  F006         	goto	i2l264
  3631  000B14                     i2u151_40:
  3632  000B14  A2F2               	btfss	242,1,c	;volatile
  3633  000B16  EF8F  F005         	goto	i2u152_41
  3634  000B1A  EF91  F005         	goto	i2u152_40
  3635  000B1E                     i2u152_41:
  3636  000B1E  EF07  F006         	goto	i2l264
  3637  000B22                     i2u152_40:
  3638  000B22                     
  3639                           ;main.c: 463:         Buzz();
  3640  000B22  ECB4  F008         	call	_Buzz	;wreg free
  3641                           
  3642                           ;main.c: 465:         switch(State){
  3643  000B26  EFD1  F005         	goto	i2l2066
  3644  000B2A                     i2l2020:
  3645                           
  3646                           ;main.c: 469:                 State = 1;
  3647  000B2A  0E01               	movlw	1
  3648  000B2C  6E10               	movwf	_State^0,c
  3649  000B2E                     
  3650                           ;main.c: 470:                 TMR1enable();
  3651  000B2E  ECBF  F008         	call	_TMR1enable	;wreg free
  3652                           
  3653                           ;main.c: 471:                 break;
  3654  000B32  EF06  F006         	goto	i2l254
  3655  000B36                     i2l2024:
  3656                           
  3657                           ;main.c: 474:                 State = 3;
  3658  000B36  0E03               	movlw	3
  3659  000B38  6E10               	movwf	_State^0,c
  3660  000B3A                     
  3661                           ;main.c: 475:                 WakeUp();
  3662  000B3A  ECA8  F006         	call	i2_WakeUp	;wreg free
  3663  000B3E                     
  3664                           ;main.c: 476:                 TMR0enable();
  3665  000B3E  ECC2  F008         	call	_TMR0enable	;wreg free
  3666                           
  3667                           ;main.c: 477:                 break;
  3668  000B42  EF06  F006         	goto	i2l254
  3669  000B46                     i2l2030:
  3670                           
  3671                           ;main.c: 481:                 WakeUp();
  3672  000B46  ECA8  F006         	call	i2_WakeUp	;wreg free
  3673  000B4A                     
  3674                           ;main.c: 482:                 State = 3;
  3675  000B4A  0E03               	movlw	3
  3676  000B4C  6E10               	movwf	_State^0,c
  3677                           
  3678                           ;main.c: 484:                 break;
  3679  000B4E  EF06  F006         	goto	i2l254
  3680  000B52                     i2l2034:
  3681                           
  3682                           ;main.c: 487:                 TMR1enable();
  3683  000B52  ECBF  F008         	call	_TMR1enable	;wreg free
  3684  000B56                     
  3685                           ;main.c: 488:                 State = 4;
  3686  000B56  0E04               	movlw	4
  3687  000B58  6E10               	movwf	_State^0,c
  3688                           
  3689                           ;main.c: 489:                 break;
  3690  000B5A  EF06  F006         	goto	i2l254
  3691  000B5E                     i2l2038:
  3692                           
  3693                           ;main.c: 492:                 TMR1enable();
  3694  000B5E  ECBF  F008         	call	_TMR1enable	;wreg free
  3695  000B62                     
  3696                           ;main.c: 493:                 State = 5;
  3697  000B62  0E05               	movlw	5
  3698  000B64  6E10               	movwf	_State^0,c
  3699                           
  3700                           ;main.c: 494:                 break;
  3701  000B66  EF06  F006         	goto	i2l254
  3702  000B6A                     i2l2042:
  3703                           
  3704                           ;main.c: 497:                 TMR1enable();
  3705  000B6A  ECBF  F008         	call	_TMR1enable	;wreg free
  3706  000B6E                     
  3707                           ;main.c: 498:                 State = 6;
  3708  000B6E  0E06               	movlw	6
  3709  000B70  6E10               	movwf	_State^0,c
  3710                           
  3711                           ;main.c: 499:                 break;
  3712  000B72  EF06  F006         	goto	i2l254
  3713  000B76                     i2l2046:
  3714                           
  3715                           ;main.c: 502:                 TMR1enable();
  3716  000B76  ECBF  F008         	call	_TMR1enable	;wreg free
  3717  000B7A                     
  3718                           ;main.c: 503:                 State = 7;
  3719  000B7A  0E07               	movlw	7
  3720  000B7C  6E10               	movwf	_State^0,c
  3721                           
  3722                           ;main.c: 504:                 break;
  3723  000B7E  EF06  F006         	goto	i2l254
  3724  000B82                     i2l2050:
  3725                           
  3726                           ;main.c: 507:                 TMR1enable();
  3727  000B82  ECBF  F008         	call	_TMR1enable	;wreg free
  3728  000B86                     
  3729                           ;main.c: 508:                 State = 8;
  3730  000B86  0E08               	movlw	8
  3731  000B88  6E10               	movwf	_State^0,c
  3732                           
  3733                           ;main.c: 509:                 break;
  3734  000B8A  EF06  F006         	goto	i2l254
  3735  000B8E                     i2l2054:
  3736                           
  3737                           ;main.c: 512:                 TMR1enable();
  3738  000B8E  ECBF  F008         	call	_TMR1enable	;wreg free
  3739  000B92                     
  3740                           ;main.c: 513:                 State = 9;
  3741  000B92  0E09               	movlw	9
  3742  000B94  6E10               	movwf	_State^0,c
  3743                           
  3744                           ;main.c: 514:                 break;
  3745  000B96  EF06  F006         	goto	i2l254
  3746  000B9A                     i2l2058:
  3747                           
  3748                           ;main.c: 517:                 TMR0enable();
  3749  000B9A  ECC2  F008         	call	_TMR0enable	;wreg free
  3750  000B9E  EFA3  F005         	goto	i2l2030
  3751  000BA2                     i2l2066:
  3752  000BA2  5010               	movf	_State^0,w,c
  3753  000BA4  6E22               	movwf	??_INT0interruption^0,c
  3754  000BA6  6A23               	clrf	(??_INT0interruption+1)^0,c
  3755                           
  3756                           ; Switch on 2 bytes has been partitioned into a top level switch of size 1, and 1 sub-sw
      +                          itches
  3757                           ; Switch size 1, requested type "simple"
  3758                           ; Number of cases is 1, Range of values is 0 to 0
  3759                           ; switch strategies available:
  3760                           ; Name         Instructions Cycles
  3761                           ; simple_byte            4     3 (average)
  3762                           ;	Chosen strategy is simple_byte
  3763  000BA8  5023               	movf	(??_INT0interruption+1)^0,w,c
  3764  000BAA  0A00               	xorlw	0	; case 0
  3765  000BAC  B4D8               	btfsc	status,2,c
  3766  000BAE  EFDB  F005         	goto	i2l2396
  3767  000BB2  EF06  F006         	goto	i2l254
  3768  000BB6                     i2l2396:
  3769                           
  3770                           ; Switch size 1, requested type "simple"
  3771                           ; Number of cases is 10, Range of values is 0 to 9
  3772                           ; switch strategies available:
  3773                           ; Name         Instructions Cycles
  3774                           ; simple_byte           31    16 (average)
  3775                           ;	Chosen strategy is simple_byte
  3776  000BB6  5022               	movf	??_INT0interruption^0,w,c
  3777  000BB8  0A00               	xorlw	0	; case 0
  3778  000BBA  B4D8               	btfsc	status,2,c
  3779  000BBC  EF95  F005         	goto	i2l2020
  3780  000BC0  0A01               	xorlw	1	; case 1
  3781  000BC2  B4D8               	btfsc	status,2,c
  3782  000BC4  EF9B  F005         	goto	i2l2024
  3783  000BC8  0A03               	xorlw	3	; case 2
  3784  000BCA  B4D8               	btfsc	status,2,c
  3785  000BCC  EFA3  F005         	goto	i2l2030
  3786  000BD0  0A01               	xorlw	1	; case 3
  3787  000BD2  B4D8               	btfsc	status,2,c
  3788  000BD4  EFA9  F005         	goto	i2l2034
  3789  000BD8  0A07               	xorlw	7	; case 4
  3790  000BDA  B4D8               	btfsc	status,2,c
  3791  000BDC  EFAF  F005         	goto	i2l2038
  3792  000BE0  0A01               	xorlw	1	; case 5
  3793  000BE2  B4D8               	btfsc	status,2,c
  3794  000BE4  EFB5  F005         	goto	i2l2042
  3795  000BE8  0A03               	xorlw	3	; case 6
  3796  000BEA  B4D8               	btfsc	status,2,c
  3797  000BEC  EFBB  F005         	goto	i2l2046
  3798  000BF0  0A01               	xorlw	1	; case 7
  3799  000BF2  B4D8               	btfsc	status,2,c
  3800  000BF4  EFC1  F005         	goto	i2l2050
  3801  000BF8  0A0F               	xorlw	15	; case 8
  3802  000BFA  B4D8               	btfsc	status,2,c
  3803  000BFC  EFC7  F005         	goto	i2l2054
  3804  000C00  0A01               	xorlw	1	; case 9
  3805  000C02  B4D8               	btfsc	status,2,c
  3806  000C04  EFCD  F005         	goto	i2l2058
  3807  000C08  EF06  F006         	goto	i2l254
  3808  000C0C                     i2l254:
  3809                           
  3810                           ;main.c: 523:         INTCONbits.INT0F = 0;
  3811  000C0C  92F2               	bcf	242,1,c	;volatile
  3812  000C0E                     i2l264:
  3813  000C0E  0012               	return		;funcret
  3814  000C10                     __end_of_INT0interruption:
  3815                           	callstack 0
  3816                           
  3817 ;; *************** function i2_WakeUp *****************
  3818 ;; Defined at:
  3819 ;;		line 658 in file "main.c"
  3820 ;; Parameters:    Size  Location     Type
  3821 ;;		None
  3822 ;; Auto vars:     Size  Location     Type
  3823 ;;		None
  3824 ;; Return value:  Size  Location     Type
  3825 ;;                  1    wreg      void 
  3826 ;; Registers used:
  3827 ;;		wreg, status,2, status,0, cstack
  3828 ;; Tracked objects:
  3829 ;;		On entry : 0/0
  3830 ;;		On exit  : 0/0
  3831 ;;		Unchanged: 0/0
  3832 ;; Data sizes:     COMRAM   BANK0   BANK1   BANK2   BANK3   BANK4   BANK5   BANK6   BANK7   BANK8   BANK9  BANK10  BANK1
      +1  BANK12  BANK13  BANK14  BANK15
  3833 ;;      Params:         0       0       0       0       0       0       0       0       0       0       0       0       
      +0       0       0       0       0
  3834 ;;      Locals:         0       0       0       0       0       0       0       0       0       0       0       0       
      +0       0       0       0       0
  3835 ;;      Temps:          1       0       0       0       0       0       0       0       0       0       0       0       
      +0       0       0       0       0
  3836 ;;      Totals:         1       0       0       0       0       0       0       0       0       0       0       0       
      +0       0       0       0       0
  3837 ;;Total ram usage:        1 bytes
  3838 ;; Hardware stack levels used: 1
  3839 ;; Hardware stack levels required when called: 1
  3840 ;; This function calls:
  3841 ;;		i2_AddBCD
  3842 ;;		i2_SubBCD
  3843 ;;		i2_UpdateCurrentTime
  3844 ;; This function is called by:
  3845 ;;		_INT0interruption
  3846 ;;		_INT1interruption
  3847 ;;		_INT2interruption
  3848 ;; This function uses a non-reentrant model
  3849 ;;
  3850                           
  3851                           	psect	text24
  3852  000D50                     __ptext24:
  3853                           	callstack 0
  3854  000D50                     i2_WakeUp:
  3855                           	callstack 25
  3856  000D50                     
  3857                           ;main.c: 659:     UpdateCurrentTime();
  3858  000D50  ECAF  F003         	call	i2_UpdateCurrentTime	;wreg free
  3859  000D54                     
  3860                           ;main.c: 661:     if (AddBCD(CurrentTime[1], 0x02) > 0x59) {
  3861  000D54  0E02               	movlw	2
  3862  000D56  6E1D               	movwf	i2AddBCD@Number2^0,c
  3863  000D58  501B               	movf	(_CurrentTime+1)^0,w,c
  3864  000D5A  EC49  F008         	call	i2_AddBCD
  3865  000D5E  6E21               	movwf	??i2_WakeUp^0,c
  3866  000D60  0E59               	movlw	89
  3867  000D62  6421               	cpfsgt	??i2_WakeUp^0,c
  3868  000D64  EFB6  F006         	goto	i2u147_41
  3869  000D68  EFB8  F006         	goto	i2u147_40
  3870  000D6C                     i2u147_41:
  3871  000D6C  EFEA  F006         	goto	i2l318
  3872  000D70                     i2u147_40:
  3873  000D70                     
  3874                           ;main.c: 662:         if(AddBCD(CurrentTime[1], 0x01) > 0x23){
  3875  000D70  0E01               	movlw	1
  3876  000D72  6E1D               	movwf	i2AddBCD@Number2^0,c
  3877  000D74  501B               	movf	(_CurrentTime+1)^0,w,c
  3878  000D76  EC49  F008         	call	i2_AddBCD
  3879  000D7A  6E21               	movwf	??i2_WakeUp^0,c
  3880  000D7C  0E23               	movlw	35
  3881  000D7E  6421               	cpfsgt	??i2_WakeUp^0,c
  3882  000D80  EFC4  F006         	goto	i2u148_41
  3883  000D84  EFC6  F006         	goto	i2u148_40
  3884  000D88                     i2u148_41:
  3885  000D88  EFD6  F006         	goto	i2l1988
  3886  000D8C                     i2u148_40:
  3887  000D8C                     
  3888                           ;main.c: 663:             WakeUpTime[2] = 0x00;
  3889  000D8C  0E00               	movlw	0
  3890  000D8E  6E03               	movwf	(_WakeUpTime+2)^0,c
  3891  000D90                     
  3892                           ;main.c: 664:             WakeUpTime[1] = AddBCD(CurrentTime[1], 0x02);
  3893  000D90  0E02               	movlw	2
  3894  000D92  6E1D               	movwf	i2AddBCD@Number2^0,c
  3895  000D94  501B               	movf	(_CurrentTime+1)^0,w,c
  3896  000D96  EC49  F008         	call	i2_AddBCD
  3897  000D9A  6E02               	movwf	(_WakeUpTime+1)^0,c
  3898  000D9C                     
  3899                           ;main.c: 665:             WakeUpTime[1] = SubBCD(CurrentTime[1], 0x60);
  3900  000D9C  0E60               	movlw	96
  3901  000D9E  6E1D               	movwf	i2SubBCD@Number2^0,c
  3902  000DA0  501B               	movf	(_CurrentTime+1)^0,w,c
  3903  000DA2  EC33  F008         	call	i2_SubBCD
  3904  000DA6  6E02               	movwf	(_WakeUpTime+1)^0,c
  3905                           
  3906                           ;main.c: 666:         }else{
  3907  000DA8  EFF2  F006         	goto	i2l1992
  3908  000DAC                     i2l1988:
  3909                           
  3910                           ;main.c: 667:             WakeUpTime[2] = AddBCD(CurrentTime[2], 0x01);
  3911  000DAC  0E01               	movlw	1
  3912  000DAE  6E1D               	movwf	i2AddBCD@Number2^0,c
  3913  000DB0  501C               	movf	(_CurrentTime+2)^0,w,c
  3914  000DB2  EC49  F008         	call	i2_AddBCD
  3915  000DB6  6E03               	movwf	(_WakeUpTime+2)^0,c
  3916                           
  3917                           ;main.c: 668:             WakeUpTime[1] = AddBCD(CurrentTime[1], 0x02);
  3918  000DB8  0E02               	movlw	2
  3919  000DBA  6E1D               	movwf	i2AddBCD@Number2^0,c
  3920  000DBC  501B               	movf	(_CurrentTime+1)^0,w,c
  3921  000DBE  EC49  F008         	call	i2_AddBCD
  3922  000DC2  6E02               	movwf	(_WakeUpTime+1)^0,c
  3923                           
  3924                           ;main.c: 669:             WakeUpTime[1] = SubBCD(CurrentTime[1], 0x60);
  3925  000DC4  0E60               	movlw	96
  3926  000DC6  6E1D               	movwf	i2SubBCD@Number2^0,c
  3927  000DC8  501B               	movf	(_CurrentTime+1)^0,w,c
  3928  000DCA  EC33  F008         	call	i2_SubBCD
  3929  000DCE  6E02               	movwf	(_WakeUpTime+1)^0,c
  3930  000DD0  EFF2  F006         	goto	i2l1992
  3931  000DD4                     i2l318:
  3932                           
  3933                           ;main.c: 672:         WakeUpTime[2] = CurrentTime[2];
  3934  000DD4  C01C  F003         	movff	_CurrentTime+2,_WakeUpTime+2
  3935  000DD8                     
  3936                           ;main.c: 673:         WakeUpTime[1] = AddBCD(CurrentTime[1], 0x02);
  3937  000DD8  0E02               	movlw	2
  3938  000DDA  6E1D               	movwf	i2AddBCD@Number2^0,c
  3939  000DDC  501B               	movf	(_CurrentTime+1)^0,w,c
  3940  000DDE  EC49  F008         	call	i2_AddBCD
  3941  000DE2  6E02               	movwf	(_WakeUpTime+1)^0,c
  3942  000DE4                     i2l1992:
  3943                           
  3944                           ;main.c: 675:     UpdateTimeFlag = 1;
  3945  000DE4  0E01               	movlw	1
  3946  000DE6  6E0F               	movwf	_UpdateTimeFlag^0,c
  3947  000DE8  0012               	return		;funcret
  3948  000DEA                     __end_ofi2_WakeUp:
  3949                           	callstack 0
  3950                           
  3951 ;; *************** function i2_UpdateCurrentTime *****************
  3952 ;; Defined at:
  3953 ;;		line 865 in file "main.c"
  3954 ;; Parameters:    Size  Location     Type
  3955 ;;		None
  3956 ;; Auto vars:     Size  Location     Type
  3957 ;;		None
  3958 ;; Return value:  Size  Location     Type
  3959 ;;                  1    wreg      void 
  3960 ;; Registers used:
  3961 ;;		wreg, status,2
  3962 ;; Tracked objects:
  3963 ;;		On entry : 0/0
  3964 ;;		On exit  : 0/0
  3965 ;;		Unchanged: 0/0
  3966 ;; Data sizes:     COMRAM   BANK0   BANK1   BANK2   BANK3   BANK4   BANK5   BANK6   BANK7   BANK8   BANK9  BANK10  BANK1
      +1  BANK12  BANK13  BANK14  BANK15
  3967 ;;      Params:         0       0       0       0       0       0       0       0       0       0       0       0       
      +0       0       0       0       0
  3968 ;;      Locals:         0       0       0       0       0       0       0       0       0       0       0       0       
      +0       0       0       0       0
  3969 ;;      Temps:          0       0       0       0       0       0       0       0       0       0       0       0       
      +0       0       0       0       0
  3970 ;;      Totals:         0       0       0       0       0       0       0       0       0       0       0       0       
      +0       0       0       0       0
  3971 ;;Total ram usage:        0 bytes
  3972 ;; Hardware stack levels used: 1
  3973 ;; This function calls:
  3974 ;;		Nothing
  3975 ;; This function is called by:
  3976 ;;		_TMR0interruption
  3977 ;;		i2_WakeUp
  3978 ;; This function uses a non-reentrant model
  3979 ;;
  3980                           
  3981                           	psect	text25
  3982  00075E                     __ptext25:
  3983                           	callstack 0
  3984  00075E                     i2_UpdateCurrentTime:
  3985                           	callstack 26
  3986  00075E                     
  3987                           ;main.c: 866:     SSPCON2bits.SEN = 1;
  3988  00075E  80C5               	bsf	197,0,c	;volatile
  3989  000760                     i2l438:
  3990  000760  B0C5               	btfsc	4037,0,c	;volatile
  3991  000762  EFB5  F003         	goto	i2u3_41
  3992  000766  EFB7  F003         	goto	i2u3_40
  3993  00076A                     i2u3_41:
  3994  00076A  EFB0  F003         	goto	i2l438
  3995  00076E                     i2u3_40:
  3996  00076E                     
  3997                           ;main.c: 868:     PIR1bits.SSPIF = 0;
  3998  00076E  969E               	bcf	158,3,c	;volatile
  3999  000770                     
  4000                           ;main.c: 870:     SSPBUF = 0xD0;
  4001  000770  0ED0               	movlw	208
  4002  000772  6EC9               	movwf	201,c	;volatile
  4003  000774                     i2l441:
  4004  000774  A69E               	btfss	3998,3,c	;volatile
  4005  000776  EFBF  F003         	goto	i2u4_41
  4006  00077A  EFC1  F003         	goto	i2u4_40
  4007  00077E                     i2u4_41:
  4008  00077E  EFBA  F003         	goto	i2l441
  4009  000782                     i2u4_40:
  4010  000782                     
  4011                           ;main.c: 872:     PIR1bits.SSPIF = 0;
  4012  000782  969E               	bcf	158,3,c	;volatile
  4013                           
  4014                           ;main.c: 873:     if (SSPCON2bits.ACKSTAT){
  4015  000784  ACC5               	btfss	197,6,c	;volatile
  4016  000786  EFC7  F003         	goto	i2u5_41
  4017  00078A  EFC9  F003         	goto	i2u5_40
  4018  00078E                     i2u5_41:
  4019  00078E  EFD3  F003         	goto	i2l1192
  4020  000792                     i2u5_40:
  4021  000792                     
  4022                           ;main.c: 874:         SSPCON2bits.PEN = 1;
  4023  000792  84C5               	bsf	197,2,c	;volatile
  4024  000794                     i2l445:
  4025  000794  B4C5               	btfsc	4037,2,c	;volatile
  4026  000796  EFCF  F003         	goto	i2u6_41
  4027  00079A  EFD1  F003         	goto	i2u6_40
  4028  00079E                     i2u6_41:
  4029  00079E  EFCA  F003         	goto	i2l445
  4030  0007A2                     i2u6_40:
  4031  0007A2  EF53  F004         	goto	i2l448
  4032  0007A6                     i2l1192:
  4033                           
  4034                           ;main.c: 879:     SSPBUF = 0;
  4035  0007A6  0E00               	movlw	0
  4036  0007A8  6EC9               	movwf	201,c	;volatile
  4037  0007AA                     i2l449:
  4038  0007AA  A69E               	btfss	3998,3,c	;volatile
  4039  0007AC  EFDA  F003         	goto	i2u7_41
  4040  0007B0  EFDC  F003         	goto	i2u7_40
  4041  0007B4                     i2u7_41:
  4042  0007B4  EFD5  F003         	goto	i2l449
  4043  0007B8                     i2u7_40:
  4044  0007B8                     
  4045                           ;main.c: 881:     PIR1bits.SSPIF = 0;
  4046  0007B8  969E               	bcf	158,3,c	;volatile
  4047                           
  4048                           ;main.c: 882:     if (SSPCON2bits.ACKSTAT){
  4049  0007BA  ACC5               	btfss	197,6,c	;volatile
  4050  0007BC  EFE2  F003         	goto	i2u8_41
  4051  0007C0  EFE4  F003         	goto	i2u8_40
  4052  0007C4                     i2u8_41:
  4053  0007C4  EFEE  F003         	goto	i2l452
  4054  0007C8                     i2u8_40:
  4055  0007C8                     
  4056                           ;main.c: 883:         SSPCON2bits.PEN = 1;
  4057  0007C8  84C5               	bsf	197,2,c	;volatile
  4058  0007CA                     i2l453:
  4059  0007CA  B4C5               	btfsc	4037,2,c	;volatile
  4060  0007CC  EFEA  F003         	goto	i2u9_41
  4061  0007D0  EFEC  F003         	goto	i2u9_40
  4062  0007D4                     i2u9_41:
  4063  0007D4  EFE5  F003         	goto	i2l453
  4064  0007D8                     i2u9_40:
  4065  0007D8  EF53  F004         	goto	i2l448
  4066  0007DC                     i2l452:
  4067                           
  4068                           ;main.c: 888:     SSPCON2bits.RSEN = 1;
  4069  0007DC  82C5               	bsf	197,1,c	;volatile
  4070  0007DE                     i2l456:
  4071  0007DE  B2C5               	btfsc	197,1,c	;volatile
  4072  0007E0  EFF4  F003         	goto	i2u10_41
  4073  0007E4  EFF6  F003         	goto	i2u10_40
  4074  0007E8                     i2u10_41:
  4075  0007E8  EFEF  F003         	goto	i2l456
  4076  0007EC                     i2u10_40:
  4077  0007EC                     
  4078                           ;main.c: 890:     PIR1bits.SSPIF = 0;
  4079  0007EC  969E               	bcf	158,3,c	;volatile
  4080  0007EE                     
  4081                           ;main.c: 892:     SSPBUF = 0xD1;
  4082  0007EE  0ED1               	movlw	209
  4083  0007F0  6EC9               	movwf	201,c	;volatile
  4084  0007F2                     i2l459:
  4085  0007F2  A69E               	btfss	3998,3,c	;volatile
  4086  0007F4  EFFE  F003         	goto	i2u11_41
  4087  0007F8  EF00  F004         	goto	i2u11_40
  4088  0007FC                     i2u11_41:
  4089  0007FC  EFF9  F003         	goto	i2l459
  4090  000800                     i2u11_40:
  4091  000800                     
  4092                           ;main.c: 894:     PIR1bits.SSPIF = 0;
  4093  000800  969E               	bcf	158,3,c	;volatile
  4094                           
  4095                           ;main.c: 895:     if (SSPCON2bits.ACKSTAT){
  4096  000802  ACC5               	btfss	197,6,c	;volatile
  4097  000804  EF06  F004         	goto	i2u12_41
  4098  000808  EF08  F004         	goto	i2u12_40
  4099  00080C                     i2u12_41:
  4100  00080C  EF12  F004         	goto	i2l462
  4101  000810                     i2u12_40:
  4102  000810                     
  4103                           ;main.c: 896:         SSPCON2bits.PEN = 1;
  4104  000810  84C5               	bsf	197,2,c	;volatile
  4105  000812                     i2l463:
  4106  000812  B4C5               	btfsc	4037,2,c	;volatile
  4107  000814  EF0E  F004         	goto	i2u13_41
  4108  000818  EF10  F004         	goto	i2u13_40
  4109  00081C                     i2u13_41:
  4110  00081C  EF09  F004         	goto	i2l463
  4111  000820                     i2u13_40:
  4112  000820  EF53  F004         	goto	i2l448
  4113  000824                     i2l462:
  4114                           
  4115                           ;main.c: 901:     SSPCON2bits.RCEN = 1;
  4116  000824  86C5               	bsf	197,3,c	;volatile
  4117  000826                     i2l466:
  4118  000826  A0C7               	btfss	199,0,c	;volatile
  4119  000828  EF18  F004         	goto	i2u14_41
  4120  00082C  EF1A  F004         	goto	i2u14_40
  4121  000830                     i2u14_41:
  4122  000830  EF13  F004         	goto	i2l466
  4123  000834                     i2u14_40:
  4124  000834                     
  4125                           ;main.c: 903:     CurrentTime[0] = SSPBUF;
  4126  000834  CFC9 F01A          	movff	4041,_CurrentTime	;volatile
  4127                           
  4128                           ;main.c: 905:     SSPCON2bits.ACKDT = 0;
  4129  000838  9AC5               	bcf	197,5,c	;volatile
  4130                           
  4131                           ;main.c: 906:     SSPCON2bits.ACKEN = 1;
  4132  00083A  88C5               	bsf	197,4,c	;volatile
  4133  00083C                     i2l469:
  4134  00083C  B8C5               	btfsc	4037,4,c	;volatile
  4135  00083E  EF23  F004         	goto	i2u15_41
  4136  000842  EF25  F004         	goto	i2u15_40
  4137  000846                     i2u15_41:
  4138  000846  EF1E  F004         	goto	i2l469
  4139  00084A                     i2u15_40:
  4140  00084A                     
  4141                           ;main.c: 909:     SSPCON2bits.RCEN = 1;
  4142  00084A  86C5               	bsf	197,3,c	;volatile
  4143  00084C                     i2l472:
  4144  00084C  A0C7               	btfss	199,0,c	;volatile
  4145  00084E  EF2B  F004         	goto	i2u16_41
  4146  000852  EF2D  F004         	goto	i2u16_40
  4147  000856                     i2u16_41:
  4148  000856  EF26  F004         	goto	i2l472
  4149  00085A                     i2u16_40:
  4150  00085A                     
  4151                           ;main.c: 911:     CurrentTime[1] = SSPBUF;
  4152  00085A  CFC9 F01B          	movff	4041,_CurrentTime+1	;volatile
  4153                           
  4154                           ;main.c: 913:     SSPCON2bits.ACKDT = 0;
  4155  00085E  9AC5               	bcf	197,5,c	;volatile
  4156                           
  4157                           ;main.c: 914:     SSPCON2bits.ACKEN = 1;
  4158  000860  88C5               	bsf	197,4,c	;volatile
  4159  000862                     i2l475:
  4160  000862  B8C5               	btfsc	4037,4,c	;volatile
  4161  000864  EF36  F004         	goto	i2u17_41
  4162  000868  EF38  F004         	goto	i2u17_40
  4163  00086C                     i2u17_41:
  4164  00086C  EF31  F004         	goto	i2l475
  4165  000870                     i2u17_40:
  4166  000870                     
  4167                           ;main.c: 917:     SSPCON2bits.RCEN = 1;
  4168  000870  86C5               	bsf	197,3,c	;volatile
  4169  000872                     i2l478:
  4170  000872  A0C7               	btfss	199,0,c	;volatile
  4171  000874  EF3E  F004         	goto	i2u18_41
  4172  000878  EF40  F004         	goto	i2u18_40
  4173  00087C                     i2u18_41:
  4174  00087C  EF39  F004         	goto	i2l478
  4175  000880                     i2u18_40:
  4176  000880                     
  4177                           ;main.c: 919:     CurrentTime[2] = SSPBUF;
  4178  000880  CFC9 F01C          	movff	4041,_CurrentTime+2	;volatile
  4179                           
  4180                           ;main.c: 921:     SSPCON2bits.ACKDT = 1;
  4181  000884  8AC5               	bsf	197,5,c	;volatile
  4182                           
  4183                           ;main.c: 922:     SSPCON2bits.ACKEN = 1;
  4184  000886  88C5               	bsf	197,4,c	;volatile
  4185  000888                     i2l481:
  4186  000888  B8C5               	btfsc	4037,4,c	;volatile
  4187  00088A  EF49  F004         	goto	i2u19_41
  4188  00088E  EF4B  F004         	goto	i2u19_40
  4189  000892                     i2u19_41:
  4190  000892  EF44  F004         	goto	i2l481
  4191  000896                     i2u19_40:
  4192  000896                     
  4193                           ;main.c: 925:     SSPCON2bits.PEN = 1;
  4194  000896  84C5               	bsf	197,2,c	;volatile
  4195  000898                     i2l484:
  4196  000898  B4C5               	btfsc	4037,2,c	;volatile
  4197  00089A  EF51  F004         	goto	i2u20_41
  4198  00089E  EF53  F004         	goto	i2u20_40
  4199  0008A2                     i2u20_41:
  4200  0008A2  EF4C  F004         	goto	i2l484
  4201  0008A6                     i2u20_40:
  4202  0008A6                     i2l448:
  4203  0008A6  0012               	return		;funcret
  4204  0008A8                     __end_ofi2_UpdateCurrentTime:
  4205                           	callstack 0
  4206                           
  4207 ;; *************** function i2_SubBCD *****************
  4208 ;; Defined at:
  4209 ;;		line 720 in file "main.c"
  4210 ;; Parameters:    Size  Location     Type
  4211 ;;  Number1         1    wreg     unsigned char 
  4212 ;;  Number2         1    0[COMRAM] unsigned char 
  4213 ;; Auto vars:     Size  Location     Type
  4214 ;;  Number1         1    2[COMRAM] unsigned char 
  4215 ;;  temp            1    3[COMRAM] unsigned char 
  4216 ;; Return value:  Size  Location     Type
  4217 ;;                  1    wreg      unsigned char 
  4218 ;; Registers used:
  4219 ;;		wreg, status,2, status,0
  4220 ;; Tracked objects:
  4221 ;;		On entry : 0/0
  4222 ;;		On exit  : 0/0
  4223 ;;		Unchanged: 0/0
  4224 ;; Data sizes:     COMRAM   BANK0   BANK1   BANK2   BANK3   BANK4   BANK5   BANK6   BANK7   BANK8   BANK9  BANK10  BANK1
      +1  BANK12  BANK13  BANK14  BANK15
  4225 ;;      Params:         1       0       0       0       0       0       0       0       0       0       0       0       
      +0       0       0       0       0
  4226 ;;      Locals:         2       0       0       0       0       0       0       0       0       0       0       0       
      +0       0       0       0       0
  4227 ;;      Temps:          1       0       0       0       0       0       0       0       0       0       0       0       
      +0       0       0       0       0
  4228 ;;      Totals:         4       0       0       0       0       0       0       0       0       0       0       0       
      +0       0       0       0       0
  4229 ;;Total ram usage:        4 bytes
  4230 ;; Hardware stack levels used: 1
  4231 ;; This function calls:
  4232 ;;		Nothing
  4233 ;; This function is called by:
  4234 ;;		_INT2interruption
  4235 ;;		i2_WakeUp
  4236 ;; This function uses a non-reentrant model
  4237 ;;
  4238                           
  4239                           	psect	text26
  4240  001066                     __ptext26:
  4241                           	callstack 0
  4242  001066                     i2_SubBCD:
  4243                           	callstack 25
  4244                           
  4245                           ;incstack = 0
  4246                           ;i2SubBCD@Number1 stored from wreg
  4247  001066  6E1F               	movwf	i2SubBCD@Number1^0,c
  4248  001068                     
  4249                           ;main.c: 721:     char temp = Number1 - Number2;
  4250  001068  501D               	movf	i2SubBCD@Number2^0,w,c
  4251  00106A  5C1F               	subwf	i2SubBCD@Number1^0,w,c
  4252  00106C  6E20               	movwf	i2SubBCD@temp^0,c
  4253                           
  4254                           ;main.c: 723:     if ((temp & 0x0F) > 9) return temp - 0x06;
  4255  00106E  C020  F01E         	movff	i2SubBCD@temp,??i2_SubBCD
  4256  001072  0E0F               	movlw	15
  4257  001074  161E               	andwf	??i2_SubBCD^0,f,c
  4258  001076  0E09               	movlw	9
  4259  001078  641E               	cpfsgt	??i2_SubBCD^0,c
  4260  00107A  EF41  F008         	goto	i2u125_41
  4261  00107E  EF43  F008         	goto	i2u125_40
  4262  001082                     i2u125_41:
  4263  001082  EF47  F008         	goto	i2l1876
  4264  001086                     i2u125_40:
  4265  001086  5020               	movf	i2SubBCD@temp^0,w,c
  4266  001088  0FFA               	addlw	250
  4267  00108A  EF48  F008         	goto	i2l355
  4268  00108E                     i2l1876:
  4269  00108E  5020               	movf	i2SubBCD@temp^0,w,c
  4270  001090                     i2l355:
  4271  001090  0012               	return		;funcret
  4272  001092                     __end_ofi2_SubBCD:
  4273                           	callstack 0
  4274                           
  4275 ;; *************** function i2_AddBCD *****************
  4276 ;; Defined at:
  4277 ;;		line 714 in file "main.c"
  4278 ;; Parameters:    Size  Location     Type
  4279 ;;  Number1         1    wreg     unsigned char 
  4280 ;;  Number2         1    0[COMRAM] unsigned char 
  4281 ;; Auto vars:     Size  Location     Type
  4282 ;;  Number1         1    2[COMRAM] unsigned char 
  4283 ;;  temp            1    3[COMRAM] unsigned char 
  4284 ;; Return value:  Size  Location     Type
  4285 ;;                  1    wreg      unsigned char 
  4286 ;; Registers used:
  4287 ;;		wreg, status,2, status,0
  4288 ;; Tracked objects:
  4289 ;;		On entry : 0/0
  4290 ;;		On exit  : 0/0
  4291 ;;		Unchanged: 0/0
  4292 ;; Data sizes:     COMRAM   BANK0   BANK1   BANK2   BANK3   BANK4   BANK5   BANK6   BANK7   BANK8   BANK9  BANK10  BANK1
      +1  BANK12  BANK13  BANK14  BANK15
  4293 ;;      Params:         1       0       0       0       0       0       0       0       0       0       0       0       
      +0       0       0       0       0
  4294 ;;      Locals:         2       0       0       0       0       0       0       0       0       0       0       0       
      +0       0       0       0       0
  4295 ;;      Temps:          1       0       0       0       0       0       0       0       0       0       0       0       
      +0       0       0       0       0
  4296 ;;      Totals:         4       0       0       0       0       0       0       0       0       0       0       0       
      +0       0       0       0       0
  4297 ;;Total ram usage:        4 bytes
  4298 ;; Hardware stack levels used: 1
  4299 ;; This function calls:
  4300 ;;		Nothing
  4301 ;; This function is called by:
  4302 ;;		_IncrementTime
  4303 ;;		_IncrementTimeHour
  4304 ;;		i2_WakeUp
  4305 ;; This function uses a non-reentrant model
  4306 ;;
  4307                           
  4308                           	psect	text27
  4309  001092                     __ptext27:
  4310                           	callstack 0
  4311  001092                     i2_AddBCD:
  4312                           	callstack 25
  4313                           
  4314                           ;incstack = 0
  4315                           ;i2AddBCD@Number1 stored from wreg
  4316  001092  6E1F               	movwf	i2AddBCD@Number1^0,c
  4317  001094                     
  4318                           ;main.c: 715:     char temp = Number1 + Number2;
  4319  001094  501F               	movf	i2AddBCD@Number1^0,w,c
  4320  001096  241D               	addwf	i2AddBCD@Number2^0,w,c
  4321  001098  6E20               	movwf	i2AddBCD@temp^0,c
  4322                           
  4323                           ;main.c: 717:     if ((temp & 0x0F) > 9) return temp + 0x06;
  4324  00109A  C020  F01E         	movff	i2AddBCD@temp,??i2_AddBCD
  4325  00109E  0E0F               	movlw	15
  4326  0010A0  161E               	andwf	??i2_AddBCD^0,f,c
  4327  0010A2  0E09               	movlw	9
  4328  0010A4  641E               	cpfsgt	??i2_AddBCD^0,c
  4329  0010A6  EF57  F008         	goto	i2u124_41
  4330  0010AA  EF59  F008         	goto	i2u124_40
  4331  0010AE                     i2u124_41:
  4332  0010AE  EF5D  F008         	goto	i2l1864
  4333  0010B2                     i2u124_40:
  4334  0010B2  5020               	movf	i2AddBCD@temp^0,w,c
  4335  0010B4  0F06               	addlw	6
  4336  0010B6  EF5E  F008         	goto	i2l350
  4337  0010BA                     i2l1864:
  4338  0010BA  5020               	movf	i2AddBCD@temp^0,w,c
  4339  0010BC                     i2l350:
  4340  0010BC  0012               	return		;funcret
  4341  0010BE                     __end_ofi2_AddBCD:
  4342                           	callstack 0
  4343                           
  4344 ;; *************** function _TMR1enable *****************
  4345 ;; Defined at:
  4346 ;;		line 696 in file "main.c"
  4347 ;; Parameters:    Size  Location     Type
  4348 ;;		None
  4349 ;; Auto vars:     Size  Location     Type
  4350 ;;		None
  4351 ;; Return value:  Size  Location     Type
  4352 ;;                  1    wreg      void 
  4353 ;; Registers used:
  4354 ;;		None
  4355 ;; Tracked objects:
  4356 ;;		On entry : 0/0
  4357 ;;		On exit  : 0/0
  4358 ;;		Unchanged: 0/0
  4359 ;; Data sizes:     COMRAM   BANK0   BANK1   BANK2   BANK3   BANK4   BANK5   BANK6   BANK7   BANK8   BANK9  BANK10  BANK1
      +1  BANK12  BANK13  BANK14  BANK15
  4360 ;;      Params:         0       0       0       0       0       0       0       0       0       0       0       0       
      +0       0       0       0       0
  4361 ;;      Locals:         0       0       0       0       0       0       0       0       0       0       0       0       
      +0       0       0       0       0
  4362 ;;      Temps:          0       0       0       0       0       0       0       0       0       0       0       0       
      +0       0       0       0       0
  4363 ;;      Totals:         0       0       0       0       0       0       0       0       0       0       0       0       
      +0       0       0       0       0
  4364 ;;Total ram usage:        0 bytes
  4365 ;; Hardware stack levels used: 1
  4366 ;; This function calls:
  4367 ;;		Nothing
  4368 ;; This function is called by:
  4369 ;;		_INT0interruption
  4370 ;; This function uses a non-reentrant model
  4371 ;;
  4372                           
  4373                           	psect	text28
  4374  00117E                     __ptext28:
  4375                           	callstack 0
  4376  00117E                     _TMR1enable:
  4377                           	callstack 26
  4378  00117E                     
  4379                           ;main.c: 697:     T0CONbits.TMR0ON = 0;
  4380  00117E  9ED5               	bcf	213,7,c	;volatile
  4381                           
  4382                           ;main.c: 698:     T1CONbits.TMR1ON = 1;
  4383  001180  80CD               	bsf	205,0,c	;volatile
  4384  001182  0012               	return		;funcret
  4385  001184                     __end_of_TMR1enable:
  4386                           	callstack 0
  4387                           
  4388 ;; *************** function _TMR0enable *****************
  4389 ;; Defined at:
  4390 ;;		line 700 in file "main.c"
  4391 ;; Parameters:    Size  Location     Type
  4392 ;;		None
  4393 ;; Auto vars:     Size  Location     Type
  4394 ;;		None
  4395 ;; Return value:  Size  Location     Type
  4396 ;;                  1    wreg      void 
  4397 ;; Registers used:
  4398 ;;		None
  4399 ;; Tracked objects:
  4400 ;;		On entry : 0/0
  4401 ;;		On exit  : 0/0
  4402 ;;		Unchanged: 0/0
  4403 ;; Data sizes:     COMRAM   BANK0   BANK1   BANK2   BANK3   BANK4   BANK5   BANK6   BANK7   BANK8   BANK9  BANK10  BANK1
      +1  BANK12  BANK13  BANK14  BANK15
  4404 ;;      Params:         0       0       0       0       0       0       0       0       0       0       0       0       
      +0       0       0       0       0
  4405 ;;      Locals:         0       0       0       0       0       0       0       0       0       0       0       0       
      +0       0       0       0       0
  4406 ;;      Temps:          0       0       0       0       0       0       0       0       0       0       0       0       
      +0       0       0       0       0
  4407 ;;      Totals:         0       0       0       0       0       0       0       0       0       0       0       0       
      +0       0       0       0       0
  4408 ;;Total ram usage:        0 bytes
  4409 ;; Hardware stack levels used: 1
  4410 ;; This function calls:
  4411 ;;		Nothing
  4412 ;; This function is called by:
  4413 ;;		_INT0interruption
  4414 ;; This function uses a non-reentrant model
  4415 ;;
  4416                           
  4417                           	psect	text29
  4418  001184                     __ptext29:
  4419                           	callstack 0
  4420  001184                     _TMR0enable:
  4421                           	callstack 26
  4422  001184                     
  4423                           ;main.c: 701:     T0CONbits.TMR0ON = 1;
  4424  001184  8ED5               	bsf	213,7,c	;volatile
  4425                           
  4426                           ;main.c: 702:     T1CONbits.TMR1ON = 0;
  4427  001186  90CD               	bcf	205,0,c	;volatile
  4428  001188  0012               	return		;funcret
  4429  00118A                     __end_of_TMR0enable:
  4430                           	callstack 0
  4431                           
  4432 ;; *************** function _Buzz *****************
  4433 ;; Defined at:
  4434 ;;		line 776 in file "main.c"
  4435 ;; Parameters:    Size  Location     Type
  4436 ;;		None
  4437 ;; Auto vars:     Size  Location     Type
  4438 ;;		None
  4439 ;; Return value:  Size  Location     Type
  4440 ;;                  1    wreg      void 
  4441 ;; Registers used:
  4442 ;;		wreg, status,2
  4443 ;; Tracked objects:
  4444 ;;		On entry : 0/0
  4445 ;;		On exit  : 0/0
  4446 ;;		Unchanged: 0/0
  4447 ;; Data sizes:     COMRAM   BANK0   BANK1   BANK2   BANK3   BANK4   BANK5   BANK6   BANK7   BANK8   BANK9  BANK10  BANK1
      +1  BANK12  BANK13  BANK14  BANK15
  4448 ;;      Params:         0       0       0       0       0       0       0       0       0       0       0       0       
      +0       0       0       0       0
  4449 ;;      Locals:         0       0       0       0       0       0       0       0       0       0       0       0       
      +0       0       0       0       0
  4450 ;;      Temps:          0       0       0       0       0       0       0       0       0       0       0       0       
      +0       0       0       0       0
  4451 ;;      Totals:         0       0       0       0       0       0       0       0       0       0       0       0       
      +0       0       0       0       0
  4452 ;;Total ram usage:        0 bytes
  4453 ;; Hardware stack levels used: 1
  4454 ;; This function calls:
  4455 ;;		Nothing
  4456 ;; This function is called by:
  4457 ;;		_INT0interruption
  4458 ;;		_INT1interruption
  4459 ;;		_INT2interruption
  4460 ;; This function uses a non-reentrant model
  4461 ;;
  4462                           
  4463                           	psect	text30
  4464  001168                     __ptext30:
  4465                           	callstack 0
  4466  001168                     _Buzz:
  4467                           	callstack 26
  4468  001168                     
  4469                           ;main.c: 778:     PIE2bits.TMR3IE = 1;
  4470  001168  82A0               	bsf	160,1,c	;volatile
  4471  00116A                     
  4472                           ;main.c: 779:     TMR3 = 0;
  4473  00116A  0E00               	movlw	0
  4474  00116C  6EB3               	movwf	179,c	;volatile
  4475  00116E  0E00               	movlw	0
  4476  001170  6EB2               	movwf	178,c	;volatile
  4477  001172  0012               	return		;funcret
  4478  001174                     __end_of_Buzz:
  4479                           	callstack 0
  4480  0000                     
  4481                           	psect	rparam
  4482  0000                     
  4483                           	psect	temp
  4484  000033                     btemp:
  4485                           	callstack 0
  4486  000033                     	ds	1
  4487  0000                     int$flags	set	btemp
  4488  0000                     wtemp8	set	btemp+1
  4489  0000                     ttemp5	set	btemp+1
  4490  0000                     ttemp6	set	btemp+4
  4491  0000                     ttemp7	set	btemp+8
  4492                           
  4493                           	psect	idloc
  4494                           
  4495                           ;Config register IDLOC0 @ 0x200000
  4496                           ;	unspecified, using default values
  4497  200000                     	org	2097152
  4498  200000  FF                 	db	255
  4499                           
  4500                           ;Config register IDLOC1 @ 0x200001
  4501                           ;	unspecified, using default values
  4502  200001                     	org	2097153
  4503  200001  FF                 	db	255
  4504                           
  4505                           ;Config register IDLOC2 @ 0x200002
  4506                           ;	unspecified, using default values
  4507  200002                     	org	2097154
  4508  200002  FF                 	db	255
  4509                           
  4510                           ;Config register IDLOC3 @ 0x200003
  4511                           ;	unspecified, using default values
  4512  200003                     	org	2097155
  4513  200003  FF                 	db	255
  4514                           
  4515                           ;Config register IDLOC4 @ 0x200004
  4516                           ;	unspecified, using default values
  4517  200004                     	org	2097156
  4518  200004  FF                 	db	255
  4519                           
  4520                           ;Config register IDLOC5 @ 0x200005
  4521                           ;	unspecified, using default values
  4522  200005                     	org	2097157
  4523  200005  FF                 	db	255
  4524                           
  4525                           ;Config register IDLOC6 @ 0x200006
  4526                           ;	unspecified, using default values
  4527  200006                     	org	2097158
  4528  200006  FF                 	db	255
  4529                           
  4530                           ;Config register IDLOC7 @ 0x200007
  4531                           ;	unspecified, using default values
  4532  200007                     	org	2097159
  4533  200007  FF                 	db	255
  4534                           
  4535                           	psect	config
  4536                           
  4537                           ; Padding undefined space
  4538  300000                     	org	3145728
  4539  300000  FF                 	db	255
  4540                           
  4541                           ;Config register CONFIG1H @ 0x300001
  4542                           ;	Oscillator Selection bits
  4543                           ;	OSC = INTIO67, Internal oscillator block, port function on RA6 and RA7
  4544                           ;	Fail-Safe Clock Monitor Enable bit
  4545                           ;	FCMEN = OFF, Fail-Safe Clock Monitor disabled
  4546                           ;	Internal/External Oscillator Switchover bit
  4547                           ;	IESO = OFF, Oscillator Switchover mode disabled
  4548  300001                     	org	3145729
  4549  300001  08                 	db	8
  4550                           
  4551                           ;Config register CONFIG2L @ 0x300002
  4552                           ;	Power-up Timer Enable bit
  4553                           ;	PWRT = OFF, PWRT disabled
  4554                           ;	Brown-out Reset Enable bits
  4555                           ;	BOREN = OFF, Brown-out Reset disabled in hardware and software
  4556                           ;	Brown Out Reset Voltage bits
  4557                           ;	BORV = 3, Minimum setting
  4558  300002                     	org	3145730
  4559  300002  19                 	db	25
  4560                           
  4561                           ;Config register CONFIG2H @ 0x300003
  4562                           ;	Watchdog Timer Enable bit
  4563                           ;	WDT = OFF, WDT disabled (control is placed on the SWDTEN bit)
  4564                           ;	Watchdog Timer Postscale Select bits
  4565                           ;	WDTPS = 32768, 1:32768
  4566  300003                     	org	3145731
  4567  300003  1E                 	db	30
  4568                           
  4569                           ; Padding undefined space
  4570  300004                     	org	3145732
  4571  300004  FF                 	db	255
  4572                           
  4573                           ;Config register CONFIG3H @ 0x300005
  4574                           ;	CCP2 MUX bit
  4575                           ;	CCP2MX = PORTC, CCP2 input/output is multiplexed with RC1
  4576                           ;	PORTB A/D Enable bit
  4577                           ;	PBADEN = OFF, PORTB<4:0> pins are configured as digital I/O on Reset
  4578                           ;	Low-Power Timer1 Oscillator Enable bit
  4579                           ;	LPT1OSC = OFF, Timer1 configured for higher power operation
  4580                           ;	MCLR Pin Enable bit
  4581                           ;	MCLRE = ON, MCLR pin enabled; RE3 input pin disabled
  4582  300005                     	org	3145733
  4583  300005  81                 	db	129
  4584                           
  4585                           ;Config register CONFIG4L @ 0x300006
  4586                           ;	Stack Full/Underflow Reset Enable bit
  4587                           ;	STVREN = OFF, Stack full/underflow will not cause Reset
  4588                           ;	Single-Supply ICSP Enable bit
  4589                           ;	LVP = OFF, Single-Supply ICSP disabled
  4590                           ;	Extended Instruction Set Enable bit
  4591                           ;	XINST = OFF, Instruction set extension and Indexed Addressing mode disabled (Legacy mo
      +                          de)
  4592                           ;	Background Debugger Enable bit
  4593                           ;	DEBUG = 0x1, unprogrammed default
  4594  300006                     	org	3145734
  4595  300006  80                 	db	128
  4596                           
  4597                           ; Padding undefined space
  4598  300007                     	org	3145735
  4599  300007  FF                 	db	255
  4600                           
  4601                           ;Config register CONFIG5L @ 0x300008
  4602                           ;	Code Protection bit
  4603                           ;	CP0 = OFF, Block 0 (000800-003FFFh) not code-protected
  4604                           ;	Code Protection bit
  4605                           ;	CP1 = OFF, Block 1 (004000-007FFFh) not code-protected
  4606                           ;	Code Protection bit
  4607                           ;	CP2 = OFF, Block 2 (008000-00BFFFh) not code-protected
  4608                           ;	Code Protection bit
  4609                           ;	CP3 = OFF, Block 3 (00C000-00FFFFh) not code-protected
  4610  300008                     	org	3145736
  4611  300008  0F                 	db	15
  4612                           
  4613                           ;Config register CONFIG5H @ 0x300009
  4614                           ;	Boot Block Code Protection bit
  4615                           ;	CPB = OFF, Boot block (000000-0007FFh) not code-protected
  4616                           ;	Data EEPROM Code Protection bit
  4617                           ;	CPD = OFF, Data EEPROM not code-protected
  4618  300009                     	org	3145737
  4619  300009  C0                 	db	192
  4620                           
  4621                           ;Config register CONFIG6L @ 0x30000A
  4622                           ;	Write Protection bit
  4623                           ;	WRT0 = OFF, Block 0 (000800-003FFFh) not write-protected
  4624                           ;	Write Protection bit
  4625                           ;	WRT1 = OFF, Block 1 (004000-007FFFh) not write-protected
  4626                           ;	Write Protection bit
  4627                           ;	WRT2 = OFF, Block 2 (008000-00BFFFh) not write-protected
  4628                           ;	Write Protection bit
  4629                           ;	WRT3 = OFF, Block 3 (00C000-00FFFFh) not write-protected
  4630  30000A                     	org	3145738
  4631  30000A  0F                 	db	15
  4632                           
  4633                           ;Config register CONFIG6H @ 0x30000B
  4634                           ;	Configuration Register Write Protection bit
  4635                           ;	WRTC = OFF, Configuration registers (300000-3000FFh) not write-protected
  4636                           ;	Boot Block Write Protection bit
  4637                           ;	WRTB = OFF, Boot Block (000000-0007FFh) not write-protected
  4638                           ;	Data EEPROM Write Protection bit
  4639                           ;	WRTD = OFF, Data EEPROM not write-protected
  4640  30000B                     	org	3145739
  4641  30000B  E0                 	db	224
  4642                           
  4643                           ;Config register CONFIG7L @ 0x30000C
  4644                           ;	Table Read Protection bit
  4645                           ;	EBTR0 = OFF, Block 0 (000800-003FFFh) not protected from table reads executed in other
      +                           blocks
  4646                           ;	Table Read Protection bit
  4647                           ;	EBTR1 = OFF, Block 1 (004000-007FFFh) not protected from table reads executed in other
      +                           blocks
  4648                           ;	Table Read Protection bit
  4649                           ;	EBTR2 = OFF, Block 2 (008000-00BFFFh) not protected from table reads executed in other
      +                           blocks
  4650                           ;	Table Read Protection bit
  4651                           ;	EBTR3 = OFF, Block 3 (00C000-00FFFFh) not protected from table reads executed in other
      +                           blocks
  4652  30000C                     	org	3145740
  4653  30000C  0F                 	db	15
  4654                           
  4655                           ;Config register CONFIG7H @ 0x30000D
  4656                           ;	Boot Block Table Read Protection bit
  4657                           ;	EBTRB = OFF, Boot Block (000000-0007FFh) not protected from table reads executed in ot
      +                          her blocks
  4658  30000D                     	org	3145741
  4659  30000D  40                 	db	64
  4660                           tosu	equ	0xFFF
  4661                           tosh	equ	0xFFE
  4662                           tosl	equ	0xFFD
  4663                           stkptr	equ	0xFFC
  4664                           pclatu	equ	0xFFB
  4665                           pclath	equ	0xFFA
  4666                           pcl	equ	0xFF9
  4667                           tblptru	equ	0xFF8
  4668                           tblptrh	equ	0xFF7
  4669                           tblptrl	equ	0xFF6
  4670                           tablat	equ	0xFF5
  4671                           prodh	equ	0xFF4
  4672                           prodl	equ	0xFF3
  4673                           indf0	equ	0xFEF
  4674                           postinc0	equ	0xFEE
  4675                           postdec0	equ	0xFED
  4676                           preinc0	equ	0xFEC
  4677                           plusw0	equ	0xFEB
  4678                           fsr0h	equ	0xFEA
  4679                           fsr0l	equ	0xFE9
  4680                           wreg	equ	0xFE8
  4681                           indf1	equ	0xFE7
  4682                           postinc1	equ	0xFE6
  4683                           postdec1	equ	0xFE5
  4684                           preinc1	equ	0xFE4
  4685                           plusw1	equ	0xFE3
  4686                           fsr1h	equ	0xFE2
  4687                           fsr1l	equ	0xFE1
  4688                           bsr	equ	0xFE0
  4689                           indf2	equ	0xFDF
  4690                           postinc2	equ	0xFDE
  4691                           postdec2	equ	0xFDD
  4692                           preinc2	equ	0xFDC
  4693                           plusw2	equ	0xFDB
  4694                           fsr2h	equ	0xFDA
  4695                           fsr2l	equ	0xFD9
  4696                           status	equ	0xFD8

Data Sizes:
    Strings     0
    Constant    0
    Data        3
    BSS         28
    Persistent  0
    Stack       0

Auto Spaces:
    Space          Size  Autos    Used
    COMRAM          126     19      50
    BANK0           128      0       0
    BANK1           256      0       0
    BANK2           256      0       0
    BANK3           256      0       0
    BANK4           256      0       0
    BANK5           256      0       0
    BANK6           256      0       0
    BANK7           256      0       0
    BANK8           256      0       0
    BANK9           256      0       0
    BANK10          256      0       0
    BANK11          256      0       0
    BANK12          256      0       0
    BANK13          256      0       0
    BANK14          256      0       0
    BANK15          128      0       0

Pointer List with Targets:

    IncrementTimeHour@Time	PTR unsigned char  size(2) Largest target is 3
		 -> TargetTime(COMRAM[3]), CurrentTime(COMRAM[3]), 

    IncrementTime@Time	PTR unsigned char  size(2) Largest target is 3
		 -> ValveTime(COMRAM[3]), WateringTime(COMRAM[3]), TargetTime(COMRAM[3]), CurrentTime(COMRAM[3]), 


Critical Paths under _main in COMRAM

    _main->_Display
    _WakeUp->_AddBCD
    _WakeUp->_SubBCD
    _MCUinit->_Display

Critical Paths under _my_isr_routine in COMRAM

    _my_isr_routine->_INT1interruption
    _INT2interruption->i2_WakeUp
    _INT1interruption->_IncrementTime
    _INT1interruption->_IncrementTimeHour
    _IncrementTimeHour->i2_AddBCD
    _IncrementTime->i2_AddBCD
    _INT0interruption->i2_WakeUp
    i2_WakeUp->i2_AddBCD
    i2_WakeUp->i2_SubBCD

Critical Paths under _main in BANK0

    None.

Critical Paths under _my_isr_routine in BANK0

    None.

Critical Paths under _main in BANK1

    None.

Critical Paths under _my_isr_routine in BANK1

    None.

Critical Paths under _main in BANK2

    None.

Critical Paths under _my_isr_routine in BANK2

    None.

Critical Paths under _main in BANK3

    None.

Critical Paths under _my_isr_routine in BANK3

    None.

Critical Paths under _main in BANK4

    None.

Critical Paths under _my_isr_routine in BANK4

    None.

Critical Paths under _main in BANK5

    None.

Critical Paths under _my_isr_routine in BANK5

    None.

Critical Paths under _main in BANK6

    None.

Critical Paths under _my_isr_routine in BANK6

    None.

Critical Paths under _main in BANK7

    None.

Critical Paths under _my_isr_routine in BANK7

    None.

Critical Paths under _main in BANK8

    None.

Critical Paths under _my_isr_routine in BANK8

    None.

Critical Paths under _main in BANK9

    None.

Critical Paths under _my_isr_routine in BANK9

    None.

Critical Paths under _main in BANK10

    None.

Critical Paths under _my_isr_routine in BANK10

    None.

Critical Paths under _main in BANK11

    None.

Critical Paths under _my_isr_routine in BANK11

    None.

Critical Paths under _main in BANK12

    None.

Critical Paths under _my_isr_routine in BANK12

    None.

Critical Paths under _main in BANK13

    None.

Critical Paths under _my_isr_routine in BANK13

    None.

Critical Paths under _main in BANK14

    None.

Critical Paths under _my_isr_routine in BANK14

    None.

Critical Paths under _main in BANK15

    None.

Critical Paths under _my_isr_routine in BANK15

    None.

Call Graph Tables:

 ---------------------------------------------------------------------------------
 (Depth) Function   	        Calls       Base Space   Used Autos Params    Refs
 ---------------------------------------------------------------------------------
 (0) _main                                                 2     2      0    5108
                                             17 COMRAM     2     2      0
                             _AddBCD
                         _BlinkDigit
                            _Display
                          _MCUconfig
                            _MCUinit
                  _UpdateCurrentTime
                             _WakeUp
 ---------------------------------------------------------------------------------
 (1) _WakeUp                                               1     1      0    1786
                                             15 COMRAM     1     1      0
                             _AddBCD
                             _SubBCD
                  _UpdateCurrentTime
 ---------------------------------------------------------------------------------
 (2) _UpdateCurrentTime                                    0     0      0       0
 ---------------------------------------------------------------------------------
 (2) _SubBCD                                               4     3      1     663
                                             11 COMRAM     4     3      1
 ---------------------------------------------------------------------------------
 (2) _AddBCD                                               4     3      1    1123
                                             11 COMRAM     4     3      1
 ---------------------------------------------------------------------------------
 (1) _MCUinit                                              0     0      0    1092
                            _Display
 ---------------------------------------------------------------------------------
 (2) _Display                                              6     5      1    1092
                                             11 COMRAM     6     5      1
 ---------------------------------------------------------------------------------
 (1) _MCUconfig                                            0     0      0       0
                         _GPIOconfig
                          _I2Cconfig
                          _INTconfig
                          _PWMconfig
                        _TIMERconfig
 ---------------------------------------------------------------------------------
 (2) _TIMERconfig                                          0     0      0       0
 ---------------------------------------------------------------------------------
 (2) _PWMconfig                                            0     0      0       0
 ---------------------------------------------------------------------------------
 (2) _INTconfig                                            0     0      0       0
 ---------------------------------------------------------------------------------
 (2) _I2Cconfig                                            0     0      0       0
 ---------------------------------------------------------------------------------
 (2) _GPIOconfig                                           0     0      0       0
 ---------------------------------------------------------------------------------
 (1) _BlinkDigit                                           3     3      0      15
                                             11 COMRAM     3     3      0
 ---------------------------------------------------------------------------------
 Estimated maximum stack depth 2
 ---------------------------------------------------------------------------------
 (Depth) Function   	        Calls       Base Space   Used Autos Params    Refs
 ---------------------------------------------------------------------------------
 (3) _my_isr_routine                                       2     2      0    5167
                                              9 COMRAM     2     2      0
                   _INT0interruption
                   _INT1interruption
                   _INT2interruption
                   _TMR0interruption
                   _TMR1interruption
                   _TMR3interruption
 ---------------------------------------------------------------------------------
 (4) _TMR3interruption                                     0     0      0       0
 ---------------------------------------------------------------------------------
 (4) _TMR1interruption                                     0     0      0       0
 ---------------------------------------------------------------------------------
 (4) _TMR0interruption                                     2     2      0       0
                                              0 COMRAM     2     2      0
                i2_UpdateCurrentTime
 ---------------------------------------------------------------------------------
 (4) _INT2interruption                                     2     2      0    1713
                                              5 COMRAM     2     2      0
                               _Buzz
                         _ChangeTime
                           i2_SubBCD
                           i2_WakeUp
 ---------------------------------------------------------------------------------
 (4) _INT1interruption                                     2     2      0    2764
                                              7 COMRAM     2     2      0
                               _Buzz
                         _ChangeTime
                      _IncrementTime
                  _IncrementTimeHour
                           i2_WakeUp
 ---------------------------------------------------------------------------------
 (5) _IncrementTimeHour                                    3     1      2     559
                                              4 COMRAM     3     1      2
                           i2_AddBCD
 ---------------------------------------------------------------------------------
 (5) _IncrementTime                                        3     1      2     863
                                              4 COMRAM     3     1      2
                           i2_AddBCD
 ---------------------------------------------------------------------------------
 (5) _ChangeTime                                           2     1      1     652
                                              0 COMRAM     2     1      1
 ---------------------------------------------------------------------------------
 (4) _INT0interruption                                     2     2      0     690
                                              5 COMRAM     2     2      0
                               _Buzz
                         _TMR0enable
                         _TMR1enable
                           i2_WakeUp
 ---------------------------------------------------------------------------------
 (5) i2_WakeUp                                             1     1      0     690
                                              4 COMRAM     1     1      0
                           i2_AddBCD
                           i2_SubBCD
                i2_UpdateCurrentTime
 ---------------------------------------------------------------------------------
 (5) i2_UpdateCurrentTime                                  0     0      0       0
 ---------------------------------------------------------------------------------
 (6) i2_SubBCD                                             4     3      1     371
                                              0 COMRAM     4     3      1
 ---------------------------------------------------------------------------------
 (6) i2_AddBCD                                             4     3      1     319
                                              0 COMRAM     4     3      1
 ---------------------------------------------------------------------------------
 (5) _TMR1enable                                           0     0      0       0
 ---------------------------------------------------------------------------------
 (5) _TMR0enable                                           0     0      0       0
 ---------------------------------------------------------------------------------
 (5) _Buzz                                                 0     0      0       0
 ---------------------------------------------------------------------------------
 Estimated maximum stack depth 6
 ---------------------------------------------------------------------------------

 Call Graph Graphs:

 _main (ROOT)
   _AddBCD
   _BlinkDigit
   _Display
   _MCUconfig
     _GPIOconfig
     _I2Cconfig
     _INTconfig
     _PWMconfig
     _TIMERconfig
   _MCUinit
     _Display
   _UpdateCurrentTime
   _WakeUp
     _AddBCD
     _SubBCD
     _UpdateCurrentTime

 _my_isr_routine (ROOT)
   _INT0interruption
     _Buzz
     _TMR0enable
     _TMR1enable
     i2_WakeUp
       i2_AddBCD
       i2_SubBCD
       i2_UpdateCurrentTime
   _INT1interruption
     _Buzz
     _ChangeTime
     _IncrementTime
       i2_AddBCD
     _IncrementTimeHour
       i2_AddBCD
     i2_WakeUp
   _INT2interruption
     _Buzz
     _ChangeTime
     i2_SubBCD
     i2_WakeUp
   _TMR0interruption
     i2_UpdateCurrentTime
   _TMR1interruption
   _TMR3interruption

 Address spaces:
Name               Size   Autos  Total    Cost      Usage
BIGRAM             F7F      0       0      37        0.0%
EEDATA             400      0       0       0        0.0%
BITBANK14          100      0       0      32        0.0%
BANK14             100      0       0      33        0.0%
BITBANK13          100      0       0      30        0.0%
BANK13             100      0       0      31        0.0%
BITBANK12          100      0       0      28        0.0%
BANK12             100      0       0      29        0.0%
BITBANK11          100      0       0      26        0.0%
BANK11             100      0       0      27        0.0%
BITBANK10          100      0       0      24        0.0%
BANK10             100      0       0      25        0.0%
BITBANK9           100      0       0      22        0.0%
BANK9              100      0       0      23        0.0%
BITBANK8           100      0       0      20        0.0%
BANK8              100      0       0      21        0.0%
BITBANK7           100      0       0      18        0.0%
BANK7              100      0       0      19        0.0%
BITBANK6           100      0       0      16        0.0%
BANK6              100      0       0      17        0.0%
BITBANK5           100      0       0      14        0.0%
BANK5              100      0       0      15        0.0%
BITBANK4           100      0       0      12        0.0%
BANK4              100      0       0      13        0.0%
BITBANK3           100      0       0      10        0.0%
BANK3              100      0       0      11        0.0%
BITBANK2           100      0       0       8        0.0%
BANK2              100      0       0       9        0.0%
BITBANK1           100      0       0       6        0.0%
BANK1              100      0       0       7        0.0%
BITBANK15           80      0       0      35        0.0%
BANK15              80      0       0      36        0.0%
BITBANK0            80      0       0       4        0.0%
BANK0               80      0       0       5        0.0%
BITCOMRAM           7E      0       0       0        0.0%
COMRAM              7E     13      32       1       39.7%
BITSFR               0      0       0     200        0.0%
SFR                  0      0       0     200        0.0%
STACK                0      0       0       2        0.0%
NULL                 0      0       0       0        0.0%
ABS                  0      0      32      34        0.0%
DATA                 0      0      32       3        0.0%
CODE                 0      0       0       0        0.0%


Microchip Technology PIC18 Macro Assembler V2.32 build 20210201212658 
Symbol Table                                                                                   Sat Jul 24 18:20:02 2021

            _TMR1interruption 10BE                   _SSPSTATbits 000FC7    __size_of_IncrementTimeHour 0048  
          __size_of_I2Cconfig 000A                           l213 111C                           l222 114C  
                         l216 117C                           l225 10FE                           l330 0ED4  
                         l322 0D4E                           l170 004E                           l219 115A  
                         l315 1166                           l228 1136                           l350 1064  
                         l318 0D3A                           l174 009C                           l440 0624  
                         l168 0406                           l361 0A78                           l441 062A  
                         l363 0AB6                           l355 1038                           l451 066E  
                         l443 0638                           l195 026C                           l452 0692  
                         l365 0AF4                           l461 06B6                           l453 0680  
                         l445 064A                           l462 06DA                           l438 0616  
                         l367 0B04                           l359 0A3A                           l471 0700  
                         l463 06C8                           l480 0736                           l472 0702  
                         l456 0694                           l448 075C                           l481 073E  
                         l449 0660                           l474 0710                           l466 06DC  
                         l458 06A2                           l483 074C                           l475 0718  
                         l459 06A8                           l484 074E                           l468 06EA  
                         l477 0726                           l469 06F2                           l478 0728  
                         u300 0638                           u301 0634                           u310 0648  
                         u311 0644                           u400 06EA                           u320 0658  
                         u401 06E6                           u321 0654                           u410 0700  
                         u330 066E                           u411 06FC                           u331 066A  
                         u420 0710                           u340 067E                           u421 070C  
                         u341 067A                           u430 0726                           u350 068E  
                         _PR2 000FCB                           u431 0722                           u351 068A  
                         u440 0736                           u360 06A2                           _PEN 007E2A  
                         u441 0732                           u361 069E                           u450 074C  
                         u370 06B6                           u290 0624                           u451 0748  
                         u371 06B2                           u291 0620                           u460 075C  
                         u380 06C6                           u461 0758                           u381 06C2  
                         u390 06D6                           u391 06D2                           _SEN 007E28  
           ?_INT0interruption 001D           _CurrentWateringTime 0006                   ?_GPIOconfig 001D  
                         wreg 000FE8            ??_INT0interruption 0022                          l2000 0CD6  
                        l2010 0D3E                          l2002 0CF2                          l1300 1138  
                        l2012 0D4A                          l2004 0CF6                          l1302 1144  
                        l1310 10F2                          l2006 0D02                          l1304 1148  
                        l1312 10F8                          l2008 0D12                          l2200 0068  
                        l1306 10E0                          l1250 0614                          l2210 00AA  
                        l2202 007A                          l1308 10EC                          l1260 06A4  
                        l1252 0626                          l2300 02C4                          l2220 00EA  
                        l2212 00B0                          l2204 008C                          l1262 06C6  
                        l1254 0648                          l2310 0312                          l2302 02D4  
                        l2230 0140                          l2222 00FC                          l2214 00C0  
                        l2206 0094                          l1280 1108                          l1256 065C  
                        l2320 0330                          l2312 031A                          l2304 02D8  
                        l2240 0190                          l2232 0154                          l2224 0104  
                        l2216 00D0                          l2208 00A0                          l1290 1116  
                        l1282 110C                          l1258 067E                          l2330 036C  
                        l2322 0332                          l2314 0326                          l2306 02EA  
                        l2250 01DE                          l2242 01A2                          l2234 0168  
                        l2226 0118                          l2218 00D8                          l1292 1118  
                        l1284 1110                          l1276 1100                          l1380 112A  
                        l2340 0384                          l2332 0374                          l2324 033C  
                        l2308 0306                          l2316 032A                          l2260 01EC  
                        l2244 01BE                          l2252 01E2                          l2236 017C  
                        l2228 012C                          l1390 0E7E                          l1294 111A  
                        l1286 1112                          l1278 1104                          l1382 112E  
                        l1374 111E                          l2334 0378                          l2326 034E  
                        l2318 032E                          l2270 0212                          l2262 01EE  
                        l2246 01CA                          l2238 018C                          l2254 01E6  
                        l2190 001A                          l1392 0E8A                          l1288 1114  
                        l1296 1174                          l1384 1132                          l1376 1122  
                        l2336 037C                          l2328 0360                          l2280 0244  
                        l2272 0216                          l2264 01F0                          l2256 01E8  
                        l2248 01D2                          l2192 0026                          l2344 038C  
                        l1394 0E96                          l1298 114E                          l1378 1126  
                        l2338 0380                          l2290 027A                          l2282 024C  
                        l2274 021E                          l2266 01F2                          l2258 01EA  
                        l2194 003A                          l1388 0E7A                          l1900 0A7C  
                        l2292 0284                          l2284 025C                          l2276 022E  
                        l2268 0202                          l2196 0054                          l2188 0012  
                        l1398 0EA2                          l1910 0AA8                          l1902 0A7E  
                        l2294 0296                          l2286 0270                          l2278 0240  
                        l2198 0064                          l1920 0AD6                          l1912 0ABA  
                        l1904 0A86                          l2296 02A8                          l2288 0274  
                        l1922 0AE6                          l1914 0ABC                          l1906 0A88  
                        l1930 103C                          l2386 03A0                          l2298 02AC  
                        l2388 0EB6                          l1924 0AF8                          l1916 0AC4  
                        l1908 0A98                          l1932 105A                          l1926 0AFA  
                        l1918 0AC6                          l1928 0B02                          l1880 09F0  
                        l1890 0A40                          l1882 0A0C                          l1938 1062  
                        l1892 0A48                          l1884 0A1C                          l1972 1036  
                        l1964 1010                    _ChangeTime 0C10                          l1894 0A4A  
                        l1886 0A2C                          l1966 102E                          l1896 0A5A  
                        l1888 0A3E                          l1898 0A6A                          l1994 115C  
                        l1996 0CB6                          l1998 0CBA                          u1300 0A98  
                        u1301 0A94                          u1310 0AA8                          u1311 0AA4  
                        u1320 0AD6                          u1321 0AD2                          u1330 0AE6  
                        u1331 0AE2                          u1260 0A1C                          u1340 105A  
                        u1500 0CF2                          u1261 0A18                          u1341 1056  
                        u1501 0CEE                          _LATA 000F89                          u1270 0A2C  
                        _LATB 000F8A                          u1271 0A28                          u1280 0A5A  
                        u1281 0A56                          u1290 0A6A                          u1291 0A66  
                        u1460 102E                          u1700 00EA                          u1461 102A  
                        u1701 00E6                          u1710 00FC                          u1711 00F8  
                        u1800 026C                          u1720 018C                          u1801 0268  
                        u1721 0188                          u1490 0CD6                          u1810 0296  
                        u1730 01A2                          u1650 0064                          u1491 0CD2  
                        u1811 0292                          u1731 019E                          u1651 0060  
                        u1820 02A8                          u1740 01BE                          u1660 007A  
                        u1821 02A4                          u1741 01BA                          u1661 0076  
                        u1830 02D4                          u1750 0202                          u1670 008C  
                        u1831 02D0                          u1751 01FE                          u1671 0088  
                        _PIE1 000F9D                          u1840 02EA                          u1760 0212  
                        u1680 00C0                          _PIE2 000FA0                          u1841 02E6  
                        u1761 020E                          u1681 00BC                          u1850 0306  
                        u1770 022E                          u1690 00D0                          u1907 0A42  
                        u1851 0302                          u1771 022A                          u1691 00CC  
                        u1860 034E                          u1780 0240                          u1917 0A6E  
                        u1861 034A                          u1781 023C                          u1870 0360  
                        u1790 025C                          u1927 0A80                          u1871 035C  
                        u1791 0258                          u1937 0AAC                          u1947 0ABE  
                        u1957 0AEA                          u1967 0AFC                          u1887 001C  
                        u1897 0A30                          _TMR3 000FB2               __end_of_MCUinit 1168  
                        _Buzz 1168                 _IncrementTime 0F1E                          _main 0012  
                        fsr2h 000FDA                          indf2 000FDF                          fsr2l 000FD9  
                        btemp 0033                          start 000E                    _BlinkDigit 0E78  
             __end_of_Display 0B06                  ___param_bank 000000                         ?_Buzz 001D  
                       ?_main 001D                         _ACKEN 007E2C                         _T0CON 000FD5  
                       _T1CON 000FCD                         _T2CON 000FCA                         _T3CON 000FB1  
          __size_of_MCUconfig 001A                         i2l210 1002                         i2l312 0612  
                       i2l322 0DE8                         i2l242 10DE                         i2l236 0E74  
                       i2l333 1182                         i2l341 0F64                         i2l350 10BC  
                       i2l318 0DD4                         i2l254 0C0C                         i2l270 09EA  
                       i2l238 0E76                         i2l246 0F9E                         i2l336 1188  
                       i2l440 076E                         i2l264 0C0E                         i2l280 09EC  
                       i2l248 0FA6                         i2l441 0774                         i2l370 1172  
                       i2l346 0F1C                         i2l355 1090                         i2l451 07B8  
                       i2l443 0782                         i2l452 07DC                         i2l380 0C48  
                       i2l461 0800                         i2l453 07CA                         i2l445 0794  
                       i2l373 0C14                         i2l462 0824                         i2l438 0760  
                       i2l471 084A                         i2l463 0812                         i2l391 0C94  
                       i2l383 0CB4                         i2l375 0C22                         i2l480 0880  
                       i2l472 084C                         i2l456 07DE                         i2l448 08A6  
                       i2l384 0C5E                         i2l376 0C28                         i2l288 0610  
                       i2l481 0888                         i2l449 07AA                         i2l393 0CA2  
                       i2l474 085A                         i2l466 0826                         i2l458 07EC  
                       i2l394 0CA6                         i2l386 0C6C                         i2l378 0C36  
                       i2l483 0896                         i2l475 0862                         i2l459 07F2  
                       i2l387 0C90                         i2l484 0898                         i2l468 0834  
                       i2l388 0C7E                         i2l477 0870                         i2l469 083C  
                       i2l478 0872                         _TRISA 000F92                         _TRISB 000F93  
                       _TRISC 000F94                         _SSPIF 007CF3             ?_INT1interruption 001D  
            __end_ofi2_AddBCD 10BE            __size_of_INTconfig 0016                         _Blink 0011  
                       _State 0010            ??_INT1interruption 0024                    SubBCD@temp 002B  
            __end_ofi2_SubBCD 1092              __end_ofi2_WakeUp 0DEA                   ?_TMR0enable 001D  
                 ?_TMR1enable 001D                         tablat 000FF5                ?_IncrementTime 0021  
            _CurrentValveTime 0004                         ttemp5 0034                         ttemp6 0037  
                       ttemp7 003B                         status 000FD8             __end_of_I2Cconfig 117E  
                       wtemp8 0034                    _LastSecond 0008           __size_of_GPIOconfig 001E  
             __initialization 0FA8                  __end_of_Buzz 1174            __size_of_PWMconfig 0020  
                __end_of_main 040E              _TMR3interruption 0F66                        ??_Buzz 001D  
                      ??_main 002E                    _BuzzerFlag 0009                 __activetblptr 000002  
           _UpdateCurrentTime 0614             ?_INT2interruption 001D            ?_UpdateCurrentTime 001D  
                   ??_MCUinit 002E            ??_INT2interruption 0022      __end_of_TMR0interruption 0E78  
                      _CCPR1L 000FBE                   ?_ChangeTime 001D                        i2l2020 0B2A  
                      i2l2100 0950                        i2l2030 0B46                        i2l2022 0B2E  
                      i2l2014 0B06                        i2l2102 0960                        i2l1320 1184  
                      i2l2040 0B62                        i2l2032 0B4A                        i2l2024 0B36  
                      i2l2016 0B14                        i2l2104 0970                        i2l2120 0432  
                      i2l1314 1168                        i2l2050 0B82                        i2l2042 0B6A  
                      i2l2034 0B52                        i2l2026 0B3A                        i2l2018 0B22  
                      i2l2130 046E                        i2l2122 0442                        i2l2114 040E  
                      i2l1316 116A                        i2l2052 0B86                        i2l2044 0B6E  
                      i2l2036 0B56                        i2l2028 0B3E                        i2l2108 0980  
                      i2l2140 04AA                        i2l2132 047E                        i2l2124 044A  
                      i2l2116 041C                        i2l1318 117E                        i2l1190 0792  
                      i2l2054 0B8E                        i2l2046 0B76                        i2l2038 0B5E  
                      i2l2150 04DE                        i2l2142 04AE                        i2l2134 0486  
                      i2l2126 0456                        i2l2118 042A                        i2l1430 0E0E  
                      i2l1422 0DEA                        i2l1192 07A6                        i2l2056 0B92  
                      i2l2048 0B7A                        i2l2080 08D8                        i2l2072 08A8  
                      i2l2160 051E                        i2l2152 04EE                        i2l2144 04B6  
                      i2l2136 0492                        i2l2128 0460                        i2l1432 0E20  
                      i2l1424 0DF8                        i2l1194 07C8                        i2l1186 075E  
                      i2l2058 0B9A                        i2l2066 0BA2                        i2l2090 0914  
                      i2l2082 08E2                        i2l2074 08B6                        i2l2170 0566  
                      i2l2162 052E                        i2l2154 04F6                        i2l2146 04C6  
                      i2l2138 049C                        i2l1434 0E32                        i2l1442 0E52  
                      i2l1450 10CC           ??_UpdateCurrentTime 0028                        i2l1196 07EE  
                      i2l1188 0770                        i2l2092 0918                        i2l2084 08F0  
                      i2l2076 08C4                        i2l2172 056E                        i2l2164 053E  
                      i2l2156 0506                        i2l2148 04CE                        i2l1436 0E3E  
                      i2l1428 0E0A                        i2l1452 10DA                        i2l1460 0F82  
                      i2l1198 0810                        i2l2094 0920                        i2l2086 08FC  
                      i2l2078 08CC                        i2l2174 057E                        i2l2166 0546  
                      i2l2158 0516                        i2l2182 05A6                        i2l1438 0E4A  
                      i2l1454 10DC                        i2l1462 0F92                        i2l2350 0FEA  
                      i2l2096 0930                        i2l2088 0906                        i2l2176 058E  
                      i2l2168 0556                        i2l1448 10BE                        i2l1464 0F96  
                      i2l1456 0F66                        i2l2360 0FFE                        i2l2352 0FEE  
                      i2l2098 0940                        i2l2178 0596                        i2l1466 0FA0  
                      i2l1458 0F74                        i2l2354 0FF2                        i2l1468 0FA4  
                      i2l2356 0FF6                        i2l2390 0E66                        i2l2358 0FFA  
                      i2l2392 05BA                        i2l2394 0994                        i2l2396 0BB6  
                      i2l1870 1086                        i2l1950 0C24                        i2l1942 0F1E  
                      i2l1864 10BA                        i2l1856 1094                        i2l1952 0C46  
                      i2l1944 0F38                        i2l1960 0EF0                        i2l1858 10B2  
                      i2l1954 0C5A                        i2l1946 0F48                        i2l1962 0F00  
                      i2l1876 108E                        i2l1868 1068                        i2l1980 0D70  
                      i2l1956 0C7C                        i2l1948 0C12                        i2l1990 0DD8  
                      i2l1982 0D8C                        i2l1958 0ED6                        i2l1992 0DE4  
                      i2l1984 0D90                        i2l1976 0D50                        i2l1986 0D9C  
                      i2l1978 0D54                        i2l1988 0DAC                        _INTCON 000FF2  
                      _OSCCON 000FD3                        _AddBCD 103A                        i2u3_40 076E  
                      i2u3_41 076A                        i2u4_40 0782                        i2u4_41 077E  
                      i2u5_40 0792                        i2u5_41 078E                        i2u6_40 07A2  
                      i2u6_41 079E                        i2u7_40 07B8                        i2u7_41 07B4  
                      _SSPADD 000FC8                        i2u8_40 07C8                        i2u8_41 07C4  
                      i2u9_40 07D8                        i2u9_41 07D4                        _SSPBUF 000FC9  
                   ??_Display 0029                    _WakeUpTime 0001                    _TargetTime 0030  
                ?_TIMERconfig 001D             __end_of_MCUconfig 1138             __end_of_INTconfig 114E  
                 ?_BlinkDigit 001D                        _SubBCD 100E                        _WakeUp 0CB6  
             BlinkDigit@index 002A               i2SubBCD@Number1 001F               i2SubBCD@Number2 001D  
                      clear_0 0FCC     __end_of_UpdateCurrentTime 075E           __size_of_TMR0enable 0006  
         __size_of_TMR1enable 0006                        isa$std 000001                  __pdataCOMRAM 0030  
                      tblptrh 000FF7                        tblptrl 000FF6                        tblptru 000FF8  
           __end_of_PWMconfig 1100               ??_IncrementTime 0023      __end_of_TMR1interruption 10E0  
           ChangeTime@Address 001E                    __accesstop 0080       __end_of__initialization 0FD2  
               ___rparam_used 000001                 AddBCD@Number1 002A                 AddBCD@Number2 0028  
                   ?i2_AddBCD 001D                __pcstackCOMRAM 001D   __end_ofi2_UpdateCurrentTime 08A8  
         __size_of_ChangeTime 00A6                     ?i2_SubBCD 001D                     ?i2_WakeUp 001D  
                 _CurrentTime 001A                  ??_GPIOconfig 0028           __size_of_BlinkDigit 005E  
                     ?_AddBCD 0028     __size_of_INT0interruption 010A                       ?_SubBCD 0028  
                     ?_WakeUp 001D                    ??i2_AddBCD 001E            __end_of_GPIOconfig 111E  
                     _CCP1CON 000FBD            Display@Lower_Hours 002A                    ??i2_SubBCD 001E  
  __size_of_UpdateCurrentTime 014A         IncrementTimeHour@Time 0021                    ??i2_WakeUp 0021  
                     _INTCON2 000FF1                       _INTCON3 000FF0                       i2u10_40 07EC  
                     i2u10_41 07E8                       i2u11_40 0800                       i2u11_41 07FC  
                     i2u20_40 08A6                       i2u12_40 0810                       i2u20_41 08A2  
                     i2u12_41 080C                       i2u13_40 0820                       i2u13_41 081C  
                     i2u14_40 0834                       i2u14_41 0830                       i2u15_40 084A  
                     i2u15_41 0846                       i2u16_40 085A                       i2u16_41 0856  
                     i2u17_40 0870                       i2u17_41 086C                       i2u18_40 0880  
                     i2u18_41 087C                       i2u19_40 0896                       i2u19_41 0892  
                     i2u70_40 0F74                       i2u70_41 0F70                       i2u71_40 0F82  
                     i2u71_41 0F7E                       i2u64_40 0DF8                       i2u72_40 0F92  
                     i2u64_41 0DF4                       i2u72_41 0F8E                       _MCUinit 115C  
                     i2u65_40 0E06                       i2u65_41 0E02                       i2u66_40 0E20  
                     i2u66_41 0E1C                       i2u67_40 0E32                       i2u67_41 0E2E  
                     i2u68_40 10CC                       i2u68_41 10C8                       i2u69_40 10DA  
                     i2u69_41 10D6               _ValveEnableLock 000B                       _SSPCON1 000FC6  
     __size_of_my_isr_routine 1006      __end_of_TMR3interruption 0FA8                  ??_TMR0enable 001D  
                ??_TMR1enable 001D               __size_of_AddBCD 002C          Display@Lower_Minutes 002C  
                     _Display 09EE     __size_of_INT1interruption 0146                       __Hparam 0000  
                     __Lparam 0000                   _ValveEnable 000C                     _I2Cconfig 1174  
        __size_of_TIMERconfig 000E               __size_of_SubBCD 002C               __size_of_WakeUp 009A  
                     __pcinit 0FA8                       __ramtop 1000                       __ptext0 0012  
                     __ptext1 0CB6                       __ptext2 0614                       __ptext3 100E  
                     __ptext4 103A            __end_of_TMR0enable 118A                       __ptext5 115C  
                     __ptext6 09EE                       __ptext7 111E                       __ptext8 114E  
                     __ptext9 10E0            __end_of_TMR1enable 1184                     _T0CONbits 000FD5  
                   _T1CONbits 000FCD                     _T2CONbits 000FCA                   _WaterEnable 000E  
                ??_ChangeTime 001E                __pintcode_body 0FE0             ?_TMR0interruption 001D  
        end_of_initialization 0FD2            ??_TMR0interruption 001D                 __Lmediumconst 0000  
                     int_func 0FE0     __size_of_INT2interruption 0206                  ??_BlinkDigit 0028  
                i2AddBCD@temp 0020                    ?_I2Cconfig 001D                     _MCUconfig 111E  
                     postinc0 000FEE                       postinc2 000FDE                     _INTconfig 1138  
          Display@Upper_Hours 0029            __end_of_ChangeTime 0CB6                     _PORTCbits 000F82  
                   _TRISCbits 000F94            __end_of_BlinkDigit 0ED6             ?_TMR1interruption 001D  
                   _PWMconfig 10E0            ??_TMR1interruption 001D                   _CCP1CONbits 000FBD  
            _INT0interruption 0B06                __end_of_AddBCD 1066                __end_of_SubBCD 103A  
                  ?_MCUconfig 001D                __end_of_WakeUp 0D50            _Blink_Second_Digit 0012  
                  ?_INTconfig 001D             __size_ofi2_AddBCD 002C            _UpdateTimePrescale 000A  
               __pidataCOMRAM 118A             __size_ofi2_SubBCD 002C             __size_ofi2_WakeUp 009A  
         start_initialization 0FA8                _my_isr_routine 0008         __end_of_IncrementTime 0F66  
                    ??_AddBCD 0029                    ?_PWMconfig 001D              _INT1interruption 08A8  
                    ??_SubBCD 0029                   ??_I2Cconfig 0028                      ??_WakeUp 002C  
                   _ValveTime 0014  __size_ofi2_UpdateCurrentTime 014A                   __pbssCOMRAM 0001  
      __end_of_my_isr_routine 100E                      ?_MCUinit 001D             ?_TMR3interruption 001D  
          ??_TMR3interruption 001D                      ?_Display 0028             _Blink_First_Digit 0013  
              _UpdateTimeFlag 000F              _INT2interruption 040E                    AddBCD@temp 002B  
                   __pintcode 0008                   ??_MCUconfig 0028                   ??_INTconfig 0028  
             i2AddBCD@Number1 001F               i2AddBCD@Number2 001D               ?_my_isr_routine 001D  
              Display@Minutes 0028                   ??_PWMconfig 0028                 ??_TIMERconfig 0028  
                    _PIE1bits 000F9D                      _PIE2bits 000FA0                      i2u124_40 10B2  
                    i2u140_40 0C6C                      i2u124_41 10AE                      i2u140_41 0C68  
                    i2u125_40 1086                      i2u141_40 0C7C                      i2u125_41 1082  
                    i2u141_41 0C78                      i2u142_40 0C8C                      i2u142_41 0C88  
                    i2u151_40 0B14                      i2u143_40 0CA2                      i2u135_40 0F38  
                    i2u151_41 0B10                      i2u143_41 0C9E                      i2u135_41 0F34  
                    i2u152_40 0B22                      i2u144_40 0CB4                      i2u136_40 0C22  
                    i2u160_40 04EE                      i2u152_41 0B1E                      i2u144_41 0CB0  
                    i2u136_41 0C1E                      i2u160_41 04EA                      i2u137_40 0C36  
                    i2u145_40 0EF0                      i2u153_40 08B6                      i2u161_40 0516  
                    i2u137_41 0C32                      i2u145_41 0EEC                      i2u153_41 08B2  
                    i2u161_41 0512                      i2u138_40 0C46                      i2u154_40 08C4  
                    i2u162_40 053E                      i2u138_41 0C42                      i2u154_41 08C0  
                    i2u162_41 053A                      i2u147_40 0D70                      i2u139_40 0C56  
                    i2u163_40 0566                      i2u155_40 041C                      i2u147_41 0D6C  
                    i2u139_41 0C52                      i2u163_41 0562                      i2u155_41 0418  
                    i2u148_40 0D8C                      i2u164_40 058E                      i2u156_40 042A  
                    i2u148_41 0D88                      i2u164_41 058A                      i2u156_41 0426  
                    i2u157_40 0442                      i2u157_41 043E                      i2u158_40 047E  
                    i2u158_41 047A                      i2u159_40 04C6                      i2u159_41 04C2  
                    _PIR1bits 000F9E                      _PIR2bits 000FA1                      i2_AddBCD 1092  
   __size_of_TMR0interruption 008E                      i2_SubBCD 1066                      i2_WakeUp 0D50  
    __end_of_INT0interruption 0C10              __size_of_MCUinit 000C                   _INTCON3bits 000FF0  
               SubBCD@Number1 002A                 SubBCD@Number2 0028              __size_of_Display 0118  
                    __Hrparam 0000                      __Lrparam 0000           __end_of_TIMERconfig 115C  
   __size_of_TMR1interruption 0022             _IncrementTimeHour 0ED6      __end_of_INT1interruption 09EE  
          ?_IncrementTimeHour 0021               _WaterEnableLock 000D                      __ptext10 1138  
                    __ptext11 1174                      __ptext20 0ED6                      __ptext12 1100  
                    __ptext21 0F1E                      __ptext13 0E78                      __ptext30 1168  
                    __ptext22 0C10                      __ptext23 0B06                      __ptext15 0F66  
                    __ptext24 0D50                      __ptext16 10BE                      __ptext25 075E  
                    __ptext17 0DEA                      __ptext26 1066                      __ptext18 040E  
                    __ptext27 1092                      __ptext19 08A8                      __ptext28 117E  
                    __ptext29 1184           ??_IncrementTimeHour 0023                 __size_of_Buzz 000C  
               __size_of_main 03FC           i2_UpdateCurrentTime 075E                      isa$xinst 000000  
                    int$flags 0033     __end_of_IncrementTimeHour 0F1E          ?i2_UpdateCurrentTime 001D  
                _WateringTime 0017      __end_of_INT2interruption 0614                    _INTCONbits 000FF2  
                  _GPIOconfig 1100                  i2SubBCD@temp 0020                ChangeTime@Time 001D  
                    intlevel2 0000          Display@Upper_Minutes 002B                   _TIMERconfig 114E  
                Display@Hours 002D              _TMR0interruption 0DEA     __size_of_TMR3interruption 0042  
            ??_my_isr_routine 0026         ??i2_UpdateCurrentTime 001D        __size_of_IncrementTime 0048  
           IncrementTime@Time 0021                   _SSPCON2bits 000FC5                    _TMR0enable 1184  
                  _TMR1enable 117E  
